

Microchip MPLAB XC8 Assembler V2.45 build 20230818022343 
                                                                                               Fri Dec 29 13:44:44 2023

Microchip MPLAB XC8 C Compiler v2.45 (Free license) build 20230818022343 Og1 
     1                           	processor	12F1840
     2                           	pagewidth 120
     3                           	opt	flic
     4                           	psect	cinit,global,class=CODE,merge=1,delta=2
     5                           	psect	bssBANK1,global,class=BANK1,space=1,delta=1,noexec
     6                           	psect	clrtext,global,class=CODE,delta=2
     7                           	psect	cstackBANK1,global,class=BANK1,space=1,delta=1,noexec
     8                           	psect	cstackCOMMON,global,class=COMMON,space=1,delta=1,noexec
     9                           	psect	cstackBANK0,global,class=BANK0,space=1,delta=1,noexec
    10                           	psect	maintext,global,class=CODE,merge=1,split=1,delta=2
    11                           	psect	text1,local,class=CODE,merge=1,delta=2
    12                           	psect	text2,local,class=CODE,merge=1,delta=2
    13                           	psect	text3,local,class=CODE,merge=1,delta=2
    14                           	psect	text4,local,class=CODE,merge=1,delta=2,group=1
    15                           	psect	text5,local,class=CODE,merge=1,delta=2,group=1
    16                           	psect	text6,local,class=CODE,merge=1,delta=2
    17                           	psect	text7,local,class=CODE,merge=1,delta=2
    18                           	psect	text8,local,class=CODE,merge=1,delta=2
    19                           	psect	text9,local,class=CODE,merge=1,delta=2
    20                           	psect	text10,local,class=CODE,merge=1,delta=2
    21                           	psect	text11,local,class=CODE,merge=1,delta=2,group=1
    22                           	psect	text12,local,class=CODE,merge=1,delta=2,group=1
    23                           	psect	text13,local,class=CODE,merge=1,delta=2,group=1
    24                           	psect	text14,local,class=CODE,merge=1,delta=2,group=1
    25                           	psect	text15,local,class=CODE,merge=1,delta=2,group=1
    26                           	psect	text16,local,class=CODE,merge=1,delta=2,group=1
    27                           	psect	text17,local,class=CODE,merge=1,delta=2
    28                           	psect	text18,local,class=CODE,merge=1,delta=2
    29                           	psect	text19,local,class=CODE,merge=1,delta=2
    30                           	psect	text20,local,class=CODE,merge=1,delta=2
    31                           	psect	text21,local,class=CODE,merge=1,delta=2
    32                           	psect	text22,local,class=CODE,merge=1,delta=2
    33                           	psect	text23,local,class=CODE,merge=1,delta=2
    34                           	psect	text24,local,class=CODE,merge=1,delta=2
    35                           	psect	config,global,abs,ovrld,class=CONFIG,space=4,delta=2,noexec
    36                           	dabs	1,0x7E,2
    37     0000                     
    38                           ; Generated 07/09/2023 GMT
    39                           ; 
    40                           ; Copyright © 2023, Microchip Technology Inc. and its subsidiaries ("Microchip")
    41                           ; All rights reserved.
    42                           ; 
    43                           ; This software is developed by Microchip Technology Inc. and its subsidiaries ("Microch
      +                          ip").
    44                           ; 
    45                           ; Redistribution and use in source and binary forms, with or without modification, are
    46                           ; permitted provided that the following conditions are met:
    47                           ; 
    48                           ;     1. Redistributions of source code must retain the above copyright notice, this lis
      +                          t of
    49                           ;        conditions and the following disclaimer.
    50                           ; 
    51                           ;     2. Redistributions in binary form must reproduce the above copyright notice, this 
      +                          list
    52                           ;        of conditions and the following disclaimer in the documentation and/or other
    53                           ;        materials provided with the distribution. Publication is not required when
    54                           ;        this file is used in an embedded application.
    55                           ; 
    56                           ;     3. Microchip's name may not be used to endorse or promote products derived from th
      +                          is
    57                           ;        software without specific prior written permission.
    58                           ; 
    59                           ; THIS SOFTWARE IS PROVIDED BY MICROCHIP "AS IS" AND ANY EXPRESS OR IMPLIED WARRANTIES,
    60                           ; INCLUDING, BUT NOT LIMITED TO, THE IMPLIED WARRANTIES OF MERCHANTABILITY AND FITNESS F
      +                          OR
    61                           ; PURPOSE ARE DISCLAIMED.  IN NO EVENT SHALL MICROCHIP BE LIABLE FOR ANY DIRECT, INDIREC
      +                          T,
    62                           ; INCIDENTAL, SPECIAL, EXEMPLARY, OR CONSEQUENTIAL DAMAGES (INCLUDING BUT NOT LIMITED TO
    63                           ; PROCUREMENT OF SUBSTITUTE GOODS OR SERVICES; LOSS OF USE, DATA OR PROFITS; OR BUSINESS
    64                           ; INTERRUPTION) HOWSOEVER CAUSED AND ON ANY THEORY OF LIABILITY, WHETHER IN CONTRACT, ST
      +                          RICT
    65                           ; LIABILITY, OR TORT (INCLUDING NEGLIGENCE OR OTHERWISE) ARISING IN ANY WAY OUT OF THE U
      +                          SE OF
    66                           ; THIS SOFTWARE, EVEN IF ADVISED OF THE POSSIBILITY OF SUCH DAMAGE.
    67                           ; 
    68                           ; 
    69                           ; Code-generator required, PIC12F1840 Definitions
    70                           ; 
    71                           ; SFR Addresses
    72     0000                     	;# 
    73     0001                     	;# 
    74     0002                     	;# 
    75     0003                     	;# 
    76     0004                     	;# 
    77     0005                     	;# 
    78     0006                     	;# 
    79     0007                     	;# 
    80     0008                     	;# 
    81     0009                     	;# 
    82     000A                     	;# 
    83     000B                     	;# 
    84     000C                     	;# 
    85     0011                     	;# 
    86     0012                     	;# 
    87     0015                     	;# 
    88     0016                     	;# 
    89     0016                     	;# 
    90     0017                     	;# 
    91     0018                     	;# 
    92     0019                     	;# 
    93     001A                     	;# 
    94     001B                     	;# 
    95     001C                     	;# 
    96     001E                     	;# 
    97     001F                     	;# 
    98     008C                     	;# 
    99     0091                     	;# 
   100     0092                     	;# 
   101     0095                     	;# 
   102     0096                     	;# 
   103     0097                     	;# 
   104     0098                     	;# 
   105     0099                     	;# 
   106     009A                     	;# 
   107     009B                     	;# 
   108     009B                     	;# 
   109     009C                     	;# 
   110     009D                     	;# 
   111     009E                     	;# 
   112     010C                     	;# 
   113     0111                     	;# 
   114     0112                     	;# 
   115     0115                     	;# 
   116     0116                     	;# 
   117     0117                     	;# 
   118     0118                     	;# 
   119     0119                     	;# 
   120     011A                     	;# 
   121     011B                     	;# 
   122     011D                     	;# 
   123     011D                     	;# 
   124     018C                     	;# 
   125     0191                     	;# 
   126     0191                     	;# 
   127     0192                     	;# 
   128     0193                     	;# 
   129     0193                     	;# 
   130     0193                     	;# 
   131     0194                     	;# 
   132     0195                     	;# 
   133     0196                     	;# 
   134     0197                     	;# 
   135     0199                     	;# 
   136     019A                     	;# 
   137     019B                     	;# 
   138     019B                     	;# 
   139     019B                     	;# 
   140     019B                     	;# 
   141     019C                     	;# 
   142     019C                     	;# 
   143     019D                     	;# 
   144     019E                     	;# 
   145     019F                     	;# 
   146     020C                     	;# 
   147     0211                     	;# 
   148     0211                     	;# 
   149     0212                     	;# 
   150     0212                     	;# 
   151     0213                     	;# 
   152     0213                     	;# 
   153     0214                     	;# 
   154     0214                     	;# 
   155     0215                     	;# 
   156     0215                     	;# 
   157     0215                     	;# 
   158     0216                     	;# 
   159     0216                     	;# 
   160     0217                     	;# 
   161     0217                     	;# 
   162     0291                     	;# 
   163     0291                     	;# 
   164     0292                     	;# 
   165     0293                     	;# 
   166     0294                     	;# 
   167     0295                     	;# 
   168     0295                     	;# 
   169     0296                     	;# 
   170     0391                     	;# 
   171     0392                     	;# 
   172     0393                     	;# 
   173     039A                     	;# 
   174     039C                     	;# 
   175     039D                     	;# 
   176     039E                     	;# 
   177     039F                     	;# 
   178     0FE4                     	;# 
   179     0FE5                     	;# 
   180     0FE6                     	;# 
   181     0FE7                     	;# 
   182     0FE8                     	;# 
   183     0FE9                     	;# 
   184     0FEA                     	;# 
   185     0FEB                     	;# 
   186     0FED                     	;# 
   187     0FEE                     	;# 
   188     0FEF                     	;# 
   189     0000                     	;# 
   190     0001                     	;# 
   191     0002                     	;# 
   192     0003                     	;# 
   193     0004                     	;# 
   194     0005                     	;# 
   195     0006                     	;# 
   196     0007                     	;# 
   197     0008                     	;# 
   198     0009                     	;# 
   199     000A                     	;# 
   200     000B                     	;# 
   201     000C                     	;# 
   202     0011                     	;# 
   203     0012                     	;# 
   204     0015                     	;# 
   205     0016                     	;# 
   206     0016                     	;# 
   207     0017                     	;# 
   208     0018                     	;# 
   209     0019                     	;# 
   210     001A                     	;# 
   211     001B                     	;# 
   212     001C                     	;# 
   213     001E                     	;# 
   214     001F                     	;# 
   215     008C                     	;# 
   216     0091                     	;# 
   217     0092                     	;# 
   218     0095                     	;# 
   219     0096                     	;# 
   220     0097                     	;# 
   221     0098                     	;# 
   222     0099                     	;# 
   223     009A                     	;# 
   224     009B                     	;# 
   225     009B                     	;# 
   226     009C                     	;# 
   227     009D                     	;# 
   228     009E                     	;# 
   229     010C                     	;# 
   230     0111                     	;# 
   231     0112                     	;# 
   232     0115                     	;# 
   233     0116                     	;# 
   234     0117                     	;# 
   235     0118                     	;# 
   236     0119                     	;# 
   237     011A                     	;# 
   238     011B                     	;# 
   239     011D                     	;# 
   240     011D                     	;# 
   241     018C                     	;# 
   242     0191                     	;# 
   243     0191                     	;# 
   244     0192                     	;# 
   245     0193                     	;# 
   246     0193                     	;# 
   247     0193                     	;# 
   248     0194                     	;# 
   249     0195                     	;# 
   250     0196                     	;# 
   251     0197                     	;# 
   252     0199                     	;# 
   253     019A                     	;# 
   254     019B                     	;# 
   255     019B                     	;# 
   256     019B                     	;# 
   257     019B                     	;# 
   258     019C                     	;# 
   259     019C                     	;# 
   260     019D                     	;# 
   261     019E                     	;# 
   262     019F                     	;# 
   263     020C                     	;# 
   264     0211                     	;# 
   265     0211                     	;# 
   266     0212                     	;# 
   267     0212                     	;# 
   268     0213                     	;# 
   269     0213                     	;# 
   270     0214                     	;# 
   271     0214                     	;# 
   272     0215                     	;# 
   273     0215                     	;# 
   274     0215                     	;# 
   275     0216                     	;# 
   276     0216                     	;# 
   277     0217                     	;# 
   278     0217                     	;# 
   279     0291                     	;# 
   280     0291                     	;# 
   281     0292                     	;# 
   282     0293                     	;# 
   283     0294                     	;# 
   284     0295                     	;# 
   285     0295                     	;# 
   286     0296                     	;# 
   287     0391                     	;# 
   288     0392                     	;# 
   289     0393                     	;# 
   290     039A                     	;# 
   291     039C                     	;# 
   292     039D                     	;# 
   293     039E                     	;# 
   294     039F                     	;# 
   295     0FE4                     	;# 
   296     0FE5                     	;# 
   297     0FE6                     	;# 
   298     0FE7                     	;# 
   299     0FE8                     	;# 
   300     0FE9                     	;# 
   301     0FEA                     	;# 
   302     0FEB                     	;# 
   303     0FED                     	;# 
   304     0FEE                     	;# 
   305     0FEF                     	;# 
   306     0000                     	;# 
   307     0001                     	;# 
   308     0002                     	;# 
   309     0003                     	;# 
   310     0004                     	;# 
   311     0005                     	;# 
   312     0006                     	;# 
   313     0007                     	;# 
   314     0008                     	;# 
   315     0009                     	;# 
   316     000A                     	;# 
   317     000B                     	;# 
   318     000C                     	;# 
   319     0011                     	;# 
   320     0012                     	;# 
   321     0015                     	;# 
   322     0016                     	;# 
   323     0016                     	;# 
   324     0017                     	;# 
   325     0018                     	;# 
   326     0019                     	;# 
   327     001A                     	;# 
   328     001B                     	;# 
   329     001C                     	;# 
   330     001E                     	;# 
   331     001F                     	;# 
   332     008C                     	;# 
   333     0091                     	;# 
   334     0092                     	;# 
   335     0095                     	;# 
   336     0096                     	;# 
   337     0097                     	;# 
   338     0098                     	;# 
   339     0099                     	;# 
   340     009A                     	;# 
   341     009B                     	;# 
   342     009B                     	;# 
   343     009C                     	;# 
   344     009D                     	;# 
   345     009E                     	;# 
   346     010C                     	;# 
   347     0111                     	;# 
   348     0112                     	;# 
   349     0115                     	;# 
   350     0116                     	;# 
   351     0117                     	;# 
   352     0118                     	;# 
   353     0119                     	;# 
   354     011A                     	;# 
   355     011B                     	;# 
   356     011D                     	;# 
   357     011D                     	;# 
   358     018C                     	;# 
   359     0191                     	;# 
   360     0191                     	;# 
   361     0192                     	;# 
   362     0193                     	;# 
   363     0193                     	;# 
   364     0193                     	;# 
   365     0194                     	;# 
   366     0195                     	;# 
   367     0196                     	;# 
   368     0197                     	;# 
   369     0199                     	;# 
   370     019A                     	;# 
   371     019B                     	;# 
   372     019B                     	;# 
   373     019B                     	;# 
   374     019B                     	;# 
   375     019C                     	;# 
   376     019C                     	;# 
   377     019D                     	;# 
   378     019E                     	;# 
   379     019F                     	;# 
   380     020C                     	;# 
   381     0211                     	;# 
   382     0211                     	;# 
   383     0212                     	;# 
   384     0212                     	;# 
   385     0213                     	;# 
   386     0213                     	;# 
   387     0214                     	;# 
   388     0214                     	;# 
   389     0215                     	;# 
   390     0215                     	;# 
   391     0215                     	;# 
   392     0216                     	;# 
   393     0216                     	;# 
   394     0217                     	;# 
   395     0217                     	;# 
   396     0291                     	;# 
   397     0291                     	;# 
   398     0292                     	;# 
   399     0293                     	;# 
   400     0294                     	;# 
   401     0295                     	;# 
   402     0295                     	;# 
   403     0296                     	;# 
   404     0391                     	;# 
   405     0392                     	;# 
   406     0393                     	;# 
   407     039A                     	;# 
   408     039C                     	;# 
   409     039D                     	;# 
   410     039E                     	;# 
   411     039F                     	;# 
   412     0FE4                     	;# 
   413     0FE5                     	;# 
   414     0FE6                     	;# 
   415     0FE7                     	;# 
   416     0FE8                     	;# 
   417     0FE9                     	;# 
   418     0FEA                     	;# 
   419     0FEB                     	;# 
   420     0FED                     	;# 
   421     0FEE                     	;# 
   422     0FEF                     	;# 
   423     0000                     	;# 
   424     0001                     	;# 
   425     0002                     	;# 
   426     0003                     	;# 
   427     0004                     	;# 
   428     0005                     	;# 
   429     0006                     	;# 
   430     0007                     	;# 
   431     0008                     	;# 
   432     0009                     	;# 
   433     000A                     	;# 
   434     000B                     	;# 
   435     000C                     	;# 
   436     0011                     	;# 
   437     0012                     	;# 
   438     0015                     	;# 
   439     0016                     	;# 
   440     0016                     	;# 
   441     0017                     	;# 
   442     0018                     	;# 
   443     0019                     	;# 
   444     001A                     	;# 
   445     001B                     	;# 
   446     001C                     	;# 
   447     001E                     	;# 
   448     001F                     	;# 
   449     008C                     	;# 
   450     0091                     	;# 
   451     0092                     	;# 
   452     0095                     	;# 
   453     0096                     	;# 
   454     0097                     	;# 
   455     0098                     	;# 
   456     0099                     	;# 
   457     009A                     	;# 
   458     009B                     	;# 
   459     009B                     	;# 
   460     009C                     	;# 
   461     009D                     	;# 
   462     009E                     	;# 
   463     010C                     	;# 
   464     0111                     	;# 
   465     0112                     	;# 
   466     0115                     	;# 
   467     0116                     	;# 
   468     0117                     	;# 
   469     0118                     	;# 
   470     0119                     	;# 
   471     011A                     	;# 
   472     011B                     	;# 
   473     011D                     	;# 
   474     011D                     	;# 
   475     018C                     	;# 
   476     0191                     	;# 
   477     0191                     	;# 
   478     0192                     	;# 
   479     0193                     	;# 
   480     0193                     	;# 
   481     0193                     	;# 
   482     0194                     	;# 
   483     0195                     	;# 
   484     0196                     	;# 
   485     0197                     	;# 
   486     0199                     	;# 
   487     019A                     	;# 
   488     019B                     	;# 
   489     019B                     	;# 
   490     019B                     	;# 
   491     019B                     	;# 
   492     019C                     	;# 
   493     019C                     	;# 
   494     019D                     	;# 
   495     019E                     	;# 
   496     019F                     	;# 
   497     020C                     	;# 
   498     0211                     	;# 
   499     0211                     	;# 
   500     0212                     	;# 
   501     0212                     	;# 
   502     0213                     	;# 
   503     0213                     	;# 
   504     0214                     	;# 
   505     0214                     	;# 
   506     0215                     	;# 
   507     0215                     	;# 
   508     0215                     	;# 
   509     0216                     	;# 
   510     0216                     	;# 
   511     0217                     	;# 
   512     0217                     	;# 
   513     0291                     	;# 
   514     0291                     	;# 
   515     0292                     	;# 
   516     0293                     	;# 
   517     0294                     	;# 
   518     0295                     	;# 
   519     0295                     	;# 
   520     0296                     	;# 
   521     0391                     	;# 
   522     0392                     	;# 
   523     0393                     	;# 
   524     039A                     	;# 
   525     039C                     	;# 
   526     039D                     	;# 
   527     039E                     	;# 
   528     039F                     	;# 
   529     0FE4                     	;# 
   530     0FE5                     	;# 
   531     0FE6                     	;# 
   532     0FE7                     	;# 
   533     0FE8                     	;# 
   534     0FE9                     	;# 
   535     0FEA                     	;# 
   536     0FEB                     	;# 
   537     0FED                     	;# 
   538     0FEE                     	;# 
   539     0FEF                     	;# 
   540     000C                     _PORTAbits	set	12
   541     0099                     _OSCCON	set	153
   542     008C                     _TRISAbits	set	140
   543     011D                     _APFCONbits	set	285
   544     019D                     _RCSTAbits	set	413
   545     019B                     _SPBRG	set	411
   546     019F                     _BAUDCONbits	set	415
   547     018C                     _ANSELA	set	396
   548     019A                     _TXREG	set	410
   549     019E                     _TXSTAbits	set	414
   550                           
   551                           	psect	cinit
   552     07F5                     start_initialization:	
   553                           ; #config settings
   554                           
   555     07F5                     __initialization:
   556                           
   557                           ; Clear objects allocated to BANK1
   558     07F5  30BC               	movlw	low __pbssBANK1
   559     07F6  0084               	movwf	4
   560     07F7  3000               	movlw	high __pbssBANK1
   561     07F8  0085               	movwf	5
   562     07F9  300E               	movlw	14
   563     07FA  318B  23BB  3187   	fcall	clear_ram0
   564     07FD                     end_of_initialization:	
   565                           ;End of C runtime variable initialization code
   566                           
   567     07FD                     __end_of__initialization:
   568     07FD  0020               	movlb	0
   569     07FE  318C  2CA9         	ljmp	_main	;jump to C main() function
   570                           
   571                           	psect	bssBANK1
   572     00BC                     __pbssBANK1:
   573     00BC                     _Humidity_Value:
   574     00BC                     	ds	2
   575     00BE                     _Temperature_Value:
   576     00BE                     	ds	2
   577     00C0                     _Humidity:
   578     00C0                     	ds	2
   579     00C2                     _Temperature:
   580     00C2                     	ds	2
   581     00C4                     _hundred1:
   582     00C4                     	ds	1
   583     00C5                     _one1:
   584     00C5                     	ds	1
   585     00C6                     _ten1:
   586     00C6                     	ds	1
   587     00C7                     _hundred:
   588     00C7                     	ds	1
   589     00C8                     _one:
   590     00C8                     	ds	1
   591     00C9                     _ten:
   592     00C9                     	ds	1
   593                           
   594                           	psect	clrtext
   595     0BBB                     clear_ram0:	
   596                           ;	Called with FSR0 containing the base address, and
   597                           ;	WREG with the size to clear
   598                           
   599     0BBB  0064               	clrwdt	;clear the watchdog before getting into this loop
   600     0BBC                     clrloop0:
   601     0BBC  0180               	clrf	0	;clear RAM location pointed to by FSR
   602     0BBD  3101               	addfsr 0,1
   603     0BBE  0B89               	decfsz	9,f	;Have we reached the end of clearing yet?
   604     0BBF  2BBC               	goto	clrloop0	;have we reached the end yet?
   605     0BC0  3400               	retlw	0	;all done for this memory range, return
   606                           
   607                           	psect	cstackBANK1
   608     00A0                     __pcstackBANK1:
   609     00A0                     ___fltol@sign1:
   610                           
   611                           ; 1 bytes @ 0x0
   612     00A0                     	ds	1
   613     00A1                     ___fltol@exp1:
   614                           
   615                           ; 1 bytes @ 0x1
   616     00A1                     	ds	1
   617     00A2                     ??_GXHT30_read_result:
   618                           
   619                           ; 1 bytes @ 0x2
   620     00A2                     	ds	2
   621     00A4                     GXHT30_read_result@addr:
   622                           
   623                           ; 1 bytes @ 0x4
   624     00A4                     	ds	1
   625     00A5                     GXHT30_read_result@tem:
   626                           
   627                           ; 2 bytes @ 0x5
   628     00A5                     	ds	2
   629     00A7                     GXHT30_read_result@hum:
   630                           
   631                           ; 2 bytes @ 0x7
   632     00A7                     	ds	2
   633     00A9                     GXHT30_read_result@buff:
   634                           
   635                           ; 12 bytes @ 0x9
   636     00A9                     	ds	12
   637     00B5                     _GXHT30_read_result$964:
   638                           
   639                           ; 4 bytes @ 0x15
   640     00B5                     	ds	4
   641     00B9                     ??_GXHT30_single_call:
   642                           
   643                           ; 1 bytes @ 0x19
   644     00B9                     	ds	1
   645     00BA                     ??_main:
   646                           
   647                           ; 1 bytes @ 0x1A
   648     00BA                     	ds	2
   649                           
   650                           	psect	cstackCOMMON
   651     0070                     __pcstackCOMMON:
   652     0070                     ?_main_init:
   653     0070                     ??_main_init:	
   654                           ; 1 bytes @ 0x0
   655                           
   656     0070                     ?_IIC_init:	
   657                           ; 1 bytes @ 0x0
   658                           
   659     0070                     ??_IIC_init:	
   660                           ; 1 bytes @ 0x0
   661                           
   662     0070                     ?_Clear:	
   663                           ; 1 bytes @ 0x0
   664                           
   665     0070                     ??_Clear:	
   666                           ; 1 bytes @ 0x0
   667                           
   668     0070                     ?_GXHT30_single_call:	
   669                           ; 1 bytes @ 0x0
   670                           
   671     0070                     ?_bit_Value:	
   672                           ; 1 bytes @ 0x0
   673                           
   674     0070                     ?_TXREG_TRMT:	
   675                           ; 1 bytes @ 0x0
   676                           
   677     0070                     ??_TXREG_TRMT:	
   678                           ; 1 bytes @ 0x0
   679                           
   680     0070                     ?_main:	
   681                           ; 1 bytes @ 0x0
   682                           
   683     0070                     ?_IIC_Start:	
   684                           ; 1 bytes @ 0x0
   685                           
   686     0070                     ??_IIC_Start:	
   687                           ; 1 bytes @ 0x0
   688                           
   689     0070                     ?_IIC_Stop:	
   690                           ; 1 bytes @ 0x0
   691                           
   692     0070                     ??_IIC_Stop:	
   693                           ; 1 bytes @ 0x0
   694                           
   695     0070                     ?_IIC_Ack:	
   696                           ; 1 bytes @ 0x0
   697                           
   698     0070                     ??_IIC_Ack:	
   699                           ; 1 bytes @ 0x0
   700                           
   701     0070                     ?_IIC_NAck:	
   702                           ; 1 bytes @ 0x0
   703                           
   704     0070                     ??_IIC_NAck:	
   705                           ; 1 bytes @ 0x0
   706                           
   707     0070                     ?_IIC_WAck:	
   708                           ; 1 bytes @ 0x0
   709                           
   710     0070                     ??_IIC_WAck:	
   711                           ; 1 bytes @ 0x0
   712                           
   713     0070                     ?_IIC_SendByte:	
   714                           ; 1 bytes @ 0x0
   715                           
   716     0070                     ?_IIC_ReadByte:	
   717                           ; 1 bytes @ 0x0
   718                           
   719     0070                     ?_GXHT30_read_result:	
   720                           ; 1 bytes @ 0x0
   721                           
   722     0070                     ?__Umul8_16:	
   723                           ; 1 bytes @ 0x0
   724                           
   725     0070                     ?___awmod:	
   726                           ; 2 bytes @ 0x0
   727                           
   728     0070                     ?___xxtofl:	
   729                           ; 2 bytes @ 0x0
   730                           
   731     0070                     __Umul8_16@multiplicand:	
   732                           ; 4 bytes @ 0x0
   733                           
   734     0070                     IIC_SendByte@txd:	
   735                           ; 1 bytes @ 0x0
   736                           
   737     0070                     IIC_ReadByte@ack:	
   738                           ; 2 bytes @ 0x0
   739                           
   740     0070                     ___awmod@divisor:	
   741                           ; 2 bytes @ 0x0
   742                           
   743     0070                     ___xxtofl@val:	
   744                           ; 2 bytes @ 0x0
   745                           
   746                           
   747                           ; 4 bytes @ 0x0
   748     0070                     	ds	1
   749     0071                     IIC_WAck@i:
   750                           
   751                           ; 1 bytes @ 0x1
   752     0071                     	ds	1
   753     0072                     ??__Umul8_16:
   754     0072                     ??_IIC_SendByte:	
   755                           ; 1 bytes @ 0x2
   756                           
   757     0072                     ??_IIC_ReadByte:	
   758                           ; 1 bytes @ 0x2
   759                           
   760     0072                     IIC_SendByte@i:	
   761                           ; 1 bytes @ 0x2
   762                           
   763     0072                     ___awmod@dividend:	
   764                           ; 2 bytes @ 0x2
   765                           
   766                           
   767                           ; 2 bytes @ 0x2
   768     0072                     	ds	1
   769     0073                     IIC_ReadByte@receive:
   770                           
   771                           ; 1 bytes @ 0x3
   772     0073                     	ds	1
   773     0074                     ?_GXHT30_write_cmd:
   774     0074                     ??___awmod:	
   775                           ; 1 bytes @ 0x4
   776                           
   777     0074                     ??___xxtofl:	
   778                           ; 1 bytes @ 0x4
   779                           
   780     0074                     IIC_ReadByte@i:	
   781                           ; 1 bytes @ 0x4
   782                           
   783     0074                     GXHT30_write_cmd@MSB:	
   784                           ; 1 bytes @ 0x4
   785                           
   786     0074                     __Umul8_16@product:	
   787                           ; 1 bytes @ 0x4
   788                           
   789                           
   790                           ; 2 bytes @ 0x4
   791     0074                     	ds	1
   792     0075                     GXHT30_write_cmd@LSB:
   793     0075                     ___awmod@counter:	
   794                           ; 1 bytes @ 0x5
   795                           
   796                           
   797                           ; 1 bytes @ 0x5
   798     0075                     	ds	1
   799     0076                     ??_GXHT30_write_cmd:
   800     0076                     ___awmod@sign:	
   801                           ; 1 bytes @ 0x6
   802                           
   803     0076                     __Umul8_16@word_mpld:	
   804                           ; 1 bytes @ 0x6
   805                           
   806                           
   807                           ; 2 bytes @ 0x6
   808     0076                     	ds	1
   809     0077                     ?___awdiv:
   810     0077                     ___awdiv@divisor:	
   811                           ; 2 bytes @ 0x7
   812                           
   813                           
   814                           ; 2 bytes @ 0x7
   815     0077                     	ds	1
   816     0078                     GXHT30_write_cmd@addr:
   817     0078                     __Umul8_16@multiplier:	
   818                           ; 1 bytes @ 0x8
   819                           
   820     0078                     ___xxtofl@sign:	
   821                           ; 1 bytes @ 0x8
   822                           
   823                           
   824                           ; 1 bytes @ 0x8
   825     0078                     	ds	1
   826     0079                     ___xxtofl@exp:
   827     0079                     ___awdiv@dividend:	
   828                           ; 1 bytes @ 0x9
   829                           
   830                           
   831                           ; 2 bytes @ 0x9
   832     0079                     	ds	1
   833     007A                     ___xxtofl@arg:
   834                           
   835                           ; 4 bytes @ 0xA
   836     007A                     	ds	1
   837     007B                     ??___awdiv:
   838                           
   839                           ; 1 bytes @ 0xB
   840     007B                     	ds	1
   841     007C                     ??_bit_Value:
   842     007C                     ??_ASCII_TH:	
   843                           ; 1 bytes @ 0xC
   844                           
   845                           
   846                           ; 1 bytes @ 0xC
   847     007C                     	ds	2
   848                           
   849                           	psect	cstackBANK0
   850     0020                     __pcstackBANK0:
   851     0020                     ?___flmul:
   852     0020                     ___awdiv@counter:	
   853                           ; 4 bytes @ 0x0
   854                           
   855     0020                     ___flmul@b:	
   856                           ; 1 bytes @ 0x0
   857                           
   858                           
   859                           ; 4 bytes @ 0x0
   860     0020                     	ds	1
   861     0021                     ___awdiv@sign:
   862                           
   863                           ; 1 bytes @ 0x1
   864     0021                     	ds	1
   865     0022                     ___awdiv@quotient:
   866                           
   867                           ; 2 bytes @ 0x2
   868     0022                     	ds	2
   869     0024                     ?_ASCII_TH:
   870     0024                     ASCII_TH@Value:	
   871                           ; 1 bytes @ 0x4
   872                           
   873     0024                     ___flmul@a:	
   874                           ; 2 bytes @ 0x4
   875                           
   876                           
   877                           ; 4 bytes @ 0x4
   878     0024                     	ds	2
   879     0026                     ASCII_TH@bit:
   880                           
   881                           ; 1 bytes @ 0x6
   882     0026                     	ds	2
   883     0028                     ??___flmul:
   884                           
   885                           ; 1 bytes @ 0x8
   886     0028                     	ds	5
   887     002D                     ___flmul@sign:
   888                           
   889                           ; 1 bytes @ 0xD
   890     002D                     	ds	1
   891     002E                     ___flmul@grs:
   892                           
   893                           ; 4 bytes @ 0xE
   894     002E                     	ds	4
   895     0032                     ___flmul@aexp:
   896                           
   897                           ; 1 bytes @ 0x12
   898     0032                     	ds	1
   899     0033                     ___flmul@bexp:
   900                           
   901                           ; 1 bytes @ 0x13
   902     0033                     	ds	1
   903     0034                     ___flmul@prod:
   904                           
   905                           ; 4 bytes @ 0x14
   906     0034                     	ds	4
   907     0038                     ___flmul@temp:
   908                           
   909                           ; 2 bytes @ 0x18
   910     0038                     	ds	2
   911     003A                     ?___fldiv:
   912     003A                     ___fldiv@a:	
   913                           ; 4 bytes @ 0x1A
   914                           
   915                           
   916                           ; 4 bytes @ 0x1A
   917     003A                     	ds	4
   918     003E                     ___fldiv@b:
   919                           
   920                           ; 4 bytes @ 0x1E
   921     003E                     	ds	4
   922     0042                     ??___fldiv:
   923                           
   924                           ; 1 bytes @ 0x22
   925     0042                     	ds	5
   926     0047                     ___fldiv@rem:
   927                           
   928                           ; 4 bytes @ 0x27
   929     0047                     	ds	4
   930     004B                     ___fldiv@sign:
   931                           
   932                           ; 1 bytes @ 0x2B
   933     004B                     	ds	1
   934     004C                     ___fldiv@new_exp:
   935                           
   936                           ; 2 bytes @ 0x2C
   937     004C                     	ds	2
   938     004E                     ___fldiv@grs:
   939                           
   940                           ; 4 bytes @ 0x2E
   941     004E                     	ds	4
   942     0052                     ___fldiv@bexp:
   943                           
   944                           ; 1 bytes @ 0x32
   945     0052                     	ds	1
   946     0053                     ___fldiv@aexp:
   947                           
   948                           ; 1 bytes @ 0x33
   949     0053                     	ds	1
   950     0054                     ?___fladd:
   951     0054                     ___fladd@b:	
   952                           ; 4 bytes @ 0x34
   953                           
   954                           
   955                           ; 4 bytes @ 0x34
   956     0054                     	ds	4
   957     0058                     ___fladd@a:
   958                           
   959                           ; 4 bytes @ 0x38
   960     0058                     	ds	4
   961     005C                     ??___fladd:
   962                           
   963                           ; 1 bytes @ 0x3C
   964     005C                     	ds	8
   965     0064                     ___fladd@signs:
   966                           
   967                           ; 1 bytes @ 0x44
   968     0064                     	ds	1
   969     0065                     ___fladd@aexp:
   970                           
   971                           ; 1 bytes @ 0x45
   972     0065                     	ds	1
   973     0066                     ___fladd@bexp:
   974                           
   975                           ; 1 bytes @ 0x46
   976     0066                     	ds	1
   977     0067                     ___fladd@grs:
   978                           
   979                           ; 1 bytes @ 0x47
   980     0067                     	ds	1
   981     0068                     ?___fltol:
   982     0068                     ___fltol@f1:	
   983                           ; 4 bytes @ 0x48
   984                           
   985                           
   986                           ; 4 bytes @ 0x48
   987     0068                     	ds	4
   988     006C                     ??___fltol:
   989                           
   990                           ; 1 bytes @ 0x4C
   991     006C                     	ds	4
   992                           
   993                           	psect	maintext
   994     0CA9                     __pmaintext:	
   995 ;;
   996 ;;Main: autosize = 0, tempsize = 2, incstack = 0, save=0
   997 ;;
   998 ;; *************** function _main *****************
   999 ;; Defined at:
  1000 ;;		line 15 in file "main.c"
  1001 ;; Parameters:    Size  Location     Type
  1002 ;;		None
  1003 ;; Auto vars:     Size  Location     Type
  1004 ;;		None
  1005 ;; Return value:  Size  Location     Type
  1006 ;;                  1    wreg      void 
  1007 ;; Registers used:
  1008 ;;		wreg, status,2, status,0, pclath, cstack
  1009 ;; Tracked objects:
  1010 ;;		On entry : B1F/0
  1011 ;;		On exit  : 0/0
  1012 ;;		Unchanged: 0/0
  1013 ;; Data sizes:     COMMON   BANK0   BANK1   BANK2
  1014 ;;      Params:         0       0       0       0
  1015 ;;      Locals:         0       0       0       0
  1016 ;;      Temps:          0       0       2       0
  1017 ;;      Totals:         0       0       2       0
  1018 ;;Total ram usage:        2 bytes
  1019 ;; Hardware stack levels required when called: 4
  1020 ;; This function calls:
  1021 ;;		_Clear
  1022 ;;		_GXHT30_single_call
  1023 ;;		_IIC_init
  1024 ;;		_TXREG_TRMT
  1025 ;;		_bit_Value
  1026 ;;		_main_init
  1027 ;; This function is called by:
  1028 ;;		Startup code after reset
  1029 ;; This function uses a non-reentrant model
  1030 ;;
  1031                           
  1032     0CA9                     _main:	
  1033                           ;psect for function _main
  1034                           
  1035     0CA9                     l2571:	
  1036                           ;incstack = 0
  1037                           ; Regs used in _main: [wreg+status,2+status,0+pclath+cstack]
  1038                           
  1039                           
  1040                           ;main.c: 17:  main_init();
  1041     0CA9  318C  2424  318C   	fcall	_main_init
  1042     0CAC                     l2573:
  1043                           
  1044                           ;main.c: 18:  IIC_init();
  1045     0CAC  318B  23C1  318C   	fcall	_IIC_init
  1046     0CAF                     l2575:
  1047                           
  1048                           ;main.c: 19:  TXSTAbits.TXEN = 1;
  1049     0CAF  0023               	movlb	3	; select bank3
  1050     0CB0  169E               	bsf	30,5	;volatile
  1051                           
  1052                           ;main.c: 20:  _delay((unsigned long)((10)*(8000000/4000.0)));
  1053     0CB1  301A               	movlw	26
  1054     0CB2  0021               	movlb	1	; select bank1
  1055     0CB3  00BA               	movwf	??_main^(0+128)
  1056     0CB4  30F8               	movlw	248
  1057     0CB5                     u3477:
  1058     0CB5  0B89               	decfsz	9,f
  1059     0CB6  2CB5               	goto	u3477
  1060     0CB7  0BBA               	decfsz	??_main^(0+128),f
  1061     0CB8  2CB5               	goto	u3477
  1062     0CB9  0000               	nop
  1063     0CBA                     l2577:
  1064                           
  1065                           ;main.c: 23:  {;main.c: 24:   Clear();
  1066     0CBA  318B  23FE  318C   	fcall	_Clear
  1067                           
  1068                           ;main.c: 25:   GXHT30_single_call();
  1069     0CBD  318C  240E  318C   	fcall	_GXHT30_single_call
  1070                           
  1071                           ;main.c: 26:   bit_Value();
  1072     0CC0  318E  2670  318C   	fcall	_bit_Value
  1073                           
  1074                           ;main.c: 27:   TXREG_TRMT();
  1075     0CC3  3180  2005  318C   	fcall	_TXREG_TRMT
  1076     0CC6                     l2579:
  1077                           
  1078                           ;main.c: 28:   _delay((unsigned long)((800)*(8000000/4000.0)));
  1079     0CC6  3009               	movlw	9
  1080     0CC7  0021               	movlb	1	; select bank1
  1081     0CC8  00BB               	movwf	(??_main^(0+128)+1)
  1082     0CC9  301E               	movlw	30
  1083     0CCA  00BA               	movwf	??_main^(0+128)
  1084     0CCB  30E4               	movlw	228
  1085     0CCC                     u3487:
  1086     0CCC  0B89               	decfsz	9,f
  1087     0CCD  2CCC               	goto	u3487
  1088     0CCE  0BBA               	decfsz	??_main^(0+128),f
  1089     0CCF  2CCC               	goto	u3487
  1090     0CD0  0BBB               	decfsz	(??_main^(0+128)+1),f
  1091     0CD1  2CCC               	goto	u3487
  1092     0CD2  0000               	nop
  1093     0CD3  2CBA               	goto	l2577
  1094     0CD4  3180  2803         	ljmp	start
  1095     0CD6                     __end_of_main:
  1096                           
  1097                           	psect	text1
  1098     0C24                     __ptext1:	
  1099 ;; *************** function _main_init *****************
  1100 ;; Defined at:
  1101 ;;		line 5 in file "MB1.c"
  1102 ;; Parameters:    Size  Location     Type
  1103 ;;		None
  1104 ;; Auto vars:     Size  Location     Type
  1105 ;;		None
  1106 ;; Return value:  Size  Location     Type
  1107 ;;                  1    wreg      void 
  1108 ;; Registers used:
  1109 ;;		wreg, status,2
  1110 ;; Tracked objects:
  1111 ;;		On entry : 0/0
  1112 ;;		On exit  : 0/0
  1113 ;;		Unchanged: 0/0
  1114 ;; Data sizes:     COMMON   BANK0   BANK1   BANK2
  1115 ;;      Params:         0       0       0       0
  1116 ;;      Locals:         0       0       0       0
  1117 ;;      Temps:          0       0       0       0
  1118 ;;      Totals:         0       0       0       0
  1119 ;;Total ram usage:        0 bytes
  1120 ;; Hardware stack levels used: 1
  1121 ;; This function calls:
  1122 ;;		Nothing
  1123 ;; This function is called by:
  1124 ;;		_main
  1125 ;; This function uses a non-reentrant model
  1126 ;;
  1127                           
  1128     0C24                     _main_init:	
  1129                           ;psect for function _main_init
  1130                           
  1131     0C24                     l1613:	
  1132                           ;incstack = 0
  1133                           ; Regs used in _main_init: [wreg+status,2]
  1134                           
  1135                           
  1136                           ;MB1.c: 7:  TRISAbits.TRISA0 = 0;
  1137     0C24  0021               	movlb	1	; select bank1
  1138     0C25  100C               	bcf	12,0	;volatile
  1139                           
  1140                           ;MB1.c: 8:  TRISAbits.TRISA1 = 1;
  1141     0C26  148C               	bsf	12,1	;volatile
  1142                           
  1143                           ;MB1.c: 11:  PORTAbits.RA0 = 0;
  1144     0C27  0020               	movlb	0	; select bank0
  1145     0C28  100C               	bcf	12,0	;volatile
  1146                           
  1147                           ;MB1.c: 12:  PORTAbits.RA1 = 0;
  1148     0C29  108C               	bcf	12,1	;volatile
  1149     0C2A                     l1615:
  1150                           
  1151                           ;MB1.c: 14:  OSCCON = 0b01110000;
  1152     0C2A  3070               	movlw	112
  1153     0C2B  0021               	movlb	1	; select bank1
  1154     0C2C  0099               	movwf	25	;volatile
  1155     0C2D                     l1617:
  1156                           
  1157                           ;MB1.c: 15:  ANSELA = 0;
  1158     0C2D  0023               	movlb	3	; select bank3
  1159     0C2E  018C               	clrf	12	;volatile
  1160     0C2F                     l1619:
  1161                           
  1162                           ;MB1.c: 16:  APFCONbits.RXDTSEL = 0;
  1163     0C2F  0022               	movlb	2	; select bank2
  1164     0C30  139D               	bcf	29,7	;volatile
  1165     0C31                     l1621:
  1166                           
  1167                           ;MB1.c: 17:  APFCONbits.TXCKSEL = 0;
  1168     0C31  111D               	bcf	29,2	;volatile
  1169     0C32                     l1623:
  1170                           
  1171                           ;MB1.c: 18:  TXSTAbits.BRGH = 1;
  1172     0C32  0023               	movlb	3	; select bank3
  1173     0C33  151E               	bsf	30,2	;volatile
  1174     0C34                     l1625:
  1175                           
  1176                           ;MB1.c: 19:  BAUDCONbits.BRG16 = 1;
  1177     0C34  159F               	bsf	31,3	;volatile
  1178     0C35                     l1627:
  1179                           
  1180                           ;MB1.c: 20:  SPBRG = 207;
  1181     0C35  30CF               	movlw	207
  1182     0C36  009B               	movwf	27	;volatile
  1183     0C37                     l1629:
  1184                           
  1185                           ;MB1.c: 21:  TXSTAbits.SYNC = 0;
  1186     0C37  121E               	bcf	30,4	;volatile
  1187     0C38                     l1631:
  1188                           
  1189                           ;MB1.c: 22:  RCSTAbits.SPEN = 1;
  1190     0C38  179D               	bsf	29,7	;volatile
  1191     0C39                     l131:
  1192     0C39  0008               	return
  1193     0C3A                     __end_of_main_init:
  1194                           
  1195                           	psect	text2
  1196     0E70                     __ptext2:	
  1197 ;; *************** function _bit_Value *****************
  1198 ;; Defined at:
  1199 ;;		line 106 in file "main.c"
  1200 ;; Parameters:    Size  Location     Type
  1201 ;;		None
  1202 ;; Auto vars:     Size  Location     Type
  1203 ;;		None
  1204 ;; Return value:  Size  Location     Type
  1205 ;;                  1    wreg      void 
  1206 ;; Registers used:
  1207 ;;		wreg, status,2, status,0, pclath, cstack
  1208 ;; Tracked objects:
  1209 ;;		On entry : 0/0
  1210 ;;		On exit  : 0/0
  1211 ;;		Unchanged: 0/0
  1212 ;; Data sizes:     COMMON   BANK0   BANK1   BANK2
  1213 ;;      Params:         0       0       0       0
  1214 ;;      Locals:         0       0       0       0
  1215 ;;      Temps:          1       0       0       0
  1216 ;;      Totals:         1       0       0       0
  1217 ;;Total ram usage:        1 bytes
  1218 ;; Hardware stack levels used: 1
  1219 ;; Hardware stack levels required when called: 2
  1220 ;; This function calls:
  1221 ;;		_ASCII_TH
  1222 ;; This function is called by:
  1223 ;;		_main
  1224 ;; This function uses a non-reentrant model
  1225 ;;
  1226                           
  1227     0E70                     _bit_Value:	
  1228                           ;psect for function _bit_Value
  1229                           
  1230     0E70                     l2523:	
  1231                           ;incstack = 0
  1232                           ; Regs used in _bit_Value: [wreg+status,2+status,0+pclath+cstack]
  1233                           
  1234                           
  1235                           ;main.c: 108:  if(Humidity == 1000) Humidity = 999;
  1236     0E70  30E8               	movlw	232
  1237     0E71  0021               	movlb	1	; select bank1
  1238     0E72  0640               	xorwf	_Humidity^(0+128),w
  1239     0E73  3003               	movlw	3
  1240     0E74  1903               	skipnz
  1241     0E75  0641               	xorwf	(_Humidity+1)^(0+128),w
  1242     0E76  1D03               	btfss	3,2
  1243     0E77  2E79               	goto	u3311
  1244     0E78  2E7A               	goto	u3310
  1245     0E79                     u3311:
  1246     0E79  2E7E               	goto	l2527
  1247     0E7A                     u3310:
  1248     0E7A                     l2525:
  1249     0E7A  30E7               	movlw	231
  1250     0E7B  00C0               	movwf	_Humidity^(0+128)
  1251     0E7C  3003               	movlw	3
  1252     0E7D  00C1               	movwf	(_Humidity^(0+128)+1)
  1253     0E7E                     l2527:
  1254                           
  1255                           ;main.c: 110:  one = ASCII_TH(Temperature, 1);
  1256     0E7E  0843               	movf	(_Temperature+1)^(0+128),w
  1257     0E7F  0020               	movlb	0	; select bank0
  1258     0E80  00A5               	movwf	ASCII_TH@Value+1
  1259     0E81  0021               	movlb	1	; select bank1
  1260     0E82  0842               	movf	_Temperature^(0+128),w
  1261     0E83  0020               	movlb	0	; select bank0
  1262     0E84  00A4               	movwf	ASCII_TH@Value
  1263     0E85  01A6               	clrf	ASCII_TH@bit
  1264     0E86  0AA6               	incf	ASCII_TH@bit,f
  1265     0E87  318D  250D  318E   	fcall	_ASCII_TH
  1266     0E8A  0021               	movlb	1	; select bank1
  1267     0E8B  00C8               	movwf	_one^(0+128)
  1268     0E8C                     l2529:
  1269                           
  1270                           ;main.c: 111:  ten = ASCII_TH(Temperature, 2);
  1271     0E8C  0843               	movf	(_Temperature+1)^(0+128),w
  1272     0E8D  0020               	movlb	0	; select bank0
  1273     0E8E  00A5               	movwf	ASCII_TH@Value+1
  1274     0E8F  0021               	movlb	1	; select bank1
  1275     0E90  0842               	movf	_Temperature^(0+128),w
  1276     0E91  0020               	movlb	0	; select bank0
  1277     0E92  00A4               	movwf	ASCII_TH@Value
  1278     0E93  3002               	movlw	2
  1279     0E94  00A6               	movwf	ASCII_TH@bit
  1280     0E95  318D  250D  318E   	fcall	_ASCII_TH
  1281     0E98  0021               	movlb	1	; select bank1
  1282     0E99  00C9               	movwf	_ten^(0+128)
  1283     0E9A                     l2531:
  1284                           
  1285                           ;main.c: 112:  hundred = ASCII_TH(Temperature, 3);
  1286     0E9A  0843               	movf	(_Temperature+1)^(0+128),w
  1287     0E9B  0020               	movlb	0	; select bank0
  1288     0E9C  00A5               	movwf	ASCII_TH@Value+1
  1289     0E9D  0021               	movlb	1	; select bank1
  1290     0E9E  0842               	movf	_Temperature^(0+128),w
  1291     0E9F  0020               	movlb	0	; select bank0
  1292     0EA0  00A4               	movwf	ASCII_TH@Value
  1293     0EA1  3003               	movlw	3
  1294     0EA2  00A6               	movwf	ASCII_TH@bit
  1295     0EA3  318D  250D  318E   	fcall	_ASCII_TH
  1296     0EA6  0021               	movlb	1	; select bank1
  1297     0EA7  00C7               	movwf	_hundred^(0+128)
  1298     0EA8                     l2533:
  1299                           
  1300                           ;main.c: 114:  one1 = ASCII_TH(Humidity, 1);
  1301     0EA8  0841               	movf	(_Humidity+1)^(0+128),w
  1302     0EA9  0020               	movlb	0	; select bank0
  1303     0EAA  00A5               	movwf	ASCII_TH@Value+1
  1304     0EAB  0021               	movlb	1	; select bank1
  1305     0EAC  0840               	movf	_Humidity^(0+128),w
  1306     0EAD  0020               	movlb	0	; select bank0
  1307     0EAE  00A4               	movwf	ASCII_TH@Value
  1308     0EAF  01A6               	clrf	ASCII_TH@bit
  1309     0EB0  0AA6               	incf	ASCII_TH@bit,f
  1310     0EB1  318D  250D  318E   	fcall	_ASCII_TH
  1311     0EB4  0021               	movlb	1	; select bank1
  1312     0EB5  00C5               	movwf	_one1^(0+128)
  1313     0EB6                     l2535:
  1314                           
  1315                           ;main.c: 115:  ten1 = ASCII_TH(Humidity, 2);
  1316     0EB6  0841               	movf	(_Humidity+1)^(0+128),w
  1317     0EB7  0020               	movlb	0	; select bank0
  1318     0EB8  00A5               	movwf	ASCII_TH@Value+1
  1319     0EB9  0021               	movlb	1	; select bank1
  1320     0EBA  0840               	movf	_Humidity^(0+128),w
  1321     0EBB  0020               	movlb	0	; select bank0
  1322     0EBC  00A4               	movwf	ASCII_TH@Value
  1323     0EBD  3002               	movlw	2
  1324     0EBE  00A6               	movwf	ASCII_TH@bit
  1325     0EBF  318D  250D  318E   	fcall	_ASCII_TH
  1326     0EC2  0021               	movlb	1	; select bank1
  1327     0EC3  00C6               	movwf	_ten1^(0+128)
  1328     0EC4                     l2537:
  1329                           
  1330                           ;main.c: 116:  hundred1 = ASCII_TH(Humidity, 3);
  1331     0EC4  0841               	movf	(_Humidity+1)^(0+128),w
  1332     0EC5  0020               	movlb	0	; select bank0
  1333     0EC6  00A5               	movwf	ASCII_TH@Value+1
  1334     0EC7  0021               	movlb	1	; select bank1
  1335     0EC8  0840               	movf	_Humidity^(0+128),w
  1336     0EC9  0020               	movlb	0	; select bank0
  1337     0ECA  00A4               	movwf	ASCII_TH@Value
  1338     0ECB  3003               	movlw	3
  1339     0ECC  00A6               	movwf	ASCII_TH@bit
  1340     0ECD  318D  250D  318E   	fcall	_ASCII_TH
  1341     0ED0  0021               	movlb	1	; select bank1
  1342     0ED1  00C4               	movwf	_hundred1^(0+128)
  1343                           
  1344                           ;main.c: 117:  _delay((unsigned long)((5)*(8000000/4000.0)));
  1345     0ED2  300D               	movlw	13
  1346     0ED3  00FC               	movwf	??_bit_Value
  1347     0ED4  30FC               	movlw	252
  1348     0ED5                     u3497:
  1349     0ED5  0B89               	decfsz	9,f
  1350     0ED6  2ED5               	goto	u3497
  1351     0ED7  0BFC               	decfsz	??_bit_Value,f
  1352     0ED8  2ED5               	goto	u3497
  1353     0ED9                     l110:
  1354     0ED9  0008               	return
  1355     0EDA                     __end_of_bit_Value:
  1356                           
  1357                           	psect	text3
  1358     0D0D                     __ptext3:	
  1359 ;; *************** function _ASCII_TH *****************
  1360 ;; Defined at:
  1361 ;;		line 34 in file "main.c"
  1362 ;; Parameters:    Size  Location     Type
  1363 ;;  Value           2    4[BANK0 ] int 
  1364 ;;  bit             1    6[BANK0 ] unsigned char 
  1365 ;; Auto vars:     Size  Location     Type
  1366 ;;		None
  1367 ;; Return value:  Size  Location     Type
  1368 ;;                  1    wreg      unsigned char 
  1369 ;; Registers used:
  1370 ;;		wreg, status,2, status,0, pclath, cstack
  1371 ;; Tracked objects:
  1372 ;;		On entry : 0/0
  1373 ;;		On exit  : 0/0
  1374 ;;		Unchanged: 0/0
  1375 ;; Data sizes:     COMMON   BANK0   BANK1   BANK2
  1376 ;;      Params:         0       3       0       0
  1377 ;;      Locals:         0       0       0       0
  1378 ;;      Temps:          0       0       0       0
  1379 ;;      Totals:         0       3       0       0
  1380 ;;Total ram usage:        3 bytes
  1381 ;; Hardware stack levels used: 1
  1382 ;; Hardware stack levels required when called: 1
  1383 ;; This function calls:
  1384 ;;		___awdiv
  1385 ;;		___awmod
  1386 ;; This function is called by:
  1387 ;;		_bit_Value
  1388 ;; This function uses a non-reentrant model
  1389 ;;
  1390                           
  1391     0D0D                     _ASCII_TH:	
  1392                           ;psect for function _ASCII_TH
  1393                           
  1394     0D0D                     l2435:	
  1395                           ;incstack = 0
  1396                           ; Regs used in _ASCII_TH: [wreg+status,2+status,0+pclath+cstack]
  1397                           
  1398                           
  1399                           ;main.c: 34: char ASCII_TH(int Value, char bit);main.c: 35: {;main.c: 36:  if(bit == 1)
  1400     0D0D  0020               	movlb	0	; select bank0
  1401     0D0E  0326               	decf	ASCII_TH@bit,w
  1402     0D0F  1D03               	btfss	3,2
  1403     0D10  2D12               	goto	u3271
  1404     0D11  2D13               	goto	u3270
  1405     0D12                     u3271:
  1406     0D12  2D21               	goto	l2443
  1407     0D13                     u3270:
  1408     0D13                     l2437:
  1409                           
  1410                           ;main.c: 37:  {;main.c: 38:   return (char)(Value % 10) + '0';
  1411     0D13  300A               	movlw	10
  1412     0D14  00F0               	movwf	___awmod@divisor
  1413     0D15  3000               	movlw	0
  1414     0D16  00F1               	movwf	___awmod@divisor+1
  1415     0D17  0825               	movf	ASCII_TH@Value+1,w
  1416     0D18  00F3               	movwf	___awmod@dividend+1
  1417     0D19  0824               	movf	ASCII_TH@Value,w
  1418     0D1A  00F2               	movwf	___awmod@dividend
  1419     0D1B  318D  2556  318D   	fcall	___awmod
  1420     0D1E  0870               	movf	?___awmod,w
  1421     0D1F  3E30               	addlw	48
  1422     0D20  2D55               	goto	l50
  1423     0D21                     l2443:
  1424     0D21  3002               	movlw	2
  1425     0D22  0626               	xorwf	ASCII_TH@bit,w
  1426     0D23  1D03               	btfss	3,2
  1427     0D24  2D26               	goto	u3281
  1428     0D25  2D27               	goto	u3280
  1429     0D26                     u3281:
  1430     0D26  2D40               	goto	l2451
  1431     0D27                     u3280:
  1432     0D27                     l2445:
  1433                           
  1434                           ;main.c: 41:  {;main.c: 42:   return (char)(Value % 100 / 10) + '0';
  1435     0D27  300A               	movlw	10
  1436     0D28  00F7               	movwf	___awdiv@divisor
  1437     0D29  3000               	movlw	0
  1438     0D2A  00F8               	movwf	___awdiv@divisor+1
  1439     0D2B  0825               	movf	ASCII_TH@Value+1,w
  1440     0D2C  00F3               	movwf	___awmod@dividend+1
  1441     0D2D  0824               	movf	ASCII_TH@Value,w
  1442     0D2E  00F2               	movwf	___awmod@dividend
  1443     0D2F  3064               	movlw	100
  1444     0D30  00F0               	movwf	___awmod@divisor
  1445     0D31  3000               	movlw	0
  1446     0D32  00F1               	movwf	___awmod@divisor+1
  1447     0D33  318D  2556  318D   	fcall	___awmod
  1448     0D36  0871               	movf	?___awmod+1,w
  1449     0D37  00FA               	movwf	___awdiv@dividend+1
  1450     0D38  0870               	movf	?___awmod,w
  1451     0D39  00F9               	movwf	___awdiv@dividend
  1452     0D3A  318D  25A9  318D   	fcall	___awdiv
  1453     0D3D  0877               	movf	?___awdiv,w
  1454     0D3E  3E30               	addlw	48
  1455     0D3F  2D55               	goto	l50
  1456     0D40                     l2451:
  1457     0D40  3003               	movlw	3
  1458     0D41  0626               	xorwf	ASCII_TH@bit,w
  1459     0D42  1D03               	btfss	3,2
  1460     0D43  2D45               	goto	u3291
  1461     0D44  2D46               	goto	u3290
  1462     0D45                     u3291:
  1463     0D45  2D54               	goto	l2459
  1464     0D46                     u3290:
  1465     0D46                     l2453:
  1466                           
  1467                           ;main.c: 45:  {;main.c: 46:   return (char)(Value / 100) + '0';
  1468     0D46  3064               	movlw	100
  1469     0D47  00F7               	movwf	___awdiv@divisor
  1470     0D48  3000               	movlw	0
  1471     0D49  00F8               	movwf	___awdiv@divisor+1
  1472     0D4A  0825               	movf	ASCII_TH@Value+1,w
  1473     0D4B  00FA               	movwf	___awdiv@dividend+1
  1474     0D4C  0824               	movf	ASCII_TH@Value,w
  1475     0D4D  00F9               	movwf	___awdiv@dividend
  1476     0D4E  318D  25A9  318D   	fcall	___awdiv
  1477     0D51  0877               	movf	?___awdiv,w
  1478     0D52  3E30               	addlw	48
  1479     0D53  2D55               	goto	l50
  1480     0D54                     l2459:
  1481                           
  1482                           ;main.c: 49:  {;main.c: 50:   return '?';
  1483     0D54  303F               	movlw	63
  1484     0D55                     l50:
  1485     0D55  0008               	return
  1486     0D56                     __end_of_ASCII_TH:
  1487                           
  1488                           	psect	text4
  1489     0D56                     __ptext4:	
  1490 ;; *************** function ___awmod *****************
  1491 ;; Defined at:
  1492 ;;		line 5 in file "C:\XC8\pic\sources\c99\common\awmod.c"
  1493 ;; Parameters:    Size  Location     Type
  1494 ;;  divisor         2    0[COMMON] int 
  1495 ;;  dividend        2    2[COMMON] int 
  1496 ;; Auto vars:     Size  Location     Type
  1497 ;;  sign            1    6[COMMON] unsigned char 
  1498 ;;  counter         1    5[COMMON] unsigned char 
  1499 ;; Return value:  Size  Location     Type
  1500 ;;                  2    0[COMMON] int 
  1501 ;; Registers used:
  1502 ;;		wreg, status,2, status,0
  1503 ;; Tracked objects:
  1504 ;;		On entry : 0/0
  1505 ;;		On exit  : 0/0
  1506 ;;		Unchanged: 0/0
  1507 ;; Data sizes:     COMMON   BANK0   BANK1   BANK2
  1508 ;;      Params:         4       0       0       0
  1509 ;;      Locals:         2       0       0       0
  1510 ;;      Temps:          1       0       0       0
  1511 ;;      Totals:         7       0       0       0
  1512 ;;Total ram usage:        7 bytes
  1513 ;; Hardware stack levels used: 1
  1514 ;; This function calls:
  1515 ;;		Nothing
  1516 ;; This function is called by:
  1517 ;;		_ASCII_TH
  1518 ;; This function uses a non-reentrant model
  1519 ;;
  1520                           
  1521     0D56                     ___awmod:	
  1522                           ;psect for function ___awmod
  1523                           
  1524     0D56                     l1843:	
  1525                           ;incstack = 0
  1526                           ; Regs used in ___awmod: [wreg+status,2+status,0]
  1527                           
  1528     0D56  01F6               	clrf	___awmod@sign
  1529     0D57                     l1845:
  1530     0D57  1FF3               	btfss	___awmod@dividend+1,7
  1531     0D58  2D5A               	goto	u1961
  1532     0D59  2D5B               	goto	u1960
  1533     0D5A                     u1961:
  1534     0D5A  2D62               	goto	l1851
  1535     0D5B                     u1960:
  1536     0D5B                     l1847:
  1537     0D5B  09F2               	comf	___awmod@dividend,f
  1538     0D5C  09F3               	comf	___awmod@dividend+1,f
  1539     0D5D  0AF2               	incf	___awmod@dividend,f
  1540     0D5E  1903               	skipnz
  1541     0D5F  0AF3               	incf	___awmod@dividend+1,f
  1542     0D60                     l1849:
  1543     0D60  01F6               	clrf	___awmod@sign
  1544     0D61  0AF6               	incf	___awmod@sign,f
  1545     0D62                     l1851:
  1546     0D62  1FF1               	btfss	___awmod@divisor+1,7
  1547     0D63  2D65               	goto	u1971
  1548     0D64  2D66               	goto	u1970
  1549     0D65                     u1971:
  1550     0D65  2D6B               	goto	l1855
  1551     0D66                     u1970:
  1552     0D66                     l1853:
  1553     0D66  09F0               	comf	___awmod@divisor,f
  1554     0D67  09F1               	comf	___awmod@divisor+1,f
  1555     0D68  0AF0               	incf	___awmod@divisor,f
  1556     0D69  1903               	skipnz
  1557     0D6A  0AF1               	incf	___awmod@divisor+1,f
  1558     0D6B                     l1855:
  1559     0D6B  0870               	movf	___awmod@divisor,w
  1560     0D6C  0471               	iorwf	___awmod@divisor+1,w
  1561     0D6D  1903               	btfsc	3,2
  1562     0D6E  2D70               	goto	u1981
  1563     0D6F  2D71               	goto	u1980
  1564     0D70                     u1981:
  1565     0D70  2D9A               	goto	l1873
  1566     0D71                     u1980:
  1567     0D71                     l1857:
  1568     0D71  01F5               	clrf	___awmod@counter
  1569     0D72  0AF5               	incf	___awmod@counter,f
  1570     0D73  2D7D               	goto	l1863
  1571     0D74                     l1859:
  1572     0D74  3001               	movlw	1
  1573     0D75                     u1995:
  1574     0D75  35F0               	lslf	___awmod@divisor,f
  1575     0D76  0DF1               	rlf	___awmod@divisor+1,f
  1576     0D77  0B89               	decfsz	9,f
  1577     0D78  2D75               	goto	u1995
  1578     0D79                     l1861:
  1579     0D79  3001               	movlw	1
  1580     0D7A  00F4               	movwf	??___awmod
  1581     0D7B  0874               	movf	??___awmod,w
  1582     0D7C  07F5               	addwf	___awmod@counter,f
  1583     0D7D                     l1863:
  1584     0D7D  1FF1               	btfss	___awmod@divisor+1,7
  1585     0D7E  2D80               	goto	u2001
  1586     0D7F  2D81               	goto	u2000
  1587     0D80                     u2001:
  1588     0D80  2D74               	goto	l1859
  1589     0D81                     u2000:
  1590     0D81                     l1865:
  1591     0D81  0871               	movf	___awmod@divisor+1,w
  1592     0D82  0273               	subwf	___awmod@dividend+1,w
  1593     0D83  1D03               	skipz
  1594     0D84  2D87               	goto	u2015
  1595     0D85  0870               	movf	___awmod@divisor,w
  1596     0D86  0272               	subwf	___awmod@dividend,w
  1597     0D87                     u2015:
  1598     0D87  1C03               	skipc
  1599     0D88  2D8A               	goto	u2011
  1600     0D89  2D8B               	goto	u2010
  1601     0D8A                     u2011:
  1602     0D8A  2D8F               	goto	l1869
  1603     0D8B                     u2010:
  1604     0D8B                     l1867:
  1605     0D8B  0870               	movf	___awmod@divisor,w
  1606     0D8C  02F2               	subwf	___awmod@dividend,f
  1607     0D8D  0871               	movf	___awmod@divisor+1,w
  1608     0D8E  3BF3               	subwfb	___awmod@dividend+1,f
  1609     0D8F                     l1869:
  1610     0D8F  3001               	movlw	1
  1611     0D90                     u2025:
  1612     0D90  36F1               	lsrf	___awmod@divisor+1,f
  1613     0D91  0CF0               	rrf	___awmod@divisor,f
  1614     0D92  0B89               	decfsz	9,f
  1615     0D93  2D90               	goto	u2025
  1616     0D94                     l1871:
  1617     0D94  3001               	movlw	1
  1618     0D95  02F5               	subwf	___awmod@counter,f
  1619     0D96  1D03               	btfss	3,2
  1620     0D97  2D99               	goto	u2031
  1621     0D98  2D9A               	goto	u2030
  1622     0D99                     u2031:
  1623     0D99  2D81               	goto	l1865
  1624     0D9A                     u2030:
  1625     0D9A                     l1873:
  1626     0D9A  0876               	movf	___awmod@sign,w
  1627     0D9B  1903               	btfsc	3,2
  1628     0D9C  2D9E               	goto	u2041
  1629     0D9D  2D9F               	goto	u2040
  1630     0D9E                     u2041:
  1631     0D9E  2DA4               	goto	l1877
  1632     0D9F                     u2040:
  1633     0D9F                     l1875:
  1634     0D9F  09F2               	comf	___awmod@dividend,f
  1635     0DA0  09F3               	comf	___awmod@dividend+1,f
  1636     0DA1  0AF2               	incf	___awmod@dividend,f
  1637     0DA2  1903               	skipnz
  1638     0DA3  0AF3               	incf	___awmod@dividend+1,f
  1639     0DA4                     l1877:
  1640     0DA4  0873               	movf	___awmod@dividend+1,w
  1641     0DA5  00F1               	movwf	?___awmod+1
  1642     0DA6  0872               	movf	___awmod@dividend,w
  1643     0DA7  00F0               	movwf	?___awmod
  1644     0DA8                     l507:
  1645     0DA8  0008               	return
  1646     0DA9                     __end_of___awmod:
  1647                           
  1648                           	psect	text5
  1649     0DA9                     __ptext5:	
  1650 ;; *************** function ___awdiv *****************
  1651 ;; Defined at:
  1652 ;;		line 5 in file "C:\XC8\pic\sources\c99\common\awdiv.c"
  1653 ;; Parameters:    Size  Location     Type
  1654 ;;  divisor         2    7[COMMON] int 
  1655 ;;  dividend        2    9[COMMON] int 
  1656 ;; Auto vars:     Size  Location     Type
  1657 ;;  quotient        2    2[BANK0 ] int 
  1658 ;;  sign            1    1[BANK0 ] unsigned char 
  1659 ;;  counter         1    0[BANK0 ] unsigned char 
  1660 ;; Return value:  Size  Location     Type
  1661 ;;                  2    7[COMMON] int 
  1662 ;; Registers used:
  1663 ;;		wreg, status,2, status,0
  1664 ;; Tracked objects:
  1665 ;;		On entry : 0/0
  1666 ;;		On exit  : 0/0
  1667 ;;		Unchanged: 0/0
  1668 ;; Data sizes:     COMMON   BANK0   BANK1   BANK2
  1669 ;;      Params:         4       0       0       0
  1670 ;;      Locals:         0       4       0       0
  1671 ;;      Temps:          1       0       0       0
  1672 ;;      Totals:         5       4       0       0
  1673 ;;Total ram usage:        9 bytes
  1674 ;; Hardware stack levels used: 1
  1675 ;; This function calls:
  1676 ;;		Nothing
  1677 ;; This function is called by:
  1678 ;;		_ASCII_TH
  1679 ;; This function uses a non-reentrant model
  1680 ;;
  1681                           
  1682     0DA9                     ___awdiv:	
  1683                           ;psect for function ___awdiv
  1684                           
  1685     0DA9                     l1799:	
  1686                           ;incstack = 0
  1687                           ; Regs used in ___awdiv: [wreg+status,2+status,0]
  1688                           
  1689     0DA9  0020               	movlb	0	; select bank0
  1690     0DAA  01A1               	clrf	___awdiv@sign
  1691     0DAB                     l1801:
  1692     0DAB  1FF8               	btfss	___awdiv@divisor+1,7
  1693     0DAC  2DAE               	goto	u1861
  1694     0DAD  2DAF               	goto	u1860
  1695     0DAE                     u1861:
  1696     0DAE  2DB6               	goto	l1807
  1697     0DAF                     u1860:
  1698     0DAF                     l1803:
  1699     0DAF  09F7               	comf	___awdiv@divisor,f
  1700     0DB0  09F8               	comf	___awdiv@divisor+1,f
  1701     0DB1  0AF7               	incf	___awdiv@divisor,f
  1702     0DB2  1903               	skipnz
  1703     0DB3  0AF8               	incf	___awdiv@divisor+1,f
  1704     0DB4                     l1805:
  1705     0DB4  01A1               	clrf	___awdiv@sign
  1706     0DB5  0AA1               	incf	___awdiv@sign,f
  1707     0DB6                     l1807:
  1708     0DB6  1FFA               	btfss	___awdiv@dividend+1,7
  1709     0DB7  2DB9               	goto	u1871
  1710     0DB8  2DBA               	goto	u1870
  1711     0DB9                     u1871:
  1712     0DB9  2DC3               	goto	l1813
  1713     0DBA                     u1870:
  1714     0DBA                     l1809:
  1715     0DBA  09F9               	comf	___awdiv@dividend,f
  1716     0DBB  09FA               	comf	___awdiv@dividend+1,f
  1717     0DBC  0AF9               	incf	___awdiv@dividend,f
  1718     0DBD  1903               	skipnz
  1719     0DBE  0AFA               	incf	___awdiv@dividend+1,f
  1720     0DBF                     l1811:
  1721     0DBF  3001               	movlw	1
  1722     0DC0  00FB               	movwf	??___awdiv
  1723     0DC1  087B               	movf	??___awdiv,w
  1724     0DC2  06A1               	xorwf	___awdiv@sign,f
  1725     0DC3                     l1813:
  1726     0DC3  01A2               	clrf	___awdiv@quotient
  1727     0DC4  01A3               	clrf	___awdiv@quotient+1
  1728     0DC5                     l1815:
  1729     0DC5  0877               	movf	___awdiv@divisor,w
  1730     0DC6  0478               	iorwf	___awdiv@divisor+1,w
  1731     0DC7  1903               	btfsc	3,2
  1732     0DC8  2DCA               	goto	u1881
  1733     0DC9  2DCB               	goto	u1880
  1734     0DCA                     u1881:
  1735     0DCA  2DFA               	goto	l1835
  1736     0DCB                     u1880:
  1737     0DCB                     l1817:
  1738     0DCB  01A0               	clrf	___awdiv@counter
  1739     0DCC  0AA0               	incf	___awdiv@counter,f
  1740     0DCD  2DD7               	goto	l1823
  1741     0DCE                     l1819:
  1742     0DCE  3001               	movlw	1
  1743     0DCF                     u1895:
  1744     0DCF  35F7               	lslf	___awdiv@divisor,f
  1745     0DD0  0DF8               	rlf	___awdiv@divisor+1,f
  1746     0DD1  0B89               	decfsz	9,f
  1747     0DD2  2DCF               	goto	u1895
  1748     0DD3                     l1821:
  1749     0DD3  3001               	movlw	1
  1750     0DD4  00FB               	movwf	??___awdiv
  1751     0DD5  087B               	movf	??___awdiv,w
  1752     0DD6  07A0               	addwf	___awdiv@counter,f
  1753     0DD7                     l1823:
  1754     0DD7  1FF8               	btfss	___awdiv@divisor+1,7
  1755     0DD8  2DDA               	goto	u1901
  1756     0DD9  2DDB               	goto	u1900
  1757     0DDA                     u1901:
  1758     0DDA  2DCE               	goto	l1819
  1759     0DDB                     u1900:
  1760     0DDB                     l1825:
  1761     0DDB  3001               	movlw	1
  1762     0DDC                     u1915:
  1763     0DDC  35A2               	lslf	___awdiv@quotient,f
  1764     0DDD  0DA3               	rlf	___awdiv@quotient+1,f
  1765     0DDE  0B89               	decfsz	9,f
  1766     0DDF  2DDC               	goto	u1915
  1767     0DE0  0878               	movf	___awdiv@divisor+1,w
  1768     0DE1  027A               	subwf	___awdiv@dividend+1,w
  1769     0DE2  1D03               	skipz
  1770     0DE3  2DE6               	goto	u1925
  1771     0DE4  0877               	movf	___awdiv@divisor,w
  1772     0DE5  0279               	subwf	___awdiv@dividend,w
  1773     0DE6                     u1925:
  1774     0DE6  1C03               	skipc
  1775     0DE7  2DE9               	goto	u1921
  1776     0DE8  2DEA               	goto	u1920
  1777     0DE9                     u1921:
  1778     0DE9  2DEF               	goto	l1831
  1779     0DEA                     u1920:
  1780     0DEA                     l1827:
  1781     0DEA  0877               	movf	___awdiv@divisor,w
  1782     0DEB  02F9               	subwf	___awdiv@dividend,f
  1783     0DEC  0878               	movf	___awdiv@divisor+1,w
  1784     0DED  3BFA               	subwfb	___awdiv@dividend+1,f
  1785     0DEE                     l1829:
  1786     0DEE  1422               	bsf	___awdiv@quotient,0
  1787     0DEF                     l1831:
  1788     0DEF  3001               	movlw	1
  1789     0DF0                     u1935:
  1790     0DF0  36F8               	lsrf	___awdiv@divisor+1,f
  1791     0DF1  0CF7               	rrf	___awdiv@divisor,f
  1792     0DF2  0B89               	decfsz	9,f
  1793     0DF3  2DF0               	goto	u1935
  1794     0DF4                     l1833:
  1795     0DF4  3001               	movlw	1
  1796     0DF5  02A0               	subwf	___awdiv@counter,f
  1797     0DF6  1D03               	btfss	3,2
  1798     0DF7  2DF9               	goto	u1941
  1799     0DF8  2DFA               	goto	u1940
  1800     0DF9                     u1941:
  1801     0DF9  2DDB               	goto	l1825
  1802     0DFA                     u1940:
  1803     0DFA                     l1835:
  1804     0DFA  0821               	movf	___awdiv@sign,w
  1805     0DFB  1903               	btfsc	3,2
  1806     0DFC  2DFE               	goto	u1951
  1807     0DFD  2DFF               	goto	u1950
  1808     0DFE                     u1951:
  1809     0DFE  2E04               	goto	l1839
  1810     0DFF                     u1950:
  1811     0DFF                     l1837:
  1812     0DFF  09A2               	comf	___awdiv@quotient,f
  1813     0E00  09A3               	comf	___awdiv@quotient+1,f
  1814     0E01  0AA2               	incf	___awdiv@quotient,f
  1815     0E02  1903               	skipnz
  1816     0E03  0AA3               	incf	___awdiv@quotient+1,f
  1817     0E04                     l1839:
  1818     0E04  0823               	movf	___awdiv@quotient+1,w
  1819     0E05  00F8               	movwf	?___awdiv+1
  1820     0E06  0822               	movf	___awdiv@quotient,w
  1821     0E07  00F7               	movwf	?___awdiv
  1822     0E08                     l494:
  1823     0E08  0008               	return
  1824     0E09                     __end_of___awdiv:
  1825                           
  1826                           	psect	text6
  1827     0005                     __ptext6:	
  1828 ;; *************** function _TXREG_TRMT *****************
  1829 ;; Defined at:
  1830 ;;		line 54 in file "main.c"
  1831 ;; Parameters:    Size  Location     Type
  1832 ;;		None
  1833 ;; Auto vars:     Size  Location     Type
  1834 ;;		None
  1835 ;; Return value:  Size  Location     Type
  1836 ;;                  1    wreg      void 
  1837 ;; Registers used:
  1838 ;;		wreg
  1839 ;; Tracked objects:
  1840 ;;		On entry : 0/0
  1841 ;;		On exit  : 0/0
  1842 ;;		Unchanged: 0/0
  1843 ;; Data sizes:     COMMON   BANK0   BANK1   BANK2
  1844 ;;      Params:         0       0       0       0
  1845 ;;      Locals:         0       0       0       0
  1846 ;;      Temps:          1       0       0       0
  1847 ;;      Totals:         1       0       0       0
  1848 ;;Total ram usage:        1 bytes
  1849 ;; Hardware stack levels used: 1
  1850 ;; This function calls:
  1851 ;;		Nothing
  1852 ;; This function is called by:
  1853 ;;		_main
  1854 ;; This function uses a non-reentrant model
  1855 ;;
  1856                           
  1857     0005                     _TXREG_TRMT:	
  1858                           ;psect for function _TXREG_TRMT
  1859                           
  1860     0005                     l2539:	
  1861                           ;incstack = 0
  1862                           ; Regs used in _TXREG_TRMT: [wreg]
  1863                           
  1864                           
  1865                           ;main.c: 56:   TXREG = hundred;
  1866     0005  0021               	movlb	1	; select bank1
  1867     0006  0847               	movf	_hundred^(0+128),w
  1868     0007  0023               	movlb	3	; select bank3
  1869     0008  009A               	movwf	26	;volatile
  1870     0009                     l58:	
  1871                           ;main.c: 57:   while(!TXSTAbits.TRMT);
  1872                           
  1873     0009  1C9E               	btfss	30,1	;volatile
  1874     000A  280C               	goto	u3321
  1875     000B  280D               	goto	u3320
  1876     000C                     u3321:
  1877     000C  2809               	goto	l58
  1878     000D                     u3320:
  1879     000D                     l2541:
  1880                           
  1881                           ;main.c: 58:   TXREG = ten;
  1882     000D  0021               	movlb	1	; select bank1
  1883     000E  0849               	movf	_ten^(0+128),w
  1884     000F  0023               	movlb	3	; select bank3
  1885     0010  009A               	movwf	26	;volatile
  1886     0011                     l61:	
  1887                           ;main.c: 59:   while(!TXSTAbits.TRMT);
  1888                           
  1889     0011  1C9E               	btfss	30,1	;volatile
  1890     0012  2814               	goto	u3331
  1891     0013  2815               	goto	u3330
  1892     0014                     u3331:
  1893     0014  2811               	goto	l61
  1894     0015                     u3330:
  1895     0015                     l2543:
  1896                           
  1897                           ;main.c: 60:   TXREG = 46;
  1898     0015  302E               	movlw	46
  1899     0016  009A               	movwf	26	;volatile
  1900     0017                     l64:	
  1901                           ;main.c: 61:   while(!TXSTAbits.TRMT);
  1902                           
  1903     0017  1C9E               	btfss	30,1	;volatile
  1904     0018  281A               	goto	u3341
  1905     0019  281B               	goto	u3340
  1906     001A                     u3341:
  1907     001A  2817               	goto	l64
  1908     001B                     u3340:
  1909     001B                     l2545:
  1910                           
  1911                           ;main.c: 62:   TXREG = one;
  1912     001B  0021               	movlb	1	; select bank1
  1913     001C  0848               	movf	_one^(0+128),w
  1914     001D  0023               	movlb	3	; select bank3
  1915     001E  009A               	movwf	26	;volatile
  1916     001F                     l67:	
  1917                           ;main.c: 63:   while(!TXSTAbits.TRMT);
  1918                           
  1919     001F  1C9E               	btfss	30,1	;volatile
  1920     0020  2822               	goto	u3351
  1921     0021  2823               	goto	u3350
  1922     0022                     u3351:
  1923     0022  281F               	goto	l67
  1924     0023                     u3350:
  1925     0023                     l2547:
  1926                           
  1927                           ;main.c: 64:   TXREG = 161;
  1928     0023  30A1               	movlw	161
  1929     0024  009A               	movwf	26	;volatile
  1930     0025                     l70:	
  1931                           ;main.c: 65:   while(!TXSTAbits.TRMT);
  1932                           
  1933     0025  1C9E               	btfss	30,1	;volatile
  1934     0026  2828               	goto	u3361
  1935     0027  2829               	goto	u3360
  1936     0028                     u3361:
  1937     0028  2825               	goto	l70
  1938     0029                     u3360:
  1939     0029                     l2549:
  1940                           
  1941                           ;main.c: 66:   TXREG = 230;
  1942     0029  30E6               	movlw	230
  1943     002A  009A               	movwf	26	;volatile
  1944     002B                     l73:	
  1945                           ;main.c: 67:   while(!TXSTAbits.TRMT);
  1946                           
  1947     002B  1C9E               	btfss	30,1	;volatile
  1948     002C  282E               	goto	u3371
  1949     002D  282F               	goto	u3370
  1950     002E                     u3371:
  1951     002E  282B               	goto	l73
  1952     002F                     u3370:
  1953     002F                     l2551:
  1954                           
  1955                           ;main.c: 68:   TXREG = 32;
  1956     002F  3020               	movlw	32
  1957     0030  009A               	movwf	26	;volatile
  1958     0031                     l76:	
  1959                           ;main.c: 69:   while(!TXSTAbits.TRMT);
  1960                           
  1961     0031  1C9E               	btfss	30,1	;volatile
  1962     0032  2834               	goto	u3381
  1963     0033  2835               	goto	u3380
  1964     0034                     u3381:
  1965     0034  2831               	goto	l76
  1966     0035                     u3380:
  1967     0035                     l2553:
  1968                           
  1969                           ;main.c: 70:   TXREG = 32;
  1970     0035  3020               	movlw	32
  1971     0036  009A               	movwf	26	;volatile
  1972     0037                     l79:	
  1973                           ;main.c: 71:   while(!TXSTAbits.TRMT);
  1974                           
  1975     0037  1C9E               	btfss	30,1	;volatile
  1976     0038  283A               	goto	u3391
  1977     0039  283B               	goto	u3390
  1978     003A                     u3391:
  1979     003A  2837               	goto	l79
  1980     003B                     u3390:
  1981     003B                     l2555:
  1982                           
  1983                           ;main.c: 73:   TXREG = hundred1;
  1984     003B  0021               	movlb	1	; select bank1
  1985     003C  0844               	movf	_hundred1^(0+128),w
  1986     003D  0023               	movlb	3	; select bank3
  1987     003E  009A               	movwf	26	;volatile
  1988     003F                     l82:	
  1989                           ;main.c: 74:   while(!TXSTAbits.TRMT);
  1990                           
  1991     003F  1C9E               	btfss	30,1	;volatile
  1992     0040  2842               	goto	u3401
  1993     0041  2843               	goto	u3400
  1994     0042                     u3401:
  1995     0042  283F               	goto	l82
  1996     0043                     u3400:
  1997     0043                     l2557:
  1998                           
  1999                           ;main.c: 75:   TXREG = ten1;
  2000     0043  0021               	movlb	1	; select bank1
  2001     0044  0846               	movf	_ten1^(0+128),w
  2002     0045  0023               	movlb	3	; select bank3
  2003     0046  009A               	movwf	26	;volatile
  2004     0047                     l85:	
  2005                           ;main.c: 76:   while(!TXSTAbits.TRMT);
  2006                           
  2007     0047  1C9E               	btfss	30,1	;volatile
  2008     0048  284A               	goto	u3411
  2009     0049  284B               	goto	u3410
  2010     004A                     u3411:
  2011     004A  2847               	goto	l85
  2012     004B                     u3410:
  2013     004B                     l2559:
  2014                           
  2015                           ;main.c: 77:   TXREG = 46;
  2016     004B  302E               	movlw	46
  2017     004C  009A               	movwf	26	;volatile
  2018     004D                     l88:	
  2019                           ;main.c: 78:   while(!TXSTAbits.TRMT);
  2020                           
  2021     004D  1C9E               	btfss	30,1	;volatile
  2022     004E  2850               	goto	u3421
  2023     004F  2851               	goto	u3420
  2024     0050                     u3421:
  2025     0050  284D               	goto	l88
  2026     0051                     u3420:
  2027     0051                     l2561:
  2028                           
  2029                           ;main.c: 79:   TXREG = one1;
  2030     0051  0021               	movlb	1	; select bank1
  2031     0052  0845               	movf	_one1^(0+128),w
  2032     0053  0023               	movlb	3	; select bank3
  2033     0054  009A               	movwf	26	;volatile
  2034     0055                     l91:	
  2035                           ;main.c: 80:   while(!TXSTAbits.TRMT);
  2036                           
  2037     0055  1C9E               	btfss	30,1	;volatile
  2038     0056  2858               	goto	u3431
  2039     0057  2859               	goto	u3430
  2040     0058                     u3431:
  2041     0058  2855               	goto	l91
  2042     0059                     u3430:
  2043     0059                     l2563:
  2044                           
  2045                           ;main.c: 81:   TXREG = 37;
  2046     0059  3025               	movlw	37
  2047     005A  009A               	movwf	26	;volatile
  2048     005B                     l94:	
  2049                           ;main.c: 82:   while(!TXSTAbits.TRMT);
  2050                           
  2051     005B  1C9E               	btfss	30,1	;volatile
  2052     005C  285E               	goto	u3441
  2053     005D  285F               	goto	u3440
  2054     005E                     u3441:
  2055     005E  285B               	goto	l94
  2056     005F                     u3440:
  2057     005F                     l2565:
  2058                           
  2059                           ;main.c: 83:   TXREG = 32;
  2060     005F  3020               	movlw	32
  2061     0060  009A               	movwf	26	;volatile
  2062     0061                     l97:	
  2063                           ;main.c: 84:   while(!TXSTAbits.TRMT);
  2064                           
  2065     0061  1C9E               	btfss	30,1	;volatile
  2066     0062  2864               	goto	u3451
  2067     0063  2865               	goto	u3450
  2068     0064                     u3451:
  2069     0064  2861               	goto	l97
  2070     0065                     u3450:
  2071     0065                     l2567:
  2072                           
  2073                           ;main.c: 85:   TXREG = 13;
  2074     0065  300D               	movlw	13
  2075     0066  009A               	movwf	26	;volatile
  2076     0067                     l100:	
  2077                           ;main.c: 86:   while(!TXSTAbits.TRMT);
  2078                           
  2079     0067  1C9E               	btfss	30,1	;volatile
  2080     0068  286A               	goto	u3461
  2081     0069  286B               	goto	u3460
  2082     006A                     u3461:
  2083     006A  2867               	goto	l100
  2084     006B                     u3460:
  2085     006B                     l2569:
  2086                           
  2087                           ;main.c: 87:   _delay((unsigned long)((5)*(8000000/4000.0)));
  2088     006B  300D               	movlw	13
  2089     006C  00F0               	movwf	??_TXREG_TRMT
  2090     006D  30FC               	movlw	252
  2091     006E                     u3507:
  2092     006E  0B89               	decfsz	9,f
  2093     006F  286E               	goto	u3507
  2094     0070  0BF0               	decfsz	??_TXREG_TRMT,f
  2095     0071  286E               	goto	u3507
  2096     0072                     l103:
  2097     0072  0008               	return
  2098     0073                     __end_of_TXREG_TRMT:
  2099                           
  2100                           	psect	text7
  2101     0BC1                     __ptext7:	
  2102 ;; *************** function _IIC_init *****************
  2103 ;; Defined at:
  2104 ;;		line 9 in file "GXHT30.c"
  2105 ;; Parameters:    Size  Location     Type
  2106 ;;		None
  2107 ;; Auto vars:     Size  Location     Type
  2108 ;;		None
  2109 ;; Return value:  Size  Location     Type
  2110 ;;                  1    wreg      void 
  2111 ;; Registers used:
  2112 ;;		None
  2113 ;; Tracked objects:
  2114 ;;		On entry : 0/0
  2115 ;;		On exit  : 0/0
  2116 ;;		Unchanged: 0/0
  2117 ;; Data sizes:     COMMON   BANK0   BANK1   BANK2
  2118 ;;      Params:         0       0       0       0
  2119 ;;      Locals:         0       0       0       0
  2120 ;;      Temps:          0       0       0       0
  2121 ;;      Totals:         0       0       0       0
  2122 ;;Total ram usage:        0 bytes
  2123 ;; Hardware stack levels used: 1
  2124 ;; This function calls:
  2125 ;;		Nothing
  2126 ;; This function is called by:
  2127 ;;		_main
  2128 ;; This function uses a non-reentrant model
  2129 ;;
  2130                           
  2131     0BC1                     _IIC_init:	
  2132                           ;psect for function _IIC_init
  2133                           
  2134     0BC1                     l1633:	
  2135                           ;incstack = 0
  2136                           ; Regs used in _IIC_init: []
  2137                           
  2138                           
  2139                           ;GXHT30.c: 11:  TRISAbits.TRISA4 = 0;;
  2140     0BC1  0021               	movlb	1	; select bank1
  2141     0BC2  120C               	bcf	12,4	;volatile
  2142                           
  2143                           ;GXHT30.c: 12:  TRISAbits.TRISA5 = 0;;
  2144     0BC3  128C               	bcf	12,5	;volatile
  2145                           
  2146                           ;GXHT30.c: 14:  PORTAbits.RA4 = 0;;
  2147     0BC4  0020               	movlb	0	; select bank0
  2148     0BC5  120C               	bcf	12,4	;volatile
  2149                           
  2150                           ;GXHT30.c: 15:  PORTAbits.RA5 = 0;;
  2151     0BC6  128C               	bcf	12,5	;volatile
  2152     0BC7                     l144:
  2153     0BC7  0008               	return
  2154     0BC8                     __end_of_IIC_init:
  2155                           
  2156                           	psect	text8
  2157     0C0E                     __ptext8:	
  2158 ;; *************** function _GXHT30_single_call *****************
  2159 ;; Defined at:
  2160 ;;		line 240 in file "GXHT30.c"
  2161 ;; Parameters:    Size  Location     Type
  2162 ;;		None
  2163 ;; Auto vars:     Size  Location     Type
  2164 ;;		None
  2165 ;; Return value:  Size  Location     Type
  2166 ;;                  1    wreg      void 
  2167 ;; Registers used:
  2168 ;;		wreg, status,2, status,0, pclath, cstack
  2169 ;; Tracked objects:
  2170 ;;		On entry : 0/0
  2171 ;;		On exit  : 0/0
  2172 ;;		Unchanged: 0/0
  2173 ;; Data sizes:     COMMON   BANK0   BANK1   BANK2
  2174 ;;      Params:         0       0       0       0
  2175 ;;      Locals:         0       0       0       0
  2176 ;;      Temps:          0       0       1       0
  2177 ;;      Totals:         0       0       1       0
  2178 ;;Total ram usage:        1 bytes
  2179 ;; Hardware stack levels used: 1
  2180 ;; Hardware stack levels required when called: 3
  2181 ;; This function calls:
  2182 ;;		_GXHT30_read_result
  2183 ;;		_GXHT30_write_cmd
  2184 ;; This function is called by:
  2185 ;;		_main
  2186 ;; This function uses a non-reentrant model
  2187 ;;
  2188                           
  2189     0C0E                     _GXHT30_single_call:	
  2190                           ;psect for function _GXHT30_single_call
  2191                           
  2192     0C0E                     l2517:	
  2193                           ;incstack = 0
  2194                           ; Regs used in _GXHT30_single_call: [wreg+status,2+status,0+pclath+cstack]
  2195                           
  2196                           
  2197                           ;GXHT30.c: 242:  GXHT30_write_cmd(0x88, 0x2C, 0x0D);
  2198     0C0E  302C               	movlw	44
  2199     0C0F  00F4               	movwf	GXHT30_write_cmd@MSB
  2200     0C10  300D               	movlw	13
  2201     0C11  00F5               	movwf	GXHT30_write_cmd@LSB
  2202     0C12  3088               	movlw	136
  2203     0C13  318E  2609  318C   	fcall	_GXHT30_write_cmd
  2204     0C16                     l2519:
  2205                           
  2206                           ;GXHT30.c: 243:  _delay((unsigned long)((20)*(8000000/4000.0)));
  2207     0C16  3034               	movlw	52
  2208     0C17  0021               	movlb	1	; select bank1
  2209     0C18  00B9               	movwf	??_GXHT30_single_call^(0+128)
  2210     0C19  30F1               	movlw	241
  2211     0C1A                     u3517:
  2212     0C1A  0B89               	decfsz	9,f
  2213     0C1B  2C1A               	goto	u3517
  2214     0C1C  0BB9               	decfsz	??_GXHT30_single_call^(0+128),f
  2215     0C1D  2C1A               	goto	u3517
  2216     0C1E  3200               	nop2
  2217     0C1F                     l2521:
  2218                           
  2219                           ;GXHT30.c: 244:  GXHT30_read_result(0x88);
  2220     0C1F  3088               	movlw	136
  2221     0C20  3180  2073  318C   	fcall	_GXHT30_read_result
  2222     0C23                     l191:
  2223     0C23  0008               	return
  2224     0C24                     __end_of_GXHT30_single_call:
  2225                           
  2226                           	psect	text9
  2227     0E09                     __ptext9:	
  2228 ;; *************** function _GXHT30_write_cmd *****************
  2229 ;; Defined at:
  2230 ;;		line 219 in file "GXHT30.c"
  2231 ;; Parameters:    Size  Location     Type
  2232 ;;  addr            1    wreg     unsigned char 
  2233 ;;  MSB             1    4[COMMON] unsigned char 
  2234 ;;  LSB             1    5[COMMON] unsigned char 
  2235 ;; Auto vars:     Size  Location     Type
  2236 ;;  addr            1    8[COMMON] unsigned char 
  2237 ;; Return value:  Size  Location     Type
  2238 ;;                  1    wreg      void 
  2239 ;; Registers used:
  2240 ;;		wreg, status,2, status,0, pclath, cstack
  2241 ;; Tracked objects:
  2242 ;;		On entry : 0/0
  2243 ;;		On exit  : 0/0
  2244 ;;		Unchanged: 0/0
  2245 ;; Data sizes:     COMMON   BANK0   BANK1   BANK2
  2246 ;;      Params:         2       0       0       0
  2247 ;;      Locals:         1       0       0       0
  2248 ;;      Temps:          2       0       0       0
  2249 ;;      Totals:         5       0       0       0
  2250 ;;Total ram usage:        5 bytes
  2251 ;; Hardware stack levels used: 1
  2252 ;; Hardware stack levels required when called: 2
  2253 ;; This function calls:
  2254 ;;		_IIC_SendByte
  2255 ;;		_IIC_Start
  2256 ;;		_IIC_Stop
  2257 ;;		_IIC_WAck
  2258 ;; This function is called by:
  2259 ;;		_GXHT30_single_call
  2260 ;; This function uses a non-reentrant model
  2261 ;;
  2262                           
  2263     0E09                     _GXHT30_write_cmd:	
  2264                           ;psect for function _GXHT30_write_cmd
  2265                           
  2266                           
  2267                           ;incstack = 0
  2268                           ; Regs used in _GXHT30_write_cmd: [wreg+status,2+status,0+pclath+cstack]
  2269                           ;GXHT30_write_cmd@addr stored from wreg
  2270     0E09  00F8               	movwf	GXHT30_write_cmd@addr
  2271     0E0A                     l2493:
  2272                           
  2273                           ;GXHT30.c: 219: void GXHT30_write_cmd(unsigned char addr, unsigned char MSB, unsigned ch
      +                          ar LSB);GXHT30.c: 220: {;GXHT30.c: 221:  IIC_Start();
  2274     0E0A  318B  23E0  318E   	fcall	_IIC_Start
  2275     0E0D                     l2495:
  2276                           
  2277                           ;GXHT30.c: 222:  _delay((unsigned long)((1)*(8000000/4000.0)));
  2278     0E0D  3003               	movlw	3
  2279     0E0E  00F6               	movwf	??_GXHT30_write_cmd
  2280     0E0F  3098               	movlw	152
  2281     0E10                     u3527:
  2282     0E10  0B89               	decfsz	9,f
  2283     0E11  2E10               	goto	u3527
  2284     0E12  0BF6               	decfsz	??_GXHT30_write_cmd,f
  2285     0E13  2E10               	goto	u3527
  2286                           
  2287                           ;GXHT30.c: 223:  IIC_SendByte(addr);
  2288     0E14  0878               	movf	GXHT30_write_cmd@addr,w
  2289     0E15  00F6               	movwf	??_GXHT30_write_cmd
  2290     0E16  01F7               	clrf	??_GXHT30_write_cmd+1
  2291     0E17  0876               	movf	??_GXHT30_write_cmd,w
  2292     0E18  00F0               	movwf	IIC_SendByte@txd
  2293     0E19  0877               	movf	??_GXHT30_write_cmd+1,w
  2294     0E1A  00F1               	movwf	IIC_SendByte@txd+1
  2295     0E1B  318C  2480  318E   	fcall	_IIC_SendByte
  2296     0E1E                     l2497:
  2297                           
  2298                           ;GXHT30.c: 224:  _delay((unsigned long)((1)*(8000000/4000.0)));
  2299     0E1E  3003               	movlw	3
  2300     0E1F  00F6               	movwf	??_GXHT30_write_cmd
  2301     0E20  3098               	movlw	152
  2302     0E21                     u3537:
  2303     0E21  0B89               	decfsz	9,f
  2304     0E22  2E21               	goto	u3537
  2305     0E23  0BF6               	decfsz	??_GXHT30_write_cmd,f
  2306     0E24  2E21               	goto	u3537
  2307     0E25                     l2499:
  2308                           
  2309                           ;GXHT30.c: 225:  IIC_WAck();
  2310     0E25  318C  243A  318E   	fcall	_IIC_WAck
  2311                           
  2312                           ;GXHT30.c: 226:  _delay((unsigned long)((1)*(8000000/4000.0)));
  2313     0E28  3003               	movlw	3
  2314     0E29  00F6               	movwf	??_GXHT30_write_cmd
  2315     0E2A  3098               	movlw	152
  2316     0E2B                     u3547:
  2317     0E2B  0B89               	decfsz	9,f
  2318     0E2C  2E2B               	goto	u3547
  2319     0E2D  0BF6               	decfsz	??_GXHT30_write_cmd,f
  2320     0E2E  2E2B               	goto	u3547
  2321     0E2F                     l2501:
  2322                           
  2323                           ;GXHT30.c: 227:  IIC_SendByte(MSB);
  2324     0E2F  0874               	movf	GXHT30_write_cmd@MSB,w
  2325     0E30  00F6               	movwf	??_GXHT30_write_cmd
  2326     0E31  01F7               	clrf	??_GXHT30_write_cmd+1
  2327     0E32  0876               	movf	??_GXHT30_write_cmd,w
  2328     0E33  00F0               	movwf	IIC_SendByte@txd
  2329     0E34  0877               	movf	??_GXHT30_write_cmd+1,w
  2330     0E35  00F1               	movwf	IIC_SendByte@txd+1
  2331     0E36  318C  2480  318E   	fcall	_IIC_SendByte
  2332     0E39                     l2503:
  2333                           
  2334                           ;GXHT30.c: 228:  _delay((unsigned long)((1)*(8000000/4000.0)));
  2335     0E39  3003               	movlw	3
  2336     0E3A  00F6               	movwf	??_GXHT30_write_cmd
  2337     0E3B  3098               	movlw	152
  2338     0E3C                     u3557:
  2339     0E3C  0B89               	decfsz	9,f
  2340     0E3D  2E3C               	goto	u3557
  2341     0E3E  0BF6               	decfsz	??_GXHT30_write_cmd,f
  2342     0E3F  2E3C               	goto	u3557
  2343                           
  2344                           ;GXHT30.c: 229:  IIC_WAck();
  2345     0E40  318C  243A  318E   	fcall	_IIC_WAck
  2346     0E43                     l2505:
  2347                           
  2348                           ;GXHT30.c: 230:  _delay((unsigned long)((1)*(8000000/4000.0)));
  2349     0E43  3003               	movlw	3
  2350     0E44  00F6               	movwf	??_GXHT30_write_cmd
  2351     0E45  3098               	movlw	152
  2352     0E46                     u3567:
  2353     0E46  0B89               	decfsz	9,f
  2354     0E47  2E46               	goto	u3567
  2355     0E48  0BF6               	decfsz	??_GXHT30_write_cmd,f
  2356     0E49  2E46               	goto	u3567
  2357     0E4A                     l2507:
  2358                           
  2359                           ;GXHT30.c: 231:  IIC_SendByte(LSB);
  2360     0E4A  0875               	movf	GXHT30_write_cmd@LSB,w
  2361     0E4B  00F6               	movwf	??_GXHT30_write_cmd
  2362     0E4C  01F7               	clrf	??_GXHT30_write_cmd+1
  2363     0E4D  0876               	movf	??_GXHT30_write_cmd,w
  2364     0E4E  00F0               	movwf	IIC_SendByte@txd
  2365     0E4F  0877               	movf	??_GXHT30_write_cmd+1,w
  2366     0E50  00F1               	movwf	IIC_SendByte@txd+1
  2367     0E51  318C  2480  318E   	fcall	_IIC_SendByte
  2368                           
  2369                           ;GXHT30.c: 232:  _delay((unsigned long)((1)*(8000000/4000.0)));
  2370     0E54  3003               	movlw	3
  2371     0E55  00F6               	movwf	??_GXHT30_write_cmd
  2372     0E56  3098               	movlw	152
  2373     0E57                     u3577:
  2374     0E57  0B89               	decfsz	9,f
  2375     0E58  2E57               	goto	u3577
  2376     0E59  0BF6               	decfsz	??_GXHT30_write_cmd,f
  2377     0E5A  2E57               	goto	u3577
  2378     0E5B                     l2509:
  2379                           
  2380                           ;GXHT30.c: 233:  IIC_WAck();
  2381     0E5B  318C  243A  318E   	fcall	_IIC_WAck
  2382     0E5E                     l2511:
  2383                           
  2384                           ;GXHT30.c: 234:  _delay((unsigned long)((1)*(8000000/4000.0)));
  2385     0E5E  3003               	movlw	3
  2386     0E5F  00F6               	movwf	??_GXHT30_write_cmd
  2387     0E60  3098               	movlw	152
  2388     0E61                     u3587:
  2389     0E61  0B89               	decfsz	9,f
  2390     0E62  2E61               	goto	u3587
  2391     0E63  0BF6               	decfsz	??_GXHT30_write_cmd,f
  2392     0E64  2E61               	goto	u3587
  2393     0E65                     l2513:
  2394                           
  2395                           ;GXHT30.c: 235:  IIC_Stop();
  2396     0E65  318B  23EF  318E   	fcall	_IIC_Stop
  2397                           
  2398                           ;GXHT30.c: 236:  _delay((unsigned long)((1)*(8000000/4000.0)));
  2399     0E68  3003               	movlw	3
  2400     0E69  00F6               	movwf	??_GXHT30_write_cmd
  2401     0E6A  3098               	movlw	152
  2402     0E6B                     u3597:
  2403     0E6B  0B89               	decfsz	9,f
  2404     0E6C  2E6B               	goto	u3597
  2405     0E6D  0BF6               	decfsz	??_GXHT30_write_cmd,f
  2406     0E6E  2E6B               	goto	u3597
  2407     0E6F                     l188:
  2408     0E6F  0008               	return
  2409     0E70                     __end_of_GXHT30_write_cmd:
  2410                           
  2411                           	psect	text10
  2412     0073                     __ptext10:	
  2413 ;; *************** function _GXHT30_read_result *****************
  2414 ;; Defined at:
  2415 ;;		line 183 in file "GXHT30.c"
  2416 ;; Parameters:    Size  Location     Type
  2417 ;;  addr            1    wreg     unsigned char 
  2418 ;; Auto vars:     Size  Location     Type
  2419 ;;  addr            1    4[BANK1 ] unsigned char 
  2420 ;;  buff           12    9[BANK1 ] unsigned int [6]
  2421 ;;  hum             2    7[BANK1 ] unsigned int 
  2422 ;;  tem             2    5[BANK1 ] unsigned int 
  2423 ;; Return value:  Size  Location     Type
  2424 ;;                  1    wreg      void 
  2425 ;; Registers used:
  2426 ;;		wreg, status,2, status,0, pclath, cstack
  2427 ;; Tracked objects:
  2428 ;;		On entry : 0/0
  2429 ;;		On exit  : 0/0
  2430 ;;		Unchanged: 0/0
  2431 ;; Data sizes:     COMMON   BANK0   BANK1   BANK2
  2432 ;;      Params:         0       0       0       0
  2433 ;;      Locals:         0       0      21       0
  2434 ;;      Temps:          0       0       2       0
  2435 ;;      Totals:         0       0      23       0
  2436 ;;Total ram usage:       23 bytes
  2437 ;; Hardware stack levels used: 1
  2438 ;; Hardware stack levels required when called: 2
  2439 ;; This function calls:
  2440 ;;		_IIC_ReadByte
  2441 ;;		_IIC_SendByte
  2442 ;;		_IIC_Start
  2443 ;;		_IIC_Stop
  2444 ;;		_IIC_WAck
  2445 ;;		___fladd
  2446 ;;		___fldiv
  2447 ;;		___flmul
  2448 ;;		___fltol
  2449 ;;		___xxtofl
  2450 ;; This function is called by:
  2451 ;;		_GXHT30_single_call
  2452 ;; This function uses a non-reentrant model
  2453 ;;
  2454                           
  2455     0073                     _GXHT30_read_result:	
  2456                           ;psect for function _GXHT30_read_result
  2457                           
  2458                           
  2459                           ;incstack = 0
  2460                           ; Regs used in _GXHT30_read_result: [wreg+status,2+status,0+pclath+cstack]
  2461                           ;GXHT30_read_result@addr stored from wreg
  2462     0073  0021               	movlb	1	; select bank1
  2463     0074  00A4               	movwf	GXHT30_read_result@addr^(0+128)
  2464     0075                     l2463:
  2465                           
  2466                           ;GXHT30.c: 183: void GXHT30_read_result(unsigned char addr);GXHT30.c: 184: {;GXHT30.c: 1
      +                          85:  unsigned int tem,hum;;GXHT30.c: 186:  unsigned int buff[6];;GXHT30.c: 187:  Tempera
      +                          ture = 0;
  2467     0075  01C2               	clrf	_Temperature^(0+128)
  2468     0076  01C3               	clrf	(_Temperature+1)^(0+128)
  2469                           
  2470                           ;GXHT30.c: 188:  Humidity = 0;
  2471     0077  01C0               	clrf	_Humidity^(0+128)
  2472     0078  01C1               	clrf	(_Humidity+1)^(0+128)
  2473     0079                     l2465:
  2474                           
  2475                           ;GXHT30.c: 190:  IIC_Start();
  2476     0079  318B  23E0  3180   	fcall	_IIC_Start
  2477     007C                     l2467:
  2478                           
  2479                           ;GXHT30.c: 191:  _delay((unsigned long)((1)*(8000000/4000.0)));
  2480     007C  3003               	movlw	3
  2481     007D  0021               	movlb	1	; select bank1
  2482     007E  00A2               	movwf	??_GXHT30_read_result^(0+128)
  2483     007F  3097               	movlw	151
  2484     0080                     u3607:
  2485     0080  0B89               	decfsz	9,f
  2486     0081  2880               	goto	u3607
  2487     0082  0BA2               	decfsz	??_GXHT30_read_result^(0+128),f
  2488     0083  2880               	goto	u3607
  2489     0084  3200               	nop2
  2490     0085                     l2469:
  2491                           
  2492                           ;GXHT30.c: 192:  IIC_SendByte(addr | 0x01);
  2493     0085  3001               	movlw	1
  2494     0086  0021               	movlb	1	; select bank1
  2495     0087  0424               	iorwf	GXHT30_read_result@addr^(0+128),w
  2496     0088  00F0               	movwf	IIC_SendByte@txd
  2497     0089  3000               	movlw	0
  2498     008A  00F1               	movwf	IIC_SendByte@txd+1
  2499     008B  318C  2480  3180   	fcall	_IIC_SendByte
  2500     008E                     l2471:
  2501                           
  2502                           ;GXHT30.c: 193:  _delay((unsigned long)((1)*(8000000/4000.0)));
  2503     008E  3003               	movlw	3
  2504     008F  0021               	movlb	1	; select bank1
  2505     0090  00A2               	movwf	??_GXHT30_read_result^(0+128)
  2506     0091  3097               	movlw	151
  2507     0092                     u3617:
  2508     0092  0B89               	decfsz	9,f
  2509     0093  2892               	goto	u3617
  2510     0094  0BA2               	decfsz	??_GXHT30_read_result^(0+128),f
  2511     0095  2892               	goto	u3617
  2512     0096  3200               	nop2
  2513     0097                     l2473:
  2514                           
  2515                           ;GXHT30.c: 194:  if(IIC_WAck() == 0)
  2516     0097  318C  243A  3180   	fcall	_IIC_WAck
  2517     009A  3A00               	xorlw	0
  2518     009B  1D03               	skipz
  2519     009C  289E               	goto	u3301
  2520     009D  289F               	goto	u3300
  2521     009E                     u3301:
  2522     009E  28F7               	goto	l184
  2523     009F                     u3300:
  2524     009F                     l2475:
  2525                           
  2526                           ;GXHT30.c: 195:  {;GXHT30.c: 196:   TRISAbits.TRISA5 = 1;;
  2527     009F  0021               	movlb	1	; select bank1
  2528     00A0  168C               	bsf	12,5	;volatile
  2529     00A1                     l2477:
  2530                           
  2531                           ;GXHT30.c: 197:   buff[0] = IIC_ReadByte(1);
  2532     00A1  3001               	movlw	1
  2533     00A2  00F0               	movwf	IIC_ReadByte@ack
  2534     00A3  3000               	movlw	0
  2535     00A4  00F1               	movwf	IIC_ReadByte@ack+1
  2536     00A5  318C  24D6  3180   	fcall	_IIC_ReadByte
  2537     00A8  0021               	movlb	1	; select bank1
  2538     00A9  00A2               	movwf	??_GXHT30_read_result^(0+128)
  2539     00AA  01A3               	clrf	(??_GXHT30_read_result^(0+128)+1)
  2540     00AB  0822               	movf	??_GXHT30_read_result^(0+128),w
  2541     00AC  00A9               	movwf	GXHT30_read_result@buff^(0+128)
  2542     00AD  0823               	movf	(??_GXHT30_read_result+1)^(0+128),w
  2543     00AE  00AA               	movwf	(GXHT30_read_result@buff+1)^(0+128)
  2544                           
  2545                           ;GXHT30.c: 198:   buff[1] = IIC_ReadByte(1);
  2546     00AF  3001               	movlw	1
  2547     00B0  00F0               	movwf	IIC_ReadByte@ack
  2548     00B1  3000               	movlw	0
  2549     00B2  00F1               	movwf	IIC_ReadByte@ack+1
  2550     00B3  318C  24D6  3180   	fcall	_IIC_ReadByte
  2551     00B6  0021               	movlb	1	; select bank1
  2552     00B7  00A2               	movwf	??_GXHT30_read_result^(0+128)
  2553     00B8  01A3               	clrf	(??_GXHT30_read_result^(0+128)+1)
  2554     00B9  0822               	movf	??_GXHT30_read_result^(0+128),w
  2555     00BA  00AB               	movwf	(GXHT30_read_result@buff^(0+128)+2)
  2556     00BB  0823               	movf	(??_GXHT30_read_result+1)^(0+128),w
  2557     00BC  00AC               	movwf	((GXHT30_read_result@buff+1)^(0+128)+2)
  2558                           
  2559                           ;GXHT30.c: 199:   buff[2] = IIC_ReadByte(1);
  2560     00BD  3001               	movlw	1
  2561     00BE  00F0               	movwf	IIC_ReadByte@ack
  2562     00BF  3000               	movlw	0
  2563     00C0  00F1               	movwf	IIC_ReadByte@ack+1
  2564     00C1  318C  24D6  3180   	fcall	_IIC_ReadByte
  2565     00C4  0021               	movlb	1	; select bank1
  2566     00C5  00A2               	movwf	??_GXHT30_read_result^(0+128)
  2567     00C6  01A3               	clrf	(??_GXHT30_read_result^(0+128)+1)
  2568     00C7  0822               	movf	??_GXHT30_read_result^(0+128),w
  2569     00C8  00AD               	movwf	(GXHT30_read_result@buff^(0+128)+4)
  2570     00C9  0823               	movf	(??_GXHT30_read_result+1)^(0+128),w
  2571     00CA  00AE               	movwf	((GXHT30_read_result@buff+1)^(0+128)+4)
  2572                           
  2573                           ;GXHT30.c: 200:   buff[3] = IIC_ReadByte(1);
  2574     00CB  3001               	movlw	1
  2575     00CC  00F0               	movwf	IIC_ReadByte@ack
  2576     00CD  3000               	movlw	0
  2577     00CE  00F1               	movwf	IIC_ReadByte@ack+1
  2578     00CF  318C  24D6  3180   	fcall	_IIC_ReadByte
  2579     00D2  0021               	movlb	1	; select bank1
  2580     00D3  00A2               	movwf	??_GXHT30_read_result^(0+128)
  2581     00D4  01A3               	clrf	(??_GXHT30_read_result^(0+128)+1)
  2582     00D5  0822               	movf	??_GXHT30_read_result^(0+128),w
  2583     00D6  00AF               	movwf	(GXHT30_read_result@buff^(0+128)+6)
  2584     00D7  0823               	movf	(??_GXHT30_read_result+1)^(0+128),w
  2585     00D8  00B0               	movwf	((GXHT30_read_result@buff+1)^(0+128)+6)
  2586                           
  2587                           ;GXHT30.c: 201:   buff[4] = IIC_ReadByte(1);
  2588     00D9  3001               	movlw	1
  2589     00DA  00F0               	movwf	IIC_ReadByte@ack
  2590     00DB  3000               	movlw	0
  2591     00DC  00F1               	movwf	IIC_ReadByte@ack+1
  2592     00DD  318C  24D6  3180   	fcall	_IIC_ReadByte
  2593     00E0  0021               	movlb	1	; select bank1
  2594     00E1  00A2               	movwf	??_GXHT30_read_result^(0+128)
  2595     00E2  01A3               	clrf	(??_GXHT30_read_result^(0+128)+1)
  2596     00E3  0822               	movf	??_GXHT30_read_result^(0+128),w
  2597     00E4  00B1               	movwf	(GXHT30_read_result@buff^(0+128)+8)
  2598     00E5  0823               	movf	(??_GXHT30_read_result+1)^(0+128),w
  2599     00E6  00B2               	movwf	((GXHT30_read_result@buff+1)^(0+128)+8)
  2600                           
  2601                           ;GXHT30.c: 202:   buff[5] = IIC_ReadByte(0);
  2602     00E7  3000               	movlw	0
  2603     00E8  00F0               	movwf	IIC_ReadByte@ack
  2604     00E9  00F1               	movwf	IIC_ReadByte@ack+1
  2605     00EA  318C  24D6  3180   	fcall	_IIC_ReadByte
  2606     00ED  0021               	movlb	1	; select bank1
  2607     00EE  00A2               	movwf	??_GXHT30_read_result^(0+128)
  2608     00EF  01A3               	clrf	(??_GXHT30_read_result^(0+128)+1)
  2609     00F0  0822               	movf	??_GXHT30_read_result^(0+128),w
  2610     00F1  00B3               	movwf	(GXHT30_read_result@buff^(0+128)+10)
  2611     00F2  0823               	movf	(??_GXHT30_read_result+1)^(0+128),w
  2612     00F3  00B4               	movwf	((GXHT30_read_result@buff+1)^(0+128)+10)
  2613     00F4                     l2479:
  2614                           
  2615                           ;GXHT30.c: 203:   IIC_Stop();
  2616     00F4  318B  23EF  3180   	fcall	_IIC_Stop
  2617     00F7                     l184:	
  2618                           ;GXHT30.c: 204:  }
  2619                           
  2620                           
  2621                           ;GXHT30.c: 206:  tem = ((buff[0] << 8) | buff[1]);
  2622     00F7  0021               	movlb	1	; select bank1
  2623     00F8  0829               	movf	GXHT30_read_result@buff^(0+128),w
  2624     00F9  00A3               	movwf	(??_GXHT30_read_result^(0+128)+1)
  2625     00FA  01A2               	clrf	??_GXHT30_read_result^(0+128)
  2626     00FB  082B               	movf	(GXHT30_read_result@buff^(0+128)+2),w
  2627     00FC  0422               	iorwf	??_GXHT30_read_result^(0+128),w
  2628     00FD  00A5               	movwf	GXHT30_read_result@tem^(0+128)
  2629     00FE  082C               	movf	((GXHT30_read_result@buff+1)^(0+128)+2),w
  2630     00FF  0423               	iorwf	(??_GXHT30_read_result+1)^(0+128),w
  2631     0100  00A6               	movwf	(GXHT30_read_result@tem+1)^(0+128)
  2632                           
  2633                           ;GXHT30.c: 207:  hum = ((buff[3] << 8) | buff[4]);
  2634     0101  082F               	movf	(GXHT30_read_result@buff^(0+128)+6),w
  2635     0102  00A3               	movwf	(??_GXHT30_read_result^(0+128)+1)
  2636     0103  01A2               	clrf	??_GXHT30_read_result^(0+128)
  2637     0104  0831               	movf	(GXHT30_read_result@buff^(0+128)+8),w
  2638     0105  0422               	iorwf	??_GXHT30_read_result^(0+128),w
  2639     0106  00A7               	movwf	GXHT30_read_result@hum^(0+128)
  2640     0107  0832               	movf	((GXHT30_read_result@buff+1)^(0+128)+8),w
  2641     0108  0423               	iorwf	(??_GXHT30_read_result+1)^(0+128),w
  2642     0109  00A8               	movwf	(GXHT30_read_result@hum+1)^(0+128)
  2643     010A                     l2481:
  2644                           
  2645                           ;GXHT30.c: 209:  Temperature = (int)((175.0 * (float)tem / 65535.0 - 45.0) * 10);
  2646     010A  0825               	movf	GXHT30_read_result@tem^(0+128),w
  2647     010B  00F0               	movwf	___xxtofl@val
  2648     010C  0826               	movf	(GXHT30_read_result@tem+1)^(0+128),w
  2649     010D  00F1               	movwf	___xxtofl@val+1
  2650     010E  01F2               	clrf	___xxtofl@val+2
  2651     010F  01F3               	clrf	___xxtofl@val+3
  2652     0110  3000               	movlw	0
  2653     0111  318F  2756  3180   	fcall	___xxtofl
  2654     0114  0873               	movf	?___xxtofl+3,w
  2655     0115  0020               	movlb	0	; select bank0
  2656     0116  00A7               	movwf	___flmul@a+3
  2657     0117  0872               	movf	?___xxtofl+2,w
  2658     0118  00A6               	movwf	___flmul@a+2
  2659     0119  0871               	movf	?___xxtofl+1,w
  2660     011A  00A5               	movwf	___flmul@a+1
  2661     011B  0870               	movf	?___xxtofl,w
  2662     011C  00A4               	movwf	___flmul@a
  2663     011D  3043               	movlw	67
  2664     011E  00A3               	movwf	___flmul@b+3
  2665     011F  302F               	movlw	47
  2666     0120  00A2               	movwf	___flmul@b+2
  2667     0121  3000               	movlw	0
  2668     0122  00A1               	movwf	___flmul@b+1
  2669     0123  3000               	movlw	0
  2670     0124  00A0               	movwf	___flmul@b
  2671     0125  3185  25BA  3180   	fcall	___flmul
  2672     0128  0020               	movlb	0	; select bank0
  2673     0129  0823               	movf	?___flmul+3,w
  2674     012A  00C1               	movwf	___fldiv@b+3
  2675     012B  0822               	movf	?___flmul+2,w
  2676     012C  00C0               	movwf	___fldiv@b+2
  2677     012D  0821               	movf	?___flmul+1,w
  2678     012E  00BF               	movwf	___fldiv@b+1
  2679     012F  0820               	movf	?___flmul,w
  2680     0130  00BE               	movwf	___fldiv@b
  2681     0131  3047               	movlw	71
  2682     0132  00BD               	movwf	___fldiv@a+3
  2683     0133  307F               	movlw	127
  2684     0134  00BC               	movwf	___fldiv@a+2
  2685     0135  30FF               	movlw	255
  2686     0136  00BB               	movwf	___fldiv@a+1
  2687     0137  3000               	movlw	0
  2688     0138  00BA               	movwf	___fldiv@a
  2689     0139  3182  2208  3180   	fcall	___fldiv
  2690     013C  0020               	movlb	0	; select bank0
  2691     013D  083D               	movf	?___fldiv+3,w
  2692     013E  00DB               	movwf	___fladd@a+3
  2693     013F  083C               	movf	?___fldiv+2,w
  2694     0140  00DA               	movwf	___fladd@a+2
  2695     0141  083B               	movf	?___fldiv+1,w
  2696     0142  00D9               	movwf	___fladd@a+1
  2697     0143  083A               	movf	?___fldiv,w
  2698     0144  00D8               	movwf	___fladd@a
  2699     0145  30C2               	movlw	194
  2700     0146  00D7               	movwf	___fladd@b+3
  2701     0147  3034               	movlw	52
  2702     0148  00D6               	movwf	___fladd@b+2
  2703     0149  3000               	movlw	0
  2704     014A  00D5               	movwf	___fladd@b+1
  2705     014B  3000               	movlw	0
  2706     014C  00D4               	movwf	___fladd@b
  2707     014D  3183  23B2  3180   	fcall	___fladd
  2708     0150  0020               	movlb	0	; select bank0
  2709     0151  0857               	movf	?___fladd+3,w
  2710     0152  0021               	movlb	1	; select bank1
  2711     0153  00B8               	movwf	(_GXHT30_read_result$964+3)^(0+128)
  2712     0154  0020               	movlb	0	; select bank0
  2713     0155  0856               	movf	?___fladd+2,w
  2714     0156  0021               	movlb	1	; select bank1
  2715     0157  00B7               	movwf	(_GXHT30_read_result$964+2)^(0+128)
  2716     0158  0020               	movlb	0	; select bank0
  2717     0159  0855               	movf	?___fladd+1,w
  2718     015A  0021               	movlb	1	; select bank1
  2719     015B  00B6               	movwf	(_GXHT30_read_result$964+1)^(0+128)
  2720     015C  0020               	movlb	0	; select bank0
  2721     015D  0854               	movf	?___fladd,w
  2722     015E  0021               	movlb	1	; select bank1
  2723     015F  00B5               	movwf	_GXHT30_read_result$964^(0+128)
  2724     0160                     l2483:
  2725                           
  2726                           ;GXHT30.c: 209:  Temperature = (int)((175.0 * (float)tem / 65535.0 - 45.0) * 10);
  2727     0160  0838               	movf	(_GXHT30_read_result$964+3)^(0+128),w
  2728     0161  0020               	movlb	0	; select bank0
  2729     0162  00A7               	movwf	___flmul@a+3
  2730     0163  0021               	movlb	1	; select bank1
  2731     0164  0837               	movf	(_GXHT30_read_result$964+2)^(0+128),w
  2732     0165  0020               	movlb	0	; select bank0
  2733     0166  00A6               	movwf	___flmul@a+2
  2734     0167  0021               	movlb	1	; select bank1
  2735     0168  0836               	movf	(_GXHT30_read_result$964+1)^(0+128),w
  2736     0169  0020               	movlb	0	; select bank0
  2737     016A  00A5               	movwf	___flmul@a+1
  2738     016B  0021               	movlb	1	; select bank1
  2739     016C  0835               	movf	_GXHT30_read_result$964^(0+128),w
  2740     016D  0020               	movlb	0	; select bank0
  2741     016E  00A4               	movwf	___flmul@a
  2742     016F  3041               	movlw	65
  2743     0170  00A3               	movwf	___flmul@b+3
  2744     0171  3020               	movlw	32
  2745     0172  00A2               	movwf	___flmul@b+2
  2746     0173  3000               	movlw	0
  2747     0174  00A1               	movwf	___flmul@b+1
  2748     0175  3000               	movlw	0
  2749     0176  00A0               	movwf	___flmul@b
  2750     0177  3185  25BA  3180   	fcall	___flmul
  2751     017A  0020               	movlb	0	; select bank0
  2752     017B  0823               	movf	?___flmul+3,w
  2753     017C  00EB               	movwf	___fltol@f1+3
  2754     017D  0822               	movf	?___flmul+2,w
  2755     017E  00EA               	movwf	___fltol@f1+2
  2756     017F  0821               	movf	?___flmul+1,w
  2757     0180  00E9               	movwf	___fltol@f1+1
  2758     0181  0820               	movf	?___flmul,w
  2759     0182  00E8               	movwf	___fltol@f1
  2760     0183  318E  26DA  3180   	fcall	___fltol
  2761     0186  0020               	movlb	0	; select bank0
  2762     0187  0869               	movf	?___fltol+1,w
  2763     0188  0021               	movlb	1	; select bank1
  2764     0189  00C3               	movwf	(_Temperature+1)^(0+128)
  2765     018A  0020               	movlb	0	; select bank0
  2766     018B  0868               	movf	?___fltol,w
  2767     018C  0021               	movlb	1	; select bank1
  2768     018D  00C2               	movwf	_Temperature^(0+128)
  2769     018E                     l2485:
  2770                           
  2771                           ;GXHT30.c: 210:  Humidity = (int)((100.0 * (float)hum /65535.0) * 10);
  2772     018E  0827               	movf	GXHT30_read_result@hum^(0+128),w
  2773     018F  00F0               	movwf	___xxtofl@val
  2774     0190  0828               	movf	(GXHT30_read_result@hum+1)^(0+128),w
  2775     0191  00F1               	movwf	___xxtofl@val+1
  2776     0192  01F2               	clrf	___xxtofl@val+2
  2777     0193  01F3               	clrf	___xxtofl@val+3
  2778     0194  3000               	movlw	0
  2779     0195  318F  2756  3180   	fcall	___xxtofl
  2780     0198  0873               	movf	?___xxtofl+3,w
  2781     0199  0020               	movlb	0	; select bank0
  2782     019A  00A7               	movwf	___flmul@a+3
  2783     019B  0872               	movf	?___xxtofl+2,w
  2784     019C  00A6               	movwf	___flmul@a+2
  2785     019D  0871               	movf	?___xxtofl+1,w
  2786     019E  00A5               	movwf	___flmul@a+1
  2787     019F  0870               	movf	?___xxtofl,w
  2788     01A0  00A4               	movwf	___flmul@a
  2789     01A1  3042               	movlw	66
  2790     01A2  00A3               	movwf	___flmul@b+3
  2791     01A3  30C8               	movlw	200
  2792     01A4  00A2               	movwf	___flmul@b+2
  2793     01A5  3000               	movlw	0
  2794     01A6  00A1               	movwf	___flmul@b+1
  2795     01A7  3000               	movlw	0
  2796     01A8  00A0               	movwf	___flmul@b
  2797     01A9  3185  25BA  3180   	fcall	___flmul
  2798     01AC  0020               	movlb	0	; select bank0
  2799     01AD  0823               	movf	?___flmul+3,w
  2800     01AE  00C1               	movwf	___fldiv@b+3
  2801     01AF  0822               	movf	?___flmul+2,w
  2802     01B0  00C0               	movwf	___fldiv@b+2
  2803     01B1  0821               	movf	?___flmul+1,w
  2804     01B2  00BF               	movwf	___fldiv@b+1
  2805     01B3  0820               	movf	?___flmul,w
  2806     01B4  00BE               	movwf	___fldiv@b
  2807     01B5  3047               	movlw	71
  2808     01B6  00BD               	movwf	___fldiv@a+3
  2809     01B7  307F               	movlw	127
  2810     01B8  00BC               	movwf	___fldiv@a+2
  2811     01B9  30FF               	movlw	255
  2812     01BA  00BB               	movwf	___fldiv@a+1
  2813     01BB  3000               	movlw	0
  2814     01BC  00BA               	movwf	___fldiv@a
  2815     01BD  3182  2208  3180   	fcall	___fldiv
  2816     01C0  0020               	movlb	0	; select bank0
  2817     01C1  083D               	movf	?___fldiv+3,w
  2818     01C2  0021               	movlb	1	; select bank1
  2819     01C3  00B8               	movwf	(_GXHT30_read_result$964+3)^(0+128)
  2820     01C4  0020               	movlb	0	; select bank0
  2821     01C5  083C               	movf	?___fldiv+2,w
  2822     01C6  0021               	movlb	1	; select bank1
  2823     01C7  00B7               	movwf	(_GXHT30_read_result$964+2)^(0+128)
  2824     01C8  0020               	movlb	0	; select bank0
  2825     01C9  083B               	movf	?___fldiv+1,w
  2826     01CA  0021               	movlb	1	; select bank1
  2827     01CB  00B6               	movwf	(_GXHT30_read_result$964+1)^(0+128)
  2828     01CC  0020               	movlb	0	; select bank0
  2829     01CD  083A               	movf	?___fldiv,w
  2830     01CE  0021               	movlb	1	; select bank1
  2831     01CF  00B5               	movwf	_GXHT30_read_result$964^(0+128)
  2832     01D0                     l2487:
  2833                           
  2834                           ;GXHT30.c: 210:  Humidity = (int)((100.0 * (float)hum /65535.0) * 10);
  2835     01D0  0838               	movf	(_GXHT30_read_result$964+3)^(0+128),w
  2836     01D1  0020               	movlb	0	; select bank0
  2837     01D2  00A7               	movwf	___flmul@a+3
  2838     01D3  0021               	movlb	1	; select bank1
  2839     01D4  0837               	movf	(_GXHT30_read_result$964+2)^(0+128),w
  2840     01D5  0020               	movlb	0	; select bank0
  2841     01D6  00A6               	movwf	___flmul@a+2
  2842     01D7  0021               	movlb	1	; select bank1
  2843     01D8  0836               	movf	(_GXHT30_read_result$964+1)^(0+128),w
  2844     01D9  0020               	movlb	0	; select bank0
  2845     01DA  00A5               	movwf	___flmul@a+1
  2846     01DB  0021               	movlb	1	; select bank1
  2847     01DC  0835               	movf	_GXHT30_read_result$964^(0+128),w
  2848     01DD  0020               	movlb	0	; select bank0
  2849     01DE  00A4               	movwf	___flmul@a
  2850     01DF  3041               	movlw	65
  2851     01E0  00A3               	movwf	___flmul@b+3
  2852     01E1  3020               	movlw	32
  2853     01E2  00A2               	movwf	___flmul@b+2
  2854     01E3  3000               	movlw	0
  2855     01E4  00A1               	movwf	___flmul@b+1
  2856     01E5  3000               	movlw	0
  2857     01E6  00A0               	movwf	___flmul@b
  2858     01E7  3185  25BA  3180   	fcall	___flmul
  2859     01EA  0020               	movlb	0	; select bank0
  2860     01EB  0823               	movf	?___flmul+3,w
  2861     01EC  00EB               	movwf	___fltol@f1+3
  2862     01ED  0822               	movf	?___flmul+2,w
  2863     01EE  00EA               	movwf	___fltol@f1+2
  2864     01EF  0821               	movf	?___flmul+1,w
  2865     01F0  00E9               	movwf	___fltol@f1+1
  2866     01F1  0820               	movf	?___flmul,w
  2867     01F2  00E8               	movwf	___fltol@f1
  2868     01F3  318E  26DA  3180   	fcall	___fltol
  2869     01F6  0020               	movlb	0	; select bank0
  2870     01F7  0869               	movf	?___fltol+1,w
  2871     01F8  0021               	movlb	1	; select bank1
  2872     01F9  00C1               	movwf	(_Humidity+1)^(0+128)
  2873     01FA  0020               	movlb	0	; select bank0
  2874     01FB  0868               	movf	?___fltol,w
  2875     01FC  0021               	movlb	1	; select bank1
  2876     01FD  00C0               	movwf	_Humidity^(0+128)
  2877     01FE                     l2489:
  2878     01FE                     l2491:
  2879                           
  2880                           ;GXHT30.c: 215:  _delay((unsigned long)((1)*(8000000/4000.0)));
  2881     01FE  3003               	movlw	3
  2882     01FF  0021               	movlb	1	; select bank1
  2883     0200  00A2               	movwf	??_GXHT30_read_result^(0+128)
  2884     0201  3097               	movlw	151
  2885     0202                     u3627:
  2886     0202  0B89               	decfsz	9,f
  2887     0203  2A02               	goto	u3627
  2888     0204  0BA2               	decfsz	??_GXHT30_read_result^(0+128),f
  2889     0205  2A02               	goto	u3627
  2890     0206  3200               	nop2
  2891     0207                     l185:
  2892     0207  0008               	return
  2893     0208                     __end_of_GXHT30_read_result:
  2894                           
  2895                           	psect	text11
  2896     0F56                     __ptext11:	
  2897 ;; *************** function ___xxtofl *****************
  2898 ;; Defined at:
  2899 ;;		line 10 in file "C:\XC8\pic\sources\c99\common\xxtofl.c"
  2900 ;; Parameters:    Size  Location     Type
  2901 ;;  sign            1    wreg     unsigned char 
  2902 ;;  val             4    0[COMMON] long 
  2903 ;; Auto vars:     Size  Location     Type
  2904 ;;  sign            1    8[COMMON] unsigned char 
  2905 ;;  arg             4   10[COMMON] unsigned long 
  2906 ;;  exp             1    9[COMMON] unsigned char 
  2907 ;; Return value:  Size  Location     Type
  2908 ;;                  4    0[COMMON] unsigned char 
  2909 ;; Registers used:
  2910 ;;		wreg, status,2, status,0
  2911 ;; Tracked objects:
  2912 ;;		On entry : 0/0
  2913 ;;		On exit  : 0/0
  2914 ;;		Unchanged: 0/0
  2915 ;; Data sizes:     COMMON   BANK0   BANK1   BANK2
  2916 ;;      Params:         4       0       0       0
  2917 ;;      Locals:         6       0       0       0
  2918 ;;      Temps:          4       0       0       0
  2919 ;;      Totals:        14       0       0       0
  2920 ;;Total ram usage:       14 bytes
  2921 ;; Hardware stack levels used: 1
  2922 ;; This function calls:
  2923 ;;		Nothing
  2924 ;; This function is called by:
  2925 ;;		_GXHT30_read_result
  2926 ;; This function uses a non-reentrant model
  2927 ;;
  2928                           
  2929     0F56                     ___xxtofl:	
  2930                           ;psect for function ___xxtofl
  2931                           
  2932                           
  2933                           ;incstack = 0
  2934                           ; Regs used in ___xxtofl: [wreg+status,2+status,0]
  2935                           ;___xxtofl@sign stored from wreg
  2936     0F56  00F8               	movwf	___xxtofl@sign
  2937     0F57                     l2391:
  2938     0F57  0878               	movf	___xxtofl@sign,w
  2939     0F58  1903               	btfsc	3,2
  2940     0F59  2F5B               	goto	u3131
  2941     0F5A  2F5C               	goto	u3130
  2942     0F5B                     u3131:
  2943     0F5B  2F70               	goto	l2397
  2944     0F5C                     u3130:
  2945     0F5C                     l2393:
  2946     0F5C  1FF3               	btfss	___xxtofl@val+3,7
  2947     0F5D  2F5F               	goto	u3141
  2948     0F5E  2F60               	goto	u3140
  2949     0F5F                     u3141:
  2950     0F5F  2F70               	goto	l2397
  2951     0F60                     u3140:
  2952     0F60                     l2395:
  2953     0F60  0970               	comf	___xxtofl@val,w
  2954     0F61  00FA               	movwf	___xxtofl@arg
  2955     0F62  0971               	comf	___xxtofl@val+1,w
  2956     0F63  00FB               	movwf	___xxtofl@arg+1
  2957     0F64  0972               	comf	___xxtofl@val+2,w
  2958     0F65  00FC               	movwf	___xxtofl@arg+2
  2959     0F66  0973               	comf	___xxtofl@val+3,w
  2960     0F67  00FD               	movwf	___xxtofl@arg+3
  2961     0F68  0AFA               	incf	___xxtofl@arg,f
  2962     0F69  1903               	skipnz
  2963     0F6A  0AFB               	incf	___xxtofl@arg+1,f
  2964     0F6B  1903               	skipnz
  2965     0F6C  0AFC               	incf	___xxtofl@arg+2,f
  2966     0F6D  1903               	skipnz
  2967     0F6E  0AFD               	incf	___xxtofl@arg+3,f
  2968     0F6F  2F78               	goto	l782
  2969     0F70                     l2397:
  2970     0F70  0873               	movf	___xxtofl@val+3,w
  2971     0F71  00FD               	movwf	___xxtofl@arg+3
  2972     0F72  0872               	movf	___xxtofl@val+2,w
  2973     0F73  00FC               	movwf	___xxtofl@arg+2
  2974     0F74  0871               	movf	___xxtofl@val+1,w
  2975     0F75  00FB               	movwf	___xxtofl@arg+1
  2976     0F76  0870               	movf	___xxtofl@val,w
  2977     0F77  00FA               	movwf	___xxtofl@arg
  2978     0F78                     l782:
  2979     0F78  0873               	movf	___xxtofl@val+3,w
  2980     0F79  0472               	iorwf	___xxtofl@val+2,w
  2981     0F7A  0471               	iorwf	___xxtofl@val+1,w
  2982     0F7B  0470               	iorwf	___xxtofl@val,w
  2983     0F7C  1D03               	skipz
  2984     0F7D  2F7F               	goto	u3151
  2985     0F7E  2F80               	goto	u3150
  2986     0F7F                     u3151:
  2987     0F7F  2F89               	goto	l2403
  2988     0F80                     u3150:
  2989     0F80                     l2399:
  2990     0F80  3000               	movlw	0
  2991     0F81  00F3               	movwf	?___xxtofl+3
  2992     0F82  3000               	movlw	0
  2993     0F83  00F2               	movwf	?___xxtofl+2
  2994     0F84  3000               	movlw	0
  2995     0F85  00F1               	movwf	?___xxtofl+1
  2996     0F86  3000               	movlw	0
  2997     0F87  00F0               	movwf	?___xxtofl
  2998     0F88  2FFF               	goto	l784
  2999     0F89                     l2403:
  3000     0F89  3096               	movlw	150
  3001     0F8A  00F9               	movwf	___xxtofl@exp
  3002     0F8B  2F97               	goto	l2407
  3003     0F8C                     l2405:
  3004     0F8C  3001               	movlw	1
  3005     0F8D  00F4               	movwf	??___xxtofl
  3006     0F8E  0874               	movf	??___xxtofl,w
  3007     0F8F  07F9               	addwf	___xxtofl@exp,f
  3008     0F90  3001               	movlw	1
  3009     0F91                     u3165:
  3010     0F91  36FD               	lsrf	___xxtofl@arg+3,f
  3011     0F92  0CFC               	rrf	___xxtofl@arg+2,f
  3012     0F93  0CFB               	rrf	___xxtofl@arg+1,f
  3013     0F94  0CFA               	rrf	___xxtofl@arg,f
  3014     0F95  0B89               	decfsz	9,f
  3015     0F96  2F91               	goto	u3165
  3016     0F97                     l2407:
  3017     0F97  30FE               	movlw	254
  3018     0F98  057D               	andwf	___xxtofl@arg+3,w
  3019     0F99  1D03               	btfss	3,2
  3020     0F9A  2F9C               	goto	u3171
  3021     0F9B  2F9D               	goto	u3170
  3022     0F9C                     u3171:
  3023     0F9C  2F8C               	goto	l2405
  3024     0F9D                     u3170:
  3025     0F9D  2FB1               	goto	l788
  3026     0F9E                     l2409:
  3027     0F9E  3001               	movlw	1
  3028     0F9F  00F4               	movwf	??___xxtofl
  3029     0FA0  0874               	movf	??___xxtofl,w
  3030     0FA1  07F9               	addwf	___xxtofl@exp,f
  3031     0FA2                     l2411:
  3032     0FA2  3001               	movlw	1
  3033     0FA3  07FA               	addwf	___xxtofl@arg,f
  3034     0FA4  3000               	movlw	0
  3035     0FA5  3DFB               	addwfc	___xxtofl@arg+1,f
  3036     0FA6  3000               	movlw	0
  3037     0FA7  3DFC               	addwfc	___xxtofl@arg+2,f
  3038     0FA8  3000               	movlw	0
  3039     0FA9  3DFD               	addwfc	___xxtofl@arg+3,f
  3040     0FAA                     l2413:
  3041     0FAA  3001               	movlw	1
  3042     0FAB                     u3185:
  3043     0FAB  36FD               	lsrf	___xxtofl@arg+3,f
  3044     0FAC  0CFC               	rrf	___xxtofl@arg+2,f
  3045     0FAD  0CFB               	rrf	___xxtofl@arg+1,f
  3046     0FAE  0CFA               	rrf	___xxtofl@arg,f
  3047     0FAF  0B89               	decfsz	9,f
  3048     0FB0  2FAB               	goto	u3185
  3049     0FB1                     l788:
  3050     0FB1  30FF               	movlw	255
  3051     0FB2  057D               	andwf	___xxtofl@arg+3,w
  3052     0FB3  1D03               	btfss	3,2
  3053     0FB4  2FB6               	goto	u3191
  3054     0FB5  2FB7               	goto	u3190
  3055     0FB6                     u3191:
  3056     0FB6  2F9E               	goto	l2409
  3057     0FB7                     u3190:
  3058     0FB7  2FC1               	goto	l2417
  3059     0FB8                     l2415:
  3060     0FB8  3001               	movlw	1
  3061     0FB9  02F9               	subwf	___xxtofl@exp,f
  3062     0FBA  3001               	movlw	1
  3063     0FBB                     u3205:
  3064     0FBB  35FA               	lslf	___xxtofl@arg,f
  3065     0FBC  0DFB               	rlf	___xxtofl@arg+1,f
  3066     0FBD  0DFC               	rlf	___xxtofl@arg+2,f
  3067     0FBE  0DFD               	rlf	___xxtofl@arg+3,f
  3068     0FBF  0B89               	decfsz	9,f
  3069     0FC0  2FBB               	goto	u3205
  3070     0FC1                     l2417:
  3071     0FC1  1BFC               	btfsc	___xxtofl@arg+2,7
  3072     0FC2  2FC4               	goto	u3211
  3073     0FC3  2FC5               	goto	u3210
  3074     0FC4                     u3211:
  3075     0FC4  2FCB               	goto	l795
  3076     0FC5                     u3210:
  3077     0FC5                     l2419:
  3078     0FC5  3002               	movlw	2
  3079     0FC6  0279               	subwf	___xxtofl@exp,w
  3080     0FC7  1803               	skipnc
  3081     0FC8  2FCA               	goto	u3221
  3082     0FC9  2FCB               	goto	u3220
  3083     0FCA                     u3221:
  3084     0FCA  2FB8               	goto	l2415
  3085     0FCB                     u3220:
  3086     0FCB                     l795:
  3087     0FCB  1879               	btfsc	___xxtofl@exp,0
  3088     0FCC  2FCE               	goto	u3231
  3089     0FCD  2FCF               	goto	u3230
  3090     0FCE                     u3231:
  3091     0FCE  2FD7               	goto	l796
  3092     0FCF                     u3230:
  3093     0FCF                     l2421:
  3094     0FCF  30FF               	movlw	255
  3095     0FD0  05FA               	andwf	___xxtofl@arg,f
  3096     0FD1  30FF               	movlw	255
  3097     0FD2  05FB               	andwf	___xxtofl@arg+1,f
  3098     0FD3  307F               	movlw	127
  3099     0FD4  05FC               	andwf	___xxtofl@arg+2,f
  3100     0FD5  30FF               	movlw	255
  3101     0FD6  05FD               	andwf	___xxtofl@arg+3,f
  3102     0FD7                     l796:
  3103     0FD7  1003               	clrc
  3104     0FD8  0CF9               	rrf	___xxtofl@exp,f
  3105     0FD9                     l2423:
  3106     0FD9  0879               	movf	___xxtofl@exp,w
  3107     0FDA  00F4               	movwf	??___xxtofl
  3108     0FDB  01F5               	clrf	??___xxtofl+1
  3109     0FDC  01F6               	clrf	??___xxtofl+2
  3110     0FDD  01F7               	clrf	??___xxtofl+3
  3111     0FDE  3018               	movlw	24
  3112     0FDF                     u3245:
  3113     0FDF  35F4               	lslf	??___xxtofl,f
  3114     0FE0  0DF5               	rlf	??___xxtofl+1,f
  3115     0FE1  0DF6               	rlf	??___xxtofl+2,f
  3116     0FE2  0DF7               	rlf	??___xxtofl+3,f
  3117     0FE3                     u3240:
  3118     0FE3  0B89               	decfsz	9,f
  3119     0FE4  2FDF               	goto	u3245
  3120     0FE5  0874               	movf	??___xxtofl,w
  3121     0FE6  04FA               	iorwf	___xxtofl@arg,f
  3122     0FE7  0875               	movf	??___xxtofl+1,w
  3123     0FE8  04FB               	iorwf	___xxtofl@arg+1,f
  3124     0FE9  0876               	movf	??___xxtofl+2,w
  3125     0FEA  04FC               	iorwf	___xxtofl@arg+2,f
  3126     0FEB  0877               	movf	??___xxtofl+3,w
  3127     0FEC  04FD               	iorwf	___xxtofl@arg+3,f
  3128     0FED                     l2425:
  3129     0FED  0878               	movf	___xxtofl@sign,w
  3130     0FEE  1903               	btfsc	3,2
  3131     0FEF  2FF1               	goto	u3251
  3132     0FF0  2FF2               	goto	u3250
  3133     0FF1                     u3251:
  3134     0FF1  2FF7               	goto	l2431
  3135     0FF2                     u3250:
  3136     0FF2                     l2427:
  3137     0FF2  1FF3               	btfss	___xxtofl@val+3,7
  3138     0FF3  2FF5               	goto	u3261
  3139     0FF4  2FF6               	goto	u3260
  3140     0FF5                     u3261:
  3141     0FF5  2FF7               	goto	l2431
  3142     0FF6                     u3260:
  3143     0FF6                     l2429:
  3144     0FF6  17FD               	bsf	___xxtofl@arg+3,7
  3145     0FF7                     l2431:
  3146     0FF7  087D               	movf	___xxtofl@arg+3,w
  3147     0FF8  00F3               	movwf	?___xxtofl+3
  3148     0FF9  087C               	movf	___xxtofl@arg+2,w
  3149     0FFA  00F2               	movwf	?___xxtofl+2
  3150     0FFB  087B               	movf	___xxtofl@arg+1,w
  3151     0FFC  00F1               	movwf	?___xxtofl+1
  3152     0FFD  087A               	movf	___xxtofl@arg,w
  3153     0FFE  00F0               	movwf	?___xxtofl
  3154     0FFF                     l784:
  3155     0FFF  0008               	return
  3156     1000                     __end_of___xxtofl:
  3157                           
  3158                           	psect	text12
  3159     0EDA                     __ptext12:	
  3160 ;; *************** function ___fltol *****************
  3161 ;; Defined at:
  3162 ;;		line 43 in file "C:\XC8\pic\sources\c99\common\fltol.c"
  3163 ;; Parameters:    Size  Location     Type
  3164 ;;  f1              4   72[BANK0 ] unsigned char 
  3165 ;; Auto vars:     Size  Location     Type
  3166 ;;  exp1            1    1[BANK1 ] unsigned char 
  3167 ;;  sign1           1    0[BANK1 ] unsigned char 
  3168 ;; Return value:  Size  Location     Type
  3169 ;;                  4   72[BANK0 ] long 
  3170 ;; Registers used:
  3171 ;;		wreg, status,2, status,0
  3172 ;; Tracked objects:
  3173 ;;		On entry : 0/0
  3174 ;;		On exit  : 0/0
  3175 ;;		Unchanged: 0/0
  3176 ;; Data sizes:     COMMON   BANK0   BANK1   BANK2
  3177 ;;      Params:         0       4       0       0
  3178 ;;      Locals:         0       0       2       0
  3179 ;;      Temps:          0       4       0       0
  3180 ;;      Totals:         0       8       2       0
  3181 ;;Total ram usage:       10 bytes
  3182 ;; Hardware stack levels used: 1
  3183 ;; This function calls:
  3184 ;;		Nothing
  3185 ;; This function is called by:
  3186 ;;		_GXHT30_read_result
  3187 ;; This function uses a non-reentrant model
  3188 ;;
  3189                           
  3190     0EDA                     ___fltol:	
  3191                           ;psect for function ___fltol
  3192                           
  3193     0EDA                     l1881:	
  3194                           ;incstack = 0
  3195                           ; Regs used in ___fltol: [wreg+status,2+status,0]
  3196                           
  3197     0EDA  1003               	clrc
  3198     0EDB  0020               	movlb	0	; select bank0
  3199     0EDC  0D6A               	rlf	___fltol@f1+2,w
  3200     0EDD  0D6B               	rlf	___fltol@f1+3,w
  3201     0EDE  0021               	movlb	1	; select bank1
  3202     0EDF  00A1               	movwf	___fltol@exp1^(0+128)
  3203     0EE0  0821               	movf	___fltol@exp1^(0+128),w
  3204     0EE1  1D03               	btfss	3,2
  3205     0EE2  2EE4               	goto	u2051
  3206     0EE3  2EE5               	goto	u2050
  3207     0EE4                     u2051:
  3208     0EE4  2EEF               	goto	l1887
  3209     0EE5                     u2050:
  3210     0EE5                     l1883:
  3211     0EE5  3000               	movlw	0
  3212     0EE6  0020               	movlb	0	; select bank0
  3213     0EE7  00EB               	movwf	?___fltol+3
  3214     0EE8  3000               	movlw	0
  3215     0EE9  00EA               	movwf	?___fltol+2
  3216     0EEA  3000               	movlw	0
  3217     0EEB  00E9               	movwf	?___fltol+1
  3218     0EEC  3000               	movlw	0
  3219     0EED  00E8               	movwf	?___fltol
  3220     0EEE  2F55               	goto	l535
  3221     0EEF                     l1887:
  3222     0EEF  0020               	movlb	0	; select bank0
  3223     0EF0  0868               	movf	___fltol@f1,w
  3224     0EF1  00EC               	movwf	??___fltol
  3225     0EF2  0869               	movf	___fltol@f1+1,w
  3226     0EF3  00ED               	movwf	??___fltol+1
  3227     0EF4  086A               	movf	___fltol@f1+2,w
  3228     0EF5  00EE               	movwf	??___fltol+2
  3229     0EF6  086B               	movf	___fltol@f1+3,w
  3230     0EF7  00EF               	movwf	??___fltol+3
  3231     0EF8  301F               	movlw	31
  3232     0EF9                     u2065:
  3233     0EF9  36EF               	lsrf	??___fltol+3,f
  3234     0EFA  0CEE               	rrf	??___fltol+2,f
  3235     0EFB  0CED               	rrf	??___fltol+1,f
  3236     0EFC  0CEC               	rrf	??___fltol,f
  3237     0EFD                     u2060:
  3238     0EFD  0B89               	decfsz	9,f
  3239     0EFE  2EF9               	goto	u2065
  3240     0EFF  086C               	movf	??___fltol,w
  3241     0F00  0021               	movlb	1	; select bank1
  3242     0F01  00A0               	movwf	___fltol@sign1^(0+128)
  3243     0F02                     l1889:
  3244     0F02  0020               	movlb	0	; select bank0
  3245     0F03  17EA               	bsf	___fltol@f1+2,7
  3246     0F04                     l1891:
  3247     0F04  30FF               	movlw	255
  3248     0F05  05E8               	andwf	___fltol@f1,f
  3249     0F06  30FF               	movlw	255
  3250     0F07  05E9               	andwf	___fltol@f1+1,f
  3251     0F08  30FF               	movlw	255
  3252     0F09  05EA               	andwf	___fltol@f1+2,f
  3253     0F0A  3000               	movlw	0
  3254     0F0B  05EB               	andwf	___fltol@f1+3,f
  3255     0F0C                     l1893:
  3256     0F0C  3096               	movlw	150
  3257     0F0D  0021               	movlb	1	; select bank1
  3258     0F0E  02A1               	subwf	___fltol@exp1^(0+128),f
  3259     0F0F                     l1895:
  3260     0F0F  1FA1               	btfss	___fltol@exp1^(0+128),7
  3261     0F10  2F12               	goto	u2071
  3262     0F11  2F13               	goto	u2070
  3263     0F12                     u2071:
  3264     0F12  2F2D               	goto	l1905
  3265     0F13                     u2070:
  3266     0F13                     l1897:
  3267     0F13  0821               	movf	___fltol@exp1^(0+128),w
  3268     0F14  3A80               	xorlw	128
  3269     0F15  3E97               	addlw	151
  3270     0F16  1803               	skipnc
  3271     0F17  2F19               	goto	u2081
  3272     0F18  2F1A               	goto	u2080
  3273     0F19                     u2081:
  3274     0F19  2F1B               	goto	l1903
  3275     0F1A                     u2080:
  3276     0F1A  2EE5               	goto	l1883
  3277     0F1B                     l1903:
  3278     0F1B  3001               	movlw	1
  3279     0F1C                     u2095:
  3280     0F1C  0020               	movlb	0	; select bank0
  3281     0F1D  36EB               	lsrf	___fltol@f1+3,f
  3282     0F1E  0CEA               	rrf	___fltol@f1+2,f
  3283     0F1F  0CE9               	rrf	___fltol@f1+1,f
  3284     0F20  0CE8               	rrf	___fltol@f1,f
  3285     0F21  0B89               	decfsz	9,f
  3286     0F22  2F1C               	goto	u2095
  3287     0F23  3001               	movlw	1
  3288     0F24  00EC               	movwf	??___fltol
  3289     0F25  086C               	movf	??___fltol,w
  3290     0F26  0021               	movlb	1	; select bank1
  3291     0F27  07A1               	addwf	___fltol@exp1^(0+128),f
  3292     0F28  1D03               	btfss	3,2
  3293     0F29  2F2B               	goto	u2101
  3294     0F2A  2F2C               	goto	u2100
  3295     0F2B                     u2101:
  3296     0F2B  2F1B               	goto	l1903
  3297     0F2C                     u2100:
  3298     0F2C  2F44               	goto	l1913
  3299     0F2D                     l1905:
  3300     0F2D  3020               	movlw	32
  3301     0F2E  0221               	subwf	___fltol@exp1^(0+128),w
  3302     0F2F  1C03               	skipc
  3303     0F30  2F32               	goto	u2111
  3304     0F31  2F33               	goto	u2110
  3305     0F32                     u2111:
  3306     0F32  2F3F               	goto	l542
  3307     0F33                     u2110:
  3308     0F33  2EE5               	goto	l1883
  3309     0F34                     l1911:
  3310     0F34  3001               	movlw	1
  3311     0F35                     u2125:
  3312     0F35  0020               	movlb	0	; select bank0
  3313     0F36  35E8               	lslf	___fltol@f1,f
  3314     0F37  0DE9               	rlf	___fltol@f1+1,f
  3315     0F38  0DEA               	rlf	___fltol@f1+2,f
  3316     0F39  0DEB               	rlf	___fltol@f1+3,f
  3317     0F3A  0B89               	decfsz	9,f
  3318     0F3B  2F35               	goto	u2125
  3319     0F3C  3001               	movlw	1
  3320     0F3D  0021               	movlb	1	; select bank1
  3321     0F3E  02A1               	subwf	___fltol@exp1^(0+128),f
  3322     0F3F                     l542:
  3323     0F3F  0821               	movf	___fltol@exp1^(0+128),w
  3324     0F40  1D03               	btfss	3,2
  3325     0F41  2F43               	goto	u2131
  3326     0F42  2F44               	goto	u2130
  3327     0F43                     u2131:
  3328     0F43  2F34               	goto	l1911
  3329     0F44                     u2130:
  3330     0F44                     l1913:
  3331     0F44  0820               	movf	___fltol@sign1^(0+128),w
  3332     0F45  1903               	btfsc	3,2
  3333     0F46  2F48               	goto	u2141
  3334     0F47  2F49               	goto	u2140
  3335     0F48                     u2141:
  3336     0F48  2F55               	goto	l545
  3337     0F49                     u2140:
  3338     0F49                     l1915:
  3339     0F49  0020               	movlb	0	; select bank0
  3340     0F4A  09E8               	comf	___fltol@f1,f
  3341     0F4B  09E9               	comf	___fltol@f1+1,f
  3342     0F4C  09EA               	comf	___fltol@f1+2,f
  3343     0F4D  09EB               	comf	___fltol@f1+3,f
  3344     0F4E  0AE8               	incf	___fltol@f1,f
  3345     0F4F  1903               	skipnz
  3346     0F50  0AE9               	incf	___fltol@f1+1,f
  3347     0F51  1903               	skipnz
  3348     0F52  0AEA               	incf	___fltol@f1+2,f
  3349     0F53  1903               	skipnz
  3350     0F54  0AEB               	incf	___fltol@f1+3,f
  3351     0F55                     l545:
  3352     0F55                     l535:
  3353     0F55  0008               	return
  3354     0F56                     __end_of___fltol:
  3355                           
  3356                           	psect	text13
  3357     05BA                     __ptext13:	
  3358 ;; *************** function ___flmul *****************
  3359 ;; Defined at:
  3360 ;;		line 8 in file "C:\XC8\pic\sources\c99\common\sprcmul.c"
  3361 ;; Parameters:    Size  Location     Type
  3362 ;;  b               4    0[BANK0 ] long 
  3363 ;;  a               4    4[BANK0 ] long 
  3364 ;; Auto vars:     Size  Location     Type
  3365 ;;  prod            4   20[BANK0 ] struct .
  3366 ;;  grs             4   14[BANK0 ] unsigned long 
  3367 ;;  temp            2   24[BANK0 ] struct .
  3368 ;;  bexp            1   19[BANK0 ] unsigned char 
  3369 ;;  aexp            1   18[BANK0 ] unsigned char 
  3370 ;;  sign            1   13[BANK0 ] unsigned char 
  3371 ;; Return value:  Size  Location     Type
  3372 ;;                  4    0[BANK0 ] unsigned char 
  3373 ;; Registers used:
  3374 ;;		wreg, status,2, status,0, pclath, cstack
  3375 ;; Tracked objects:
  3376 ;;		On entry : 0/0
  3377 ;;		On exit  : 0/0
  3378 ;;		Unchanged: 0/0
  3379 ;; Data sizes:     COMMON   BANK0   BANK1   BANK2
  3380 ;;      Params:         0       8       0       0
  3381 ;;      Locals:         0      13       0       0
  3382 ;;      Temps:          0       5       0       0
  3383 ;;      Totals:         0      26       0       0
  3384 ;;Total ram usage:       26 bytes
  3385 ;; Hardware stack levels used: 1
  3386 ;; Hardware stack levels required when called: 1
  3387 ;; This function calls:
  3388 ;;		__Umul8_16
  3389 ;; This function is called by:
  3390 ;;		_GXHT30_read_result
  3391 ;; This function uses a non-reentrant model
  3392 ;;
  3393                           
  3394     05BA                     ___flmul:	
  3395                           ;psect for function ___flmul
  3396                           
  3397     05BA                     l2251:	
  3398                           ;incstack = 0
  3399                           ; Regs used in ___flmul: [wreg+status,2+status,0+pclath+cstack]
  3400                           
  3401     05BA  0020               	movlb	0	; select bank0
  3402     05BB  0823               	movf	___flmul@b+3,w
  3403     05BC  3980               	andlw	128
  3404     05BD  00AD               	movwf	___flmul@sign
  3405     05BE                     l2253:
  3406     05BE  3523               	lslf	___flmul@b+3,w
  3407     05BF  00B3               	movwf	___flmul@bexp
  3408     05C0                     l2255:
  3409     05C0  1FA2               	btfss	___flmul@b+2,7
  3410     05C1  2DC3               	goto	u2871
  3411     05C2  2DC4               	goto	u2870
  3412     05C3                     u2871:
  3413     05C3  2DC5               	goto	l2259
  3414     05C4                     u2870:
  3415     05C4                     l2257:
  3416     05C4  1433               	bsf	___flmul@bexp,0
  3417     05C5                     l2259:
  3418     05C5  0833               	movf	___flmul@bexp,w
  3419     05C6  1903               	btfsc	3,2
  3420     05C7  2DC9               	goto	u2881
  3421     05C8  2DCA               	goto	u2880
  3422     05C9                     u2881:
  3423     05C9  2DD9               	goto	l2267
  3424     05CA                     u2880:
  3425     05CA                     l2261:
  3426     05CA  0A33               	incf	___flmul@bexp,w
  3427     05CB  1D03               	btfss	3,2
  3428     05CC  2DCE               	goto	u2891
  3429     05CD  2DCF               	goto	u2890
  3430     05CE                     u2891:
  3431     05CE  2DD7               	goto	l2265
  3432     05CF                     u2890:
  3433     05CF                     l2263:
  3434     05CF  3000               	movlw	0
  3435     05D0  00A3               	movwf	___flmul@b+3
  3436     05D1  3000               	movlw	0
  3437     05D2  00A2               	movwf	___flmul@b+2
  3438     05D3  3000               	movlw	0
  3439     05D4  00A1               	movwf	___flmul@b+1
  3440     05D5  3000               	movlw	0
  3441     05D6  00A0               	movwf	___flmul@b
  3442     05D7                     l2265:
  3443     05D7  17A2               	bsf	___flmul@b+2,7
  3444     05D8  2DE1               	goto	l2269
  3445     05D9                     l2267:
  3446     05D9  3000               	movlw	0
  3447     05DA  00A3               	movwf	___flmul@b+3
  3448     05DB  3000               	movlw	0
  3449     05DC  00A2               	movwf	___flmul@b+2
  3450     05DD  3000               	movlw	0
  3451     05DE  00A1               	movwf	___flmul@b+1
  3452     05DF  3000               	movlw	0
  3453     05E0  00A0               	movwf	___flmul@b
  3454     05E1                     l2269:
  3455     05E1  0827               	movf	___flmul@a+3,w
  3456     05E2  3980               	andlw	128
  3457     05E3  00A8               	movwf	??___flmul
  3458     05E4  0828               	movf	??___flmul,w
  3459     05E5  06AD               	xorwf	___flmul@sign,f
  3460     05E6                     l2271:
  3461     05E6  3527               	lslf	___flmul@a+3,w
  3462     05E7  00B2               	movwf	___flmul@aexp
  3463     05E8                     l2273:
  3464     05E8  1FA6               	btfss	___flmul@a+2,7
  3465     05E9  2DEB               	goto	u2901
  3466     05EA  2DEC               	goto	u2900
  3467     05EB                     u2901:
  3468     05EB  2DED               	goto	l2277
  3469     05EC                     u2900:
  3470     05EC                     l2275:
  3471     05EC  1432               	bsf	___flmul@aexp,0
  3472     05ED                     l2277:
  3473     05ED  0832               	movf	___flmul@aexp,w
  3474     05EE  1903               	btfsc	3,2
  3475     05EF  2DF1               	goto	u2911
  3476     05F0  2DF2               	goto	u2910
  3477     05F1                     u2911:
  3478     05F1  2E01               	goto	l2285
  3479     05F2                     u2910:
  3480     05F2                     l2279:
  3481     05F2  0A32               	incf	___flmul@aexp,w
  3482     05F3  1D03               	btfss	3,2
  3483     05F4  2DF6               	goto	u2921
  3484     05F5  2DF7               	goto	u2920
  3485     05F6                     u2921:
  3486     05F6  2DFF               	goto	l2283
  3487     05F7                     u2920:
  3488     05F7                     l2281:
  3489     05F7  3000               	movlw	0
  3490     05F8  00A7               	movwf	___flmul@a+3
  3491     05F9  3000               	movlw	0
  3492     05FA  00A6               	movwf	___flmul@a+2
  3493     05FB  3000               	movlw	0
  3494     05FC  00A5               	movwf	___flmul@a+1
  3495     05FD  3000               	movlw	0
  3496     05FE  00A4               	movwf	___flmul@a
  3497     05FF                     l2283:
  3498     05FF  17A6               	bsf	___flmul@a+2,7
  3499     0600  2E09               	goto	l2287
  3500     0601                     l2285:
  3501     0601  3000               	movlw	0
  3502     0602  00A7               	movwf	___flmul@a+3
  3503     0603  3000               	movlw	0
  3504     0604  00A6               	movwf	___flmul@a+2
  3505     0605  3000               	movlw	0
  3506     0606  00A5               	movwf	___flmul@a+1
  3507     0607  3000               	movlw	0
  3508     0608  00A4               	movwf	___flmul@a
  3509     0609                     l2287:
  3510     0609  0832               	movf	___flmul@aexp,w
  3511     060A  1903               	btfsc	3,2
  3512     060B  2E0D               	goto	u2931
  3513     060C  2E0E               	goto	u2930
  3514     060D                     u2931:
  3515     060D  2E13               	goto	l2291
  3516     060E                     u2930:
  3517     060E                     l2289:
  3518     060E  0833               	movf	___flmul@bexp,w
  3519     060F  1D03               	btfss	3,2
  3520     0610  2E12               	goto	u2941
  3521     0611  2E13               	goto	u2940
  3522     0612                     u2941:
  3523     0612  2E1C               	goto	l2295
  3524     0613                     u2940:
  3525     0613                     l2291:
  3526     0613  3000               	movlw	0
  3527     0614  00A3               	movwf	?___flmul+3
  3528     0615  3000               	movlw	0
  3529     0616  00A2               	movwf	?___flmul+2
  3530     0617  3000               	movlw	0
  3531     0618  00A1               	movwf	?___flmul+1
  3532     0619  3000               	movlw	0
  3533     061A  00A0               	movwf	?___flmul
  3534     061B  2FF4               	goto	l738
  3535     061C                     l2295:
  3536     061C  0820               	movf	___flmul@b,w
  3537     061D  00F0               	movwf	__Umul8_16@multiplicand
  3538     061E  0826               	movf	___flmul@a+2,w
  3539     061F  318C  245D  3185   	fcall	__Umul8_16
  3540     0622  0871               	movf	?__Umul8_16+1,w
  3541     0623  0020               	movlb	0	; select bank0
  3542     0624  00B9               	movwf	___flmul@temp+1
  3543     0625  0870               	movf	?__Umul8_16,w
  3544     0626  00B8               	movwf	___flmul@temp
  3545     0627                     l2297:
  3546     0627  0838               	movf	___flmul@temp,w
  3547     0628  00A8               	movwf	??___flmul
  3548     0629  01A9               	clrf	??___flmul+1
  3549     062A  01AA               	clrf	??___flmul+2
  3550     062B  01AB               	clrf	??___flmul+3
  3551     062C  082B               	movf	??___flmul+3,w
  3552     062D  00B1               	movwf	___flmul@grs+3
  3553     062E  082A               	movf	??___flmul+2,w
  3554     062F  00B0               	movwf	___flmul@grs+2
  3555     0630  0829               	movf	??___flmul+1,w
  3556     0631  00AF               	movwf	___flmul@grs+1
  3557     0632  0828               	movf	??___flmul,w
  3558     0633  00AE               	movwf	___flmul@grs
  3559     0634                     l2299:
  3560     0634  0839               	movf	___flmul@temp+1,w
  3561     0635  00A8               	movwf	??___flmul
  3562     0636  01A9               	clrf	??___flmul+1
  3563     0637  01AA               	clrf	??___flmul+2
  3564     0638  01AB               	clrf	??___flmul+3
  3565     0639  082B               	movf	??___flmul+3,w
  3566     063A  00B7               	movwf	___flmul@prod+3
  3567     063B  082A               	movf	??___flmul+2,w
  3568     063C  00B6               	movwf	___flmul@prod+2
  3569     063D  0829               	movf	??___flmul+1,w
  3570     063E  00B5               	movwf	___flmul@prod+1
  3571     063F  0828               	movf	??___flmul,w
  3572     0640  00B4               	movwf	___flmul@prod
  3573     0641  0821               	movf	___flmul@b+1,w
  3574     0642  00F0               	movwf	__Umul8_16@multiplicand
  3575     0643  0825               	movf	___flmul@a+1,w
  3576     0644  318C  245D  3185   	fcall	__Umul8_16
  3577     0647  0871               	movf	?__Umul8_16+1,w
  3578     0648  0020               	movlb	0	; select bank0
  3579     0649  00B9               	movwf	___flmul@temp+1
  3580     064A  0870               	movf	?__Umul8_16,w
  3581     064B  00B8               	movwf	___flmul@temp
  3582     064C                     l2301:
  3583     064C  0838               	movf	___flmul@temp,w
  3584     064D  00A8               	movwf	??___flmul
  3585     064E  01A9               	clrf	??___flmul+1
  3586     064F  01AA               	clrf	??___flmul+2
  3587     0650  01AB               	clrf	??___flmul+3
  3588     0651  0828               	movf	??___flmul,w
  3589     0652  07AE               	addwf	___flmul@grs,f
  3590     0653  0829               	movf	??___flmul+1,w
  3591     0654  3DAF               	addwfc	___flmul@grs+1,f
  3592     0655  082A               	movf	??___flmul+2,w
  3593     0656  3DB0               	addwfc	___flmul@grs+2,f
  3594     0657  082B               	movf	??___flmul+3,w
  3595     0658  3DB1               	addwfc	___flmul@grs+3,f
  3596     0659                     l2303:
  3597     0659  0839               	movf	___flmul@temp+1,w
  3598     065A  00A8               	movwf	??___flmul
  3599     065B  01A9               	clrf	??___flmul+1
  3600     065C  01AA               	clrf	??___flmul+2
  3601     065D  01AB               	clrf	??___flmul+3
  3602     065E  0828               	movf	??___flmul,w
  3603     065F  07B4               	addwf	___flmul@prod,f
  3604     0660  0829               	movf	??___flmul+1,w
  3605     0661  3DB5               	addwfc	___flmul@prod+1,f
  3606     0662  082A               	movf	??___flmul+2,w
  3607     0663  3DB6               	addwfc	___flmul@prod+2,f
  3608     0664  082B               	movf	??___flmul+3,w
  3609     0665  3DB7               	addwfc	___flmul@prod+3,f
  3610     0666  0822               	movf	___flmul@b+2,w
  3611     0667  00F0               	movwf	__Umul8_16@multiplicand
  3612     0668  0824               	movf	___flmul@a,w
  3613     0669  318C  245D  3185   	fcall	__Umul8_16
  3614     066C  0871               	movf	?__Umul8_16+1,w
  3615     066D  0020               	movlb	0	; select bank0
  3616     066E  00B9               	movwf	___flmul@temp+1
  3617     066F  0870               	movf	?__Umul8_16,w
  3618     0670  00B8               	movwf	___flmul@temp
  3619     0671                     l2305:
  3620     0671  0838               	movf	___flmul@temp,w
  3621     0672  00A8               	movwf	??___flmul
  3622     0673  01A9               	clrf	??___flmul+1
  3623     0674  01AA               	clrf	??___flmul+2
  3624     0675  01AB               	clrf	??___flmul+3
  3625     0676  0828               	movf	??___flmul,w
  3626     0677  07AE               	addwf	___flmul@grs,f
  3627     0678  0829               	movf	??___flmul+1,w
  3628     0679  3DAF               	addwfc	___flmul@grs+1,f
  3629     067A  082A               	movf	??___flmul+2,w
  3630     067B  3DB0               	addwfc	___flmul@grs+2,f
  3631     067C  082B               	movf	??___flmul+3,w
  3632     067D  3DB1               	addwfc	___flmul@grs+3,f
  3633     067E                     l2307:
  3634     067E  0839               	movf	___flmul@temp+1,w
  3635     067F  00A8               	movwf	??___flmul
  3636     0680  01A9               	clrf	??___flmul+1
  3637     0681  01AA               	clrf	??___flmul+2
  3638     0682  01AB               	clrf	??___flmul+3
  3639     0683  0828               	movf	??___flmul,w
  3640     0684  07B4               	addwf	___flmul@prod,f
  3641     0685  0829               	movf	??___flmul+1,w
  3642     0686  3DB5               	addwfc	___flmul@prod+1,f
  3643     0687  082A               	movf	??___flmul+2,w
  3644     0688  3DB6               	addwfc	___flmul@prod+2,f
  3645     0689  082B               	movf	??___flmul+3,w
  3646     068A  3DB7               	addwfc	___flmul@prod+3,f
  3647     068B                     l2309:
  3648     068B  3008               	movlw	8
  3649     068C                     u2955:
  3650     068C  35AE               	lslf	___flmul@grs,f
  3651     068D  0DAF               	rlf	___flmul@grs+1,f
  3652     068E  0DB0               	rlf	___flmul@grs+2,f
  3653     068F  0DB1               	rlf	___flmul@grs+3,f
  3654     0690  0B89               	decfsz	9,f
  3655     0691  2E8C               	goto	u2955
  3656     0692                     l2311:
  3657     0692  0821               	movf	___flmul@b+1,w
  3658     0693  00F0               	movwf	__Umul8_16@multiplicand
  3659     0694  0824               	movf	___flmul@a,w
  3660     0695  318C  245D  3185   	fcall	__Umul8_16
  3661     0698  0871               	movf	?__Umul8_16+1,w
  3662     0699  0020               	movlb	0	; select bank0
  3663     069A  00B9               	movwf	___flmul@temp+1
  3664     069B  0870               	movf	?__Umul8_16,w
  3665     069C  00B8               	movwf	___flmul@temp
  3666     069D                     l2313:
  3667     069D  0838               	movf	___flmul@temp,w
  3668     069E  07AE               	addwf	___flmul@grs,f
  3669     069F  0839               	movf	___flmul@temp+1,w
  3670     06A0  3DAF               	addwfc	___flmul@grs+1,f
  3671     06A1  3000               	movlw	0
  3672     06A2  3DB0               	addwfc	___flmul@grs+2,f
  3673     06A3  3DB1               	addwfc	___flmul@grs+3,f
  3674     06A4                     l2315:
  3675     06A4  0820               	movf	___flmul@b,w
  3676     06A5  00F0               	movwf	__Umul8_16@multiplicand
  3677     06A6  0825               	movf	___flmul@a+1,w
  3678     06A7  318C  245D  3185   	fcall	__Umul8_16
  3679     06AA  0871               	movf	?__Umul8_16+1,w
  3680     06AB  0020               	movlb	0	; select bank0
  3681     06AC  00B9               	movwf	___flmul@temp+1
  3682     06AD  0870               	movf	?__Umul8_16,w
  3683     06AE  00B8               	movwf	___flmul@temp
  3684     06AF                     l2317:
  3685     06AF  0838               	movf	___flmul@temp,w
  3686     06B0  07AE               	addwf	___flmul@grs,f
  3687     06B1  0839               	movf	___flmul@temp+1,w
  3688     06B2  3DAF               	addwfc	___flmul@grs+1,f
  3689     06B3  3000               	movlw	0
  3690     06B4  3DB0               	addwfc	___flmul@grs+2,f
  3691     06B5  3DB1               	addwfc	___flmul@grs+3,f
  3692     06B6                     l2319:
  3693     06B6  3008               	movlw	8
  3694     06B7                     u2965:
  3695     06B7  35AE               	lslf	___flmul@grs,f
  3696     06B8  0DAF               	rlf	___flmul@grs+1,f
  3697     06B9  0DB0               	rlf	___flmul@grs+2,f
  3698     06BA  0DB1               	rlf	___flmul@grs+3,f
  3699     06BB  0B89               	decfsz	9,f
  3700     06BC  2EB7               	goto	u2965
  3701     06BD  0820               	movf	___flmul@b,w
  3702     06BE  00F0               	movwf	__Umul8_16@multiplicand
  3703     06BF  0824               	movf	___flmul@a,w
  3704     06C0  318C  245D  3185   	fcall	__Umul8_16
  3705     06C3  0871               	movf	?__Umul8_16+1,w
  3706     06C4  0020               	movlb	0	; select bank0
  3707     06C5  00B9               	movwf	___flmul@temp+1
  3708     06C6  0870               	movf	?__Umul8_16,w
  3709     06C7  00B8               	movwf	___flmul@temp
  3710     06C8                     l2321:
  3711     06C8  0838               	movf	___flmul@temp,w
  3712     06C9  07AE               	addwf	___flmul@grs,f
  3713     06CA  0839               	movf	___flmul@temp+1,w
  3714     06CB  3DAF               	addwfc	___flmul@grs+1,f
  3715     06CC  3000               	movlw	0
  3716     06CD  3DB0               	addwfc	___flmul@grs+2,f
  3717     06CE  3DB1               	addwfc	___flmul@grs+3,f
  3718     06CF                     l2323:
  3719     06CF  0821               	movf	___flmul@b+1,w
  3720     06D0  00F0               	movwf	__Umul8_16@multiplicand
  3721     06D1  0826               	movf	___flmul@a+2,w
  3722     06D2  318C  245D  3185   	fcall	__Umul8_16
  3723     06D5  0871               	movf	?__Umul8_16+1,w
  3724     06D6  0020               	movlb	0	; select bank0
  3725     06D7  00B9               	movwf	___flmul@temp+1
  3726     06D8  0870               	movf	?__Umul8_16,w
  3727     06D9  00B8               	movwf	___flmul@temp
  3728     06DA  0838               	movf	___flmul@temp,w
  3729     06DB  07B4               	addwf	___flmul@prod,f
  3730     06DC  0839               	movf	___flmul@temp+1,w
  3731     06DD  3DB5               	addwfc	___flmul@prod+1,f
  3732     06DE  3000               	movlw	0
  3733     06DF  3DB6               	addwfc	___flmul@prod+2,f
  3734     06E0  3DB7               	addwfc	___flmul@prod+3,f
  3735     06E1                     l2325:
  3736     06E1  0822               	movf	___flmul@b+2,w
  3737     06E2  00F0               	movwf	__Umul8_16@multiplicand
  3738     06E3  0825               	movf	___flmul@a+1,w
  3739     06E4  318C  245D  3185   	fcall	__Umul8_16
  3740     06E7  0871               	movf	?__Umul8_16+1,w
  3741     06E8  0020               	movlb	0	; select bank0
  3742     06E9  00B9               	movwf	___flmul@temp+1
  3743     06EA  0870               	movf	?__Umul8_16,w
  3744     06EB  00B8               	movwf	___flmul@temp
  3745     06EC                     l2327:
  3746     06EC  0838               	movf	___flmul@temp,w
  3747     06ED  07B4               	addwf	___flmul@prod,f
  3748     06EE  0839               	movf	___flmul@temp+1,w
  3749     06EF  3DB5               	addwfc	___flmul@prod+1,f
  3750     06F0  3000               	movlw	0
  3751     06F1  3DB6               	addwfc	___flmul@prod+2,f
  3752     06F2  3DB7               	addwfc	___flmul@prod+3,f
  3753     06F3  0822               	movf	___flmul@b+2,w
  3754     06F4  00F0               	movwf	__Umul8_16@multiplicand
  3755     06F5  0826               	movf	___flmul@a+2,w
  3756     06F6  318C  245D  3185   	fcall	__Umul8_16
  3757     06F9  0871               	movf	?__Umul8_16+1,w
  3758     06FA  0020               	movlb	0	; select bank0
  3759     06FB  00B9               	movwf	___flmul@temp+1
  3760     06FC  0870               	movf	?__Umul8_16,w
  3761     06FD  00B8               	movwf	___flmul@temp
  3762     06FE                     l2329:
  3763     06FE  0838               	movf	___flmul@temp,w
  3764     06FF  00A8               	movwf	??___flmul
  3765     0700  0839               	movf	___flmul@temp+1,w
  3766     0701  00A9               	movwf	??___flmul+1
  3767     0702  01AA               	clrf	??___flmul+2
  3768     0703  01AB               	clrf	??___flmul+3
  3769     0704  3008               	movlw	8
  3770     0705                     u2975:
  3771     0705  35A8               	lslf	??___flmul,f
  3772     0706  0DA9               	rlf	??___flmul+1,f
  3773     0707  0DAA               	rlf	??___flmul+2,f
  3774     0708  0DAB               	rlf	??___flmul+3,f
  3775     0709                     u2970:
  3776     0709  0B89               	decfsz	9,f
  3777     070A  2F05               	goto	u2975
  3778     070B  0828               	movf	??___flmul,w
  3779     070C  07B4               	addwf	___flmul@prod,f
  3780     070D  0829               	movf	??___flmul+1,w
  3781     070E  3DB5               	addwfc	___flmul@prod+1,f
  3782     070F  082A               	movf	??___flmul+2,w
  3783     0710  3DB6               	addwfc	___flmul@prod+2,f
  3784     0711  082B               	movf	??___flmul+3,w
  3785     0712  3DB7               	addwfc	___flmul@prod+3,f
  3786     0713                     l2331:
  3787     0713  082E               	movf	___flmul@grs,w
  3788     0714  00A8               	movwf	??___flmul
  3789     0715  082F               	movf	___flmul@grs+1,w
  3790     0716  00A9               	movwf	??___flmul+1
  3791     0717  0830               	movf	___flmul@grs+2,w
  3792     0718  00AA               	movwf	??___flmul+2
  3793     0719  0831               	movf	___flmul@grs+3,w
  3794     071A  00AB               	movwf	??___flmul+3
  3795     071B  3018               	movlw	24
  3796     071C                     u2985:
  3797     071C  36AB               	lsrf	??___flmul+3,f
  3798     071D  0CAA               	rrf	??___flmul+2,f
  3799     071E  0CA9               	rrf	??___flmul+1,f
  3800     071F  0CA8               	rrf	??___flmul,f
  3801     0720                     u2980:
  3802     0720  0B89               	decfsz	9,f
  3803     0721  2F1C               	goto	u2985
  3804     0722  0828               	movf	??___flmul,w
  3805     0723  07B4               	addwf	___flmul@prod,f
  3806     0724  0829               	movf	??___flmul+1,w
  3807     0725  3DB5               	addwfc	___flmul@prod+1,f
  3808     0726  082A               	movf	??___flmul+2,w
  3809     0727  3DB6               	addwfc	___flmul@prod+2,f
  3810     0728  082B               	movf	??___flmul+3,w
  3811     0729  3DB7               	addwfc	___flmul@prod+3,f
  3812     072A                     l2333:
  3813     072A  3008               	movlw	8
  3814     072B                     u2995:
  3815     072B  35AE               	lslf	___flmul@grs,f
  3816     072C  0DAF               	rlf	___flmul@grs+1,f
  3817     072D  0DB0               	rlf	___flmul@grs+2,f
  3818     072E  0DB1               	rlf	___flmul@grs+3,f
  3819     072F  0B89               	decfsz	9,f
  3820     0730  2F2B               	goto	u2995
  3821     0731                     l2335:
  3822     0731  0833               	movf	___flmul@bexp,w
  3823     0732  0732               	addwf	___flmul@aexp,w
  3824     0733  00A8               	movwf	??___flmul
  3825     0734  01A9               	clrf	??___flmul+1
  3826     0735  0DA9               	rlf	??___flmul+1,f
  3827     0736  0828               	movf	??___flmul,w
  3828     0737  3E82               	addlw	130
  3829     0738  00B8               	movwf	___flmul@temp
  3830     0739  30FF               	movlw	255
  3831     073A  3D29               	addwfc	??___flmul+1,w
  3832     073B  00B9               	movwf	___flmul@temp+1
  3833     073C  2F54               	goto	l2347
  3834     073D                     l2337:
  3835     073D  3001               	movlw	1
  3836     073E                     u3005:
  3837     073E  35B4               	lslf	___flmul@prod,f
  3838     073F  0DB5               	rlf	___flmul@prod+1,f
  3839     0740  0DB6               	rlf	___flmul@prod+2,f
  3840     0741  0DB7               	rlf	___flmul@prod+3,f
  3841     0742  0B89               	decfsz	9,f
  3842     0743  2F3E               	goto	u3005
  3843     0744                     l2339:
  3844     0744  1FB1               	btfss	___flmul@grs+3,7
  3845     0745  2F47               	goto	u3011
  3846     0746  2F48               	goto	u3010
  3847     0747                     u3011:
  3848     0747  2F49               	goto	l2343
  3849     0748                     u3010:
  3850     0748                     l2341:
  3851     0748  1434               	bsf	___flmul@prod,0
  3852     0749                     l2343:
  3853     0749  3001               	movlw	1
  3854     074A                     u3025:
  3855     074A  35AE               	lslf	___flmul@grs,f
  3856     074B  0DAF               	rlf	___flmul@grs+1,f
  3857     074C  0DB0               	rlf	___flmul@grs+2,f
  3858     074D  0DB1               	rlf	___flmul@grs+3,f
  3859     074E  0B89               	decfsz	9,f
  3860     074F  2F4A               	goto	u3025
  3861     0750                     l2345:
  3862     0750  30FF               	movlw	255
  3863     0751  07B8               	addwf	___flmul@temp,f
  3864     0752  30FF               	movlw	255
  3865     0753  3DB9               	addwfc	___flmul@temp+1,f
  3866     0754                     l2347:
  3867     0754  1FB6               	btfss	___flmul@prod+2,7
  3868     0755  2F57               	goto	u3031
  3869     0756  2F58               	goto	u3030
  3870     0757                     u3031:
  3871     0757  2F3D               	goto	l2337
  3872     0758                     u3030:
  3873     0758                     l2349:
  3874     0758  01B2               	clrf	___flmul@aexp
  3875     0759                     l2351:
  3876     0759  1FB1               	btfss	___flmul@grs+3,7
  3877     075A  2F5C               	goto	u3041
  3878     075B  2F5D               	goto	u3040
  3879     075C                     u3041:
  3880     075C  2F79               	goto	l2359
  3881     075D                     u3040:
  3882     075D                     l2353:
  3883     075D  30FF               	movlw	255
  3884     075E  052E               	andwf	___flmul@grs,w
  3885     075F  00A8               	movwf	??___flmul
  3886     0760  30FF               	movlw	255
  3887     0761  052F               	andwf	___flmul@grs+1,w
  3888     0762  00A9               	movwf	??___flmul+1
  3889     0763  30FF               	movlw	255
  3890     0764  0530               	andwf	___flmul@grs+2,w
  3891     0765  00AA               	movwf	??___flmul+2
  3892     0766  307F               	movlw	127
  3893     0767  0531               	andwf	___flmul@grs+3,w
  3894     0768  00AB               	movwf	??___flmul+3
  3895     0769  082B               	movf	??___flmul+3,w
  3896     076A  042A               	iorwf	??___flmul+2,w
  3897     076B  0429               	iorwf	??___flmul+1,w
  3898     076C  0428               	iorwf	??___flmul,w
  3899     076D  1903               	skipnz
  3900     076E  2F70               	goto	u3051
  3901     076F  2F71               	goto	u3050
  3902     0770                     u3051:
  3903     0770  2F74               	goto	l744
  3904     0771                     u3050:
  3905     0771                     l2355:
  3906     0771  01B2               	clrf	___flmul@aexp
  3907     0772  0AB2               	incf	___flmul@aexp,f
  3908     0773  2F79               	goto	l2359
  3909     0774                     l744:
  3910     0774  1C34               	btfss	___flmul@prod,0
  3911     0775  2F77               	goto	u3061
  3912     0776  2F78               	goto	u3060
  3913     0777                     u3061:
  3914     0777  2F79               	goto	l2359
  3915     0778                     u3060:
  3916     0778  2F71               	goto	l2355
  3917     0779                     l2359:
  3918     0779  0832               	movf	___flmul@aexp,w
  3919     077A  1903               	btfsc	3,2
  3920     077B  2F7D               	goto	u3071
  3921     077C  2F7E               	goto	u3070
  3922     077D                     u3071:
  3923     077D  2FA6               	goto	l2369
  3924     077E                     u3070:
  3925     077E                     l2361:
  3926     077E  3001               	movlw	1
  3927     077F  07B4               	addwf	___flmul@prod,f
  3928     0780  3000               	movlw	0
  3929     0781  3DB5               	addwfc	___flmul@prod+1,f
  3930     0782  3000               	movlw	0
  3931     0783  3DB6               	addwfc	___flmul@prod+2,f
  3932     0784  3000               	movlw	0
  3933     0785  3DB7               	addwfc	___flmul@prod+3,f
  3934     0786                     l2363:
  3935     0786  1C37               	btfss	___flmul@prod+3,0
  3936     0787  2F89               	goto	u3081
  3937     0788  2F8A               	goto	u3080
  3938     0789                     u3081:
  3939     0789  2FA6               	goto	l2369
  3940     078A                     u3080:
  3941     078A                     l2365:
  3942     078A  0834               	movf	___flmul@prod,w
  3943     078B  00A8               	movwf	??___flmul
  3944     078C  0835               	movf	___flmul@prod+1,w
  3945     078D  00A9               	movwf	??___flmul+1
  3946     078E  0836               	movf	___flmul@prod+2,w
  3947     078F  00AA               	movwf	??___flmul+2
  3948     0790  0837               	movf	___flmul@prod+3,w
  3949     0791  00AB               	movwf	??___flmul+3
  3950     0792  3001               	movlw	1
  3951     0793  00AC               	movwf	??___flmul+4
  3952     0794                     u3095:
  3953     0794  37AB               	asrf	??___flmul+3,f
  3954     0795  0CAA               	rrf	??___flmul+2,f
  3955     0796  0CA9               	rrf	??___flmul+1,f
  3956     0797  0CA8               	rrf	??___flmul,f
  3957     0798                     u3090:
  3958     0798  0BAC               	decfsz	??___flmul+4,f
  3959     0799  2F94               	goto	u3095
  3960     079A  082B               	movf	??___flmul+3,w
  3961     079B  00B7               	movwf	___flmul@prod+3
  3962     079C  082A               	movf	??___flmul+2,w
  3963     079D  00B6               	movwf	___flmul@prod+2
  3964     079E  0829               	movf	??___flmul+1,w
  3965     079F  00B5               	movwf	___flmul@prod+1
  3966     07A0  0828               	movf	??___flmul,w
  3967     07A1  00B4               	movwf	___flmul@prod
  3968     07A2                     l2367:
  3969     07A2  3001               	movlw	1
  3970     07A3  07B8               	addwf	___flmul@temp,f
  3971     07A4  3000               	movlw	0
  3972     07A5  3DB9               	addwfc	___flmul@temp+1,f
  3973     07A6                     l2369:
  3974     07A6  0839               	movf	___flmul@temp+1,w
  3975     07A7  3A80               	xorlw	128
  3976     07A8  00A8               	movwf	??___flmul
  3977     07A9  3080               	movlw	128
  3978     07AA  0228               	subwf	??___flmul,w
  3979     07AB  1D03               	skipz
  3980     07AC  2FAF               	goto	u3105
  3981     07AD  30FF               	movlw	255
  3982     07AE  0238               	subwf	___flmul@temp,w
  3983     07AF                     u3105:
  3984     07AF  1C03               	skipc
  3985     07B0  2FB2               	goto	u3101
  3986     07B1  2FB3               	goto	u3100
  3987     07B2                     u3101:
  3988     07B2  2FBD               	goto	l2373
  3989     07B3                     u3100:
  3990     07B3                     l2371:
  3991     07B3  307F               	movlw	127
  3992     07B4  0020               	movlb	0	; select bank0
  3993     07B5  00B7               	movwf	___flmul@prod+3
  3994     07B6  3080               	movlw	128
  3995     07B7  00B6               	movwf	___flmul@prod+2
  3996     07B8  3000               	movlw	0
  3997     07B9  00B5               	movwf	___flmul@prod+1
  3998     07BA  3000               	movlw	0
  3999     07BB  00B4               	movwf	___flmul@prod
  4000     07BC  2FE8               	goto	l750
  4001     07BD                     l2373:
  4002     07BD  0020               	movlb	0	; select bank0
  4003     07BE  0839               	movf	___flmul@temp+1,w
  4004     07BF  3A80               	xorlw	128
  4005     07C0  00A8               	movwf	??___flmul
  4006     07C1  3080               	movlw	128
  4007     07C2  0228               	subwf	??___flmul,w
  4008     07C3  1D03               	skipz
  4009     07C4  2FC7               	goto	u3115
  4010     07C5  3001               	movlw	1
  4011     07C6  0238               	subwf	___flmul@temp,w
  4012     07C7                     u3115:
  4013     07C7  1803               	skipnc
  4014     07C8  2FCA               	goto	u3111
  4015     07C9  2FCB               	goto	u3110
  4016     07CA                     u3111:
  4017     07CA  2FD6               	goto	l2379
  4018     07CB                     u3110:
  4019     07CB                     l2375:
  4020     07CB  3000               	movlw	0
  4021     07CC  0020               	movlb	0	; select bank0
  4022     07CD  00B7               	movwf	___flmul@prod+3
  4023     07CE  3000               	movlw	0
  4024     07CF  00B6               	movwf	___flmul@prod+2
  4025     07D0  3000               	movlw	0
  4026     07D1  00B5               	movwf	___flmul@prod+1
  4027     07D2  3000               	movlw	0
  4028     07D3  00B4               	movwf	___flmul@prod
  4029     07D4                     l2377:
  4030     07D4  01AD               	clrf	___flmul@sign
  4031     07D5  2FE8               	goto	l750
  4032     07D6                     l2379:
  4033     07D6  0020               	movlb	0	; select bank0
  4034     07D7  0838               	movf	___flmul@temp,w
  4035     07D8  00B3               	movwf	___flmul@bexp
  4036     07D9  30FF               	movlw	255
  4037     07DA  05B4               	andwf	___flmul@prod,f
  4038     07DB  30FF               	movlw	255
  4039     07DC  05B5               	andwf	___flmul@prod+1,f
  4040     07DD  307F               	movlw	127
  4041     07DE  05B6               	andwf	___flmul@prod+2,f
  4042     07DF  3000               	movlw	0
  4043     07E0  05B7               	andwf	___flmul@prod+3,f
  4044     07E1                     l2381:
  4045     07E1  1C33               	btfss	___flmul@bexp,0
  4046     07E2  2FE4               	goto	u3121
  4047     07E3  2FE5               	goto	u3120
  4048     07E4                     u3121:
  4049     07E4  2FE6               	goto	l2385
  4050     07E5                     u3120:
  4051     07E5                     l2383:
  4052     07E5  17B6               	bsf	___flmul@prod+2,7
  4053     07E6                     l2385:
  4054     07E6  3633               	lsrf	___flmul@bexp,w
  4055     07E7  00B7               	movwf	___flmul@prod+3
  4056     07E8                     l750:
  4057     07E8  082D               	movf	___flmul@sign,w
  4058     07E9  00A8               	movwf	??___flmul
  4059     07EA  0828               	movf	??___flmul,w
  4060     07EB  04B7               	iorwf	___flmul@prod+3,f
  4061     07EC                     l2387:
  4062     07EC  0837               	movf	___flmul@prod+3,w
  4063     07ED  00A3               	movwf	?___flmul+3
  4064     07EE  0836               	movf	___flmul@prod+2,w
  4065     07EF  00A2               	movwf	?___flmul+2
  4066     07F0  0835               	movf	___flmul@prod+1,w
  4067     07F1  00A1               	movwf	?___flmul+1
  4068     07F2  0834               	movf	___flmul@prod,w
  4069     07F3  00A0               	movwf	?___flmul
  4070     07F4                     l738:
  4071     07F4  0008               	return
  4072     07F5                     __end_of___flmul:
  4073                           
  4074                           	psect	text14
  4075     0C5D                     __ptext14:	
  4076 ;; *************** function __Umul8_16 *****************
  4077 ;; Defined at:
  4078 ;;		line 4 in file "C:\XC8\pic\sources\c99\common\Umul8_16.c"
  4079 ;; Parameters:    Size  Location     Type
  4080 ;;  multiplier      1    wreg     unsigned char 
  4081 ;;  multiplicand    1    0[COMMON] unsigned char 
  4082 ;; Auto vars:     Size  Location     Type
  4083 ;;  multiplier      1    8[COMMON] unsigned char 
  4084 ;;  word_mpld       2    6[COMMON] unsigned short 
  4085 ;;  product         2    4[COMMON] unsigned short 
  4086 ;; Return value:  Size  Location     Type
  4087 ;;                  2    0[COMMON] unsigned int 
  4088 ;; Registers used:
  4089 ;;		wreg, status,2, status,0
  4090 ;; Tracked objects:
  4091 ;;		On entry : 0/0
  4092 ;;		On exit  : 0/0
  4093 ;;		Unchanged: 0/0
  4094 ;; Data sizes:     COMMON   BANK0   BANK1   BANK2
  4095 ;;      Params:         2       0       0       0
  4096 ;;      Locals:         5       0       0       0
  4097 ;;      Temps:          2       0       0       0
  4098 ;;      Totals:         9       0       0       0
  4099 ;;Total ram usage:        9 bytes
  4100 ;; Hardware stack levels used: 1
  4101 ;; This function calls:
  4102 ;;		Nothing
  4103 ;; This function is called by:
  4104 ;;		___flmul
  4105 ;; This function uses a non-reentrant model
  4106 ;;
  4107                           
  4108     0C5D                     __Umul8_16:	
  4109                           ;psect for function __Umul8_16
  4110                           
  4111                           
  4112                           ;incstack = 0
  4113                           ; Regs used in __Umul8_16: [wreg+status,2+status,0]
  4114                           ;__Umul8_16@multiplier stored from wreg
  4115     0C5D  00F8               	movwf	__Umul8_16@multiplier
  4116     0C5E                     l1707:
  4117     0C5E  01F4               	clrf	__Umul8_16@product
  4118     0C5F  01F5               	clrf	__Umul8_16@product+1
  4119     0C60                     l1709:
  4120     0C60  0870               	movf	__Umul8_16@multiplicand,w
  4121     0C61  00F2               	movwf	??__Umul8_16
  4122     0C62  01F3               	clrf	??__Umul8_16+1
  4123     0C63  0872               	movf	??__Umul8_16,w
  4124     0C64  00F6               	movwf	__Umul8_16@word_mpld
  4125     0C65  0873               	movf	??__Umul8_16+1,w
  4126     0C66  00F7               	movwf	__Umul8_16@word_mpld+1
  4127     0C67                     l1711:
  4128     0C67  1C78               	btfss	__Umul8_16@multiplier,0
  4129     0C68  2C6A               	goto	u1741
  4130     0C69  2C6B               	goto	u1740
  4131     0C6A                     u1741:
  4132     0C6A  2C6F               	goto	l757
  4133     0C6B                     u1740:
  4134     0C6B                     l1713:
  4135     0C6B  0876               	movf	__Umul8_16@word_mpld,w
  4136     0C6C  07F4               	addwf	__Umul8_16@product,f
  4137     0C6D  0877               	movf	__Umul8_16@word_mpld+1,w
  4138     0C6E  3DF5               	addwfc	__Umul8_16@product+1,f
  4139     0C6F                     l757:
  4140     0C6F  3001               	movlw	1
  4141     0C70                     u1755:
  4142     0C70  35F6               	lslf	__Umul8_16@word_mpld,f
  4143     0C71  0DF7               	rlf	__Umul8_16@word_mpld+1,f
  4144     0C72  0B89               	decfsz	9,f
  4145     0C73  2C70               	goto	u1755
  4146     0C74  1003               	clrc
  4147     0C75  0CF8               	rrf	__Umul8_16@multiplier,f
  4148     0C76                     l1715:
  4149     0C76  0878               	movf	__Umul8_16@multiplier,w
  4150     0C77  1D03               	btfss	3,2
  4151     0C78  2C7A               	goto	u1761
  4152     0C79  2C7B               	goto	u1760
  4153     0C7A                     u1761:
  4154     0C7A  2C67               	goto	l1711
  4155     0C7B                     u1760:
  4156     0C7B                     l1717:
  4157     0C7B  0875               	movf	__Umul8_16@product+1,w
  4158     0C7C  00F1               	movwf	?__Umul8_16+1
  4159     0C7D  0874               	movf	__Umul8_16@product,w
  4160     0C7E  00F0               	movwf	?__Umul8_16
  4161     0C7F                     l759:
  4162     0C7F  0008               	return
  4163     0C80                     __end_of__Umul8_16:
  4164                           
  4165                           	psect	text15
  4166     0208                     __ptext15:	
  4167 ;; *************** function ___fldiv *****************
  4168 ;; Defined at:
  4169 ;;		line 8 in file "C:\XC8\pic\sources\c99\common\sprcdiv.c"
  4170 ;; Parameters:    Size  Location     Type
  4171 ;;  a               4   26[BANK0 ] unsigned int 
  4172 ;;  b               4   30[BANK0 ] unsigned int 
  4173 ;; Auto vars:     Size  Location     Type
  4174 ;;  grs             4   46[BANK0 ] unsigned long 
  4175 ;;  rem             4   39[BANK0 ] unsigned long 
  4176 ;;  new_exp         2   44[BANK0 ] short 
  4177 ;;  aexp            1   51[BANK0 ] unsigned char 
  4178 ;;  bexp            1   50[BANK0 ] unsigned char 
  4179 ;;  sign            1   43[BANK0 ] unsigned char 
  4180 ;; Return value:  Size  Location     Type
  4181 ;;                  4   26[BANK0 ] unsigned char 
  4182 ;; Registers used:
  4183 ;;		wreg, status,2, status,0
  4184 ;; Tracked objects:
  4185 ;;		On entry : 0/0
  4186 ;;		On exit  : 0/0
  4187 ;;		Unchanged: 0/0
  4188 ;; Data sizes:     COMMON   BANK0   BANK1   BANK2
  4189 ;;      Params:         0       8       0       0
  4190 ;;      Locals:         0      13       0       0
  4191 ;;      Temps:          0       5       0       0
  4192 ;;      Totals:         0      26       0       0
  4193 ;;Total ram usage:       26 bytes
  4194 ;; Hardware stack levels used: 1
  4195 ;; This function calls:
  4196 ;;		Nothing
  4197 ;; This function is called by:
  4198 ;;		_GXHT30_read_result
  4199 ;; This function uses a non-reentrant model
  4200 ;;
  4201                           
  4202     0208                     ___fldiv:	
  4203                           ;psect for function ___fldiv
  4204                           
  4205     0208                     l2111:	
  4206                           ;incstack = 0
  4207                           ; Regs used in ___fldiv: [wreg+status,2+status,0]
  4208                           
  4209     0208  0020               	movlb	0	; select bank0
  4210     0209  0841               	movf	___fldiv@b+3,w
  4211     020A  3980               	andlw	128
  4212     020B  00CB               	movwf	___fldiv@sign
  4213     020C                     l2113:
  4214     020C  3541               	lslf	___fldiv@b+3,w
  4215     020D  00D2               	movwf	___fldiv@bexp
  4216     020E                     l2115:
  4217     020E  1FC0               	btfss	___fldiv@b+2,7
  4218     020F  2A11               	goto	u2581
  4219     0210  2A12               	goto	u2580
  4220     0211                     u2581:
  4221     0211  2A13               	goto	l2119
  4222     0212                     u2580:
  4223     0212                     l2117:
  4224     0212  1452               	bsf	___fldiv@bexp,0
  4225     0213                     l2119:
  4226     0213  0852               	movf	___fldiv@bexp,w
  4227     0214  1903               	btfsc	3,2
  4228     0215  2A17               	goto	u2591
  4229     0216  2A18               	goto	u2590
  4230     0217                     u2591:
  4231     0217  2A28               	goto	l2129
  4232     0218                     u2590:
  4233     0218                     l2121:
  4234     0218  0A52               	incf	___fldiv@bexp,w
  4235     0219  1D03               	btfss	3,2
  4236     021A  2A1C               	goto	u2601
  4237     021B  2A1D               	goto	u2600
  4238     021C                     u2601:
  4239     021C  2A25               	goto	l2125
  4240     021D                     u2600:
  4241     021D                     l2123:
  4242     021D  3000               	movlw	0
  4243     021E  00C1               	movwf	___fldiv@b+3
  4244     021F  3000               	movlw	0
  4245     0220  00C0               	movwf	___fldiv@b+2
  4246     0221  3000               	movlw	0
  4247     0222  00BF               	movwf	___fldiv@b+1
  4248     0223  3000               	movlw	0
  4249     0224  00BE               	movwf	___fldiv@b
  4250     0225                     l2125:
  4251     0225  17C0               	bsf	___fldiv@b+2,7
  4252     0226                     l2127:
  4253     0226  01C1               	clrf	___fldiv@b+3
  4254     0227  2A30               	goto	l2131
  4255     0228                     l2129:
  4256     0228  3000               	movlw	0
  4257     0229  00C1               	movwf	___fldiv@b+3
  4258     022A  3000               	movlw	0
  4259     022B  00C0               	movwf	___fldiv@b+2
  4260     022C  3000               	movlw	0
  4261     022D  00BF               	movwf	___fldiv@b+1
  4262     022E  3000               	movlw	0
  4263     022F  00BE               	movwf	___fldiv@b
  4264     0230                     l2131:
  4265     0230  083D               	movf	___fldiv@a+3,w
  4266     0231  3980               	andlw	128
  4267     0232  00C2               	movwf	??___fldiv
  4268     0233  0842               	movf	??___fldiv,w
  4269     0234  06CB               	xorwf	___fldiv@sign,f
  4270     0235                     l2133:
  4271     0235  353D               	lslf	___fldiv@a+3,w
  4272     0236  00D3               	movwf	___fldiv@aexp
  4273     0237                     l2135:
  4274     0237  1FBC               	btfss	___fldiv@a+2,7
  4275     0238  2A3A               	goto	u2611
  4276     0239  2A3B               	goto	u2610
  4277     023A                     u2611:
  4278     023A  2A3C               	goto	l2139
  4279     023B                     u2610:
  4280     023B                     l2137:
  4281     023B  1453               	bsf	___fldiv@aexp,0
  4282     023C                     l2139:
  4283     023C  0853               	movf	___fldiv@aexp,w
  4284     023D  1903               	btfsc	3,2
  4285     023E  2A40               	goto	u2621
  4286     023F  2A41               	goto	u2620
  4287     0240                     u2621:
  4288     0240  2A51               	goto	l2149
  4289     0241                     u2620:
  4290     0241                     l2141:
  4291     0241  0A53               	incf	___fldiv@aexp,w
  4292     0242  1D03               	btfss	3,2
  4293     0243  2A45               	goto	u2631
  4294     0244  2A46               	goto	u2630
  4295     0245                     u2631:
  4296     0245  2A4E               	goto	l2145
  4297     0246                     u2630:
  4298     0246                     l2143:
  4299     0246  3000               	movlw	0
  4300     0247  00BD               	movwf	___fldiv@a+3
  4301     0248  3000               	movlw	0
  4302     0249  00BC               	movwf	___fldiv@a+2
  4303     024A  3000               	movlw	0
  4304     024B  00BB               	movwf	___fldiv@a+1
  4305     024C  3000               	movlw	0
  4306     024D  00BA               	movwf	___fldiv@a
  4307     024E                     l2145:
  4308     024E  17BC               	bsf	___fldiv@a+2,7
  4309     024F                     l2147:
  4310     024F  01BD               	clrf	___fldiv@a+3
  4311     0250  2A59               	goto	l698
  4312     0251                     l2149:
  4313     0251  3000               	movlw	0
  4314     0252  00BD               	movwf	___fldiv@a+3
  4315     0253  3000               	movlw	0
  4316     0254  00BC               	movwf	___fldiv@a+2
  4317     0255  3000               	movlw	0
  4318     0256  00BB               	movwf	___fldiv@a+1
  4319     0257  3000               	movlw	0
  4320     0258  00BA               	movwf	___fldiv@a
  4321     0259                     l698:
  4322     0259  083D               	movf	___fldiv@a+3,w
  4323     025A  043C               	iorwf	___fldiv@a+2,w
  4324     025B  043B               	iorwf	___fldiv@a+1,w
  4325     025C  043A               	iorwf	___fldiv@a,w
  4326     025D  1D03               	skipz
  4327     025E  2A60               	goto	u2641
  4328     025F  2A61               	goto	u2640
  4329     0260                     u2641:
  4330     0260  2A7A               	goto	l2159
  4331     0261                     u2640:
  4332     0261                     l2151:
  4333     0261  3000               	movlw	0
  4334     0262  00C1               	movwf	___fldiv@b+3
  4335     0263  3000               	movlw	0
  4336     0264  00C0               	movwf	___fldiv@b+2
  4337     0265  3000               	movlw	0
  4338     0266  00BF               	movwf	___fldiv@b+1
  4339     0267  3000               	movlw	0
  4340     0268  00BE               	movwf	___fldiv@b
  4341     0269  3080               	movlw	128
  4342     026A  04C0               	iorwf	___fldiv@b+2,f
  4343     026B  307F               	movlw	127
  4344     026C  04C1               	iorwf	___fldiv@b+3,f
  4345     026D                     l2153:
  4346     026D  084B               	movf	___fldiv@sign,w
  4347     026E  00C2               	movwf	??___fldiv
  4348     026F  0842               	movf	??___fldiv,w
  4349     0270  04C1               	iorwf	___fldiv@b+3,f
  4350     0271                     l2155:
  4351     0271  0841               	movf	___fldiv@b+3,w
  4352     0272  00BD               	movwf	?___fldiv+3
  4353     0273  0840               	movf	___fldiv@b+2,w
  4354     0274  00BC               	movwf	?___fldiv+2
  4355     0275  083F               	movf	___fldiv@b+1,w
  4356     0276  00BB               	movwf	?___fldiv+1
  4357     0277  083E               	movf	___fldiv@b,w
  4358     0278  00BA               	movwf	?___fldiv
  4359     0279  2BB1               	goto	l700
  4360     027A                     l2159:
  4361     027A  0852               	movf	___fldiv@bexp,w
  4362     027B  1D03               	btfss	3,2
  4363     027C  2A7E               	goto	u2651
  4364     027D  2A7F               	goto	u2650
  4365     027E                     u2651:
  4366     027E  2A88               	goto	l2165
  4367     027F                     u2650:
  4368     027F                     l2161:
  4369     027F  3000               	movlw	0
  4370     0280  00BD               	movwf	?___fldiv+3
  4371     0281  3000               	movlw	0
  4372     0282  00BC               	movwf	?___fldiv+2
  4373     0283  3000               	movlw	0
  4374     0284  00BB               	movwf	?___fldiv+1
  4375     0285  3000               	movlw	0
  4376     0286  00BA               	movwf	?___fldiv
  4377     0287  2BB1               	goto	l700
  4378     0288                     l2165:
  4379     0288  0852               	movf	___fldiv@bexp,w
  4380     0289  00C2               	movwf	??___fldiv
  4381     028A  01C3               	clrf	??___fldiv+1
  4382     028B  0843               	movf	??___fldiv+1,w
  4383     028C  00C5               	movwf	??___fldiv+3
  4384     028D  0853               	movf	___fldiv@aexp,w
  4385     028E  0242               	subwf	??___fldiv,w
  4386     028F  00C4               	movwf	??___fldiv+2
  4387     0290  1C03               	skipc
  4388     0291  03C5               	decf	??___fldiv+3,f
  4389     0292  0844               	movf	??___fldiv+2,w
  4390     0293  3E7F               	addlw	127
  4391     0294  00CC               	movwf	___fldiv@new_exp
  4392     0295  3000               	movlw	0
  4393     0296  3D45               	addwfc	??___fldiv+3,w
  4394     0297  00CD               	movwf	___fldiv@new_exp+1
  4395     0298                     l2167:
  4396     0298  0841               	movf	___fldiv@b+3,w
  4397     0299  00CA               	movwf	___fldiv@rem+3
  4398     029A  0840               	movf	___fldiv@b+2,w
  4399     029B  00C9               	movwf	___fldiv@rem+2
  4400     029C  083F               	movf	___fldiv@b+1,w
  4401     029D  00C8               	movwf	___fldiv@rem+1
  4402     029E  083E               	movf	___fldiv@b,w
  4403     029F  00C7               	movwf	___fldiv@rem
  4404     02A0                     l2169:
  4405     02A0  3000               	movlw	0
  4406     02A1  00C1               	movwf	___fldiv@b+3
  4407     02A2  3000               	movlw	0
  4408     02A3  00C0               	movwf	___fldiv@b+2
  4409     02A4  3000               	movlw	0
  4410     02A5  00BF               	movwf	___fldiv@b+1
  4411     02A6  3000               	movlw	0
  4412     02A7  00BE               	movwf	___fldiv@b
  4413     02A8                     l2171:
  4414     02A8  3000               	movlw	0
  4415     02A9  00D1               	movwf	___fldiv@grs+3
  4416     02AA  3000               	movlw	0
  4417     02AB  00D0               	movwf	___fldiv@grs+2
  4418     02AC  3000               	movlw	0
  4419     02AD  00CF               	movwf	___fldiv@grs+1
  4420     02AE  3000               	movlw	0
  4421     02AF  00CE               	movwf	___fldiv@grs
  4422     02B0                     l2173:
  4423     02B0  01D3               	clrf	___fldiv@aexp
  4424     02B1  2AF0               	goto	l2193
  4425     02B2                     l2175:
  4426     02B2  0853               	movf	___fldiv@aexp,w
  4427     02B3  1903               	btfsc	3,2
  4428     02B4  2AB6               	goto	u2661
  4429     02B5  2AB7               	goto	u2660
  4430     02B6                     u2661:
  4431     02B6  2AD1               	goto	l2185
  4432     02B7                     u2660:
  4433     02B7                     l2177:
  4434     02B7  3001               	movlw	1
  4435     02B8                     u2675:
  4436     02B8  35C7               	lslf	___fldiv@rem,f
  4437     02B9  0DC8               	rlf	___fldiv@rem+1,f
  4438     02BA  0DC9               	rlf	___fldiv@rem+2,f
  4439     02BB  0DCA               	rlf	___fldiv@rem+3,f
  4440     02BC  0B89               	decfsz	9,f
  4441     02BD  2AB8               	goto	u2675
  4442     02BE  3001               	movlw	1
  4443     02BF                     u2685:
  4444     02BF  35BE               	lslf	___fldiv@b,f
  4445     02C0  0DBF               	rlf	___fldiv@b+1,f
  4446     02C1  0DC0               	rlf	___fldiv@b+2,f
  4447     02C2  0DC1               	rlf	___fldiv@b+3,f
  4448     02C3  0B89               	decfsz	9,f
  4449     02C4  2ABF               	goto	u2685
  4450     02C5                     l2179:
  4451     02C5  1FD1               	btfss	___fldiv@grs+3,7
  4452     02C6  2AC8               	goto	u2691
  4453     02C7  2AC9               	goto	u2690
  4454     02C8                     u2691:
  4455     02C8  2ACA               	goto	l2183
  4456     02C9                     u2690:
  4457     02C9                     l2181:
  4458     02C9  143E               	bsf	___fldiv@b,0
  4459     02CA                     l2183:
  4460     02CA  3001               	movlw	1
  4461     02CB                     u2705:
  4462     02CB  35CE               	lslf	___fldiv@grs,f
  4463     02CC  0DCF               	rlf	___fldiv@grs+1,f
  4464     02CD  0DD0               	rlf	___fldiv@grs+2,f
  4465     02CE  0DD1               	rlf	___fldiv@grs+3,f
  4466     02CF  0B89               	decfsz	9,f
  4467     02D0  2ACB               	goto	u2705
  4468     02D1                     l2185:
  4469     02D1  083D               	movf	___fldiv@a+3,w
  4470     02D2  024A               	subwf	___fldiv@rem+3,w
  4471     02D3  1D03               	skipz
  4472     02D4  2ADF               	goto	u2715
  4473     02D5  083C               	movf	___fldiv@a+2,w
  4474     02D6  0249               	subwf	___fldiv@rem+2,w
  4475     02D7  1D03               	skipz
  4476     02D8  2ADF               	goto	u2715
  4477     02D9  083B               	movf	___fldiv@a+1,w
  4478     02DA  0248               	subwf	___fldiv@rem+1,w
  4479     02DB  1D03               	skipz
  4480     02DC  2ADF               	goto	u2715
  4481     02DD  083A               	movf	___fldiv@a,w
  4482     02DE  0247               	subwf	___fldiv@rem,w
  4483     02DF                     u2715:
  4484     02DF  1C03               	skipc
  4485     02E0  2AE2               	goto	u2711
  4486     02E1  2AE3               	goto	u2710
  4487     02E2                     u2711:
  4488     02E2  2AEC               	goto	l2191
  4489     02E3                     u2710:
  4490     02E3                     l2187:
  4491     02E3  1751               	bsf	___fldiv@grs+3,6
  4492     02E4                     l2189:
  4493     02E4  083A               	movf	___fldiv@a,w
  4494     02E5  02C7               	subwf	___fldiv@rem,f
  4495     02E6  083B               	movf	___fldiv@a+1,w
  4496     02E7  3BC8               	subwfb	___fldiv@rem+1,f
  4497     02E8  083C               	movf	___fldiv@a+2,w
  4498     02E9  3BC9               	subwfb	___fldiv@rem+2,f
  4499     02EA  083D               	movf	___fldiv@a+3,w
  4500     02EB  3BCA               	subwfb	___fldiv@rem+3,f
  4501     02EC                     l2191:
  4502     02EC  3001               	movlw	1
  4503     02ED  00C2               	movwf	??___fldiv
  4504     02EE  0842               	movf	??___fldiv,w
  4505     02EF  07D3               	addwf	___fldiv@aexp,f
  4506     02F0                     l2193:
  4507     02F0  301A               	movlw	26
  4508     02F1  0253               	subwf	___fldiv@aexp,w
  4509     02F2  1C03               	skipc
  4510     02F3  2AF5               	goto	u2721
  4511     02F4  2AF6               	goto	u2720
  4512     02F5                     u2721:
  4513     02F5  2AB2               	goto	l2175
  4514     02F6                     u2720:
  4515     02F6                     l2195:
  4516     02F6  084A               	movf	___fldiv@rem+3,w
  4517     02F7  0449               	iorwf	___fldiv@rem+2,w
  4518     02F8  0448               	iorwf	___fldiv@rem+1,w
  4519     02F9  0447               	iorwf	___fldiv@rem,w
  4520     02FA  1903               	skipnz
  4521     02FB  2AFD               	goto	u2731
  4522     02FC  2AFE               	goto	u2730
  4523     02FD                     u2731:
  4524     02FD  2B17               	goto	l2209
  4525     02FE                     u2730:
  4526     02FE                     l2197:
  4527     02FE  144E               	bsf	___fldiv@grs,0
  4528     02FF  2B17               	goto	l2209
  4529     0300                     l2199:
  4530     0300  3001               	movlw	1
  4531     0301                     u2745:
  4532     0301  35BE               	lslf	___fldiv@b,f
  4533     0302  0DBF               	rlf	___fldiv@b+1,f
  4534     0303  0DC0               	rlf	___fldiv@b+2,f
  4535     0304  0DC1               	rlf	___fldiv@b+3,f
  4536     0305  0B89               	decfsz	9,f
  4537     0306  2B01               	goto	u2745
  4538     0307                     l2201:
  4539     0307  1FD1               	btfss	___fldiv@grs+3,7
  4540     0308  2B0A               	goto	u2751
  4541     0309  2B0B               	goto	u2750
  4542     030A                     u2751:
  4543     030A  2B0C               	goto	l2205
  4544     030B                     u2750:
  4545     030B                     l2203:
  4546     030B  143E               	bsf	___fldiv@b,0
  4547     030C                     l2205:
  4548     030C  3001               	movlw	1
  4549     030D                     u2765:
  4550     030D  35CE               	lslf	___fldiv@grs,f
  4551     030E  0DCF               	rlf	___fldiv@grs+1,f
  4552     030F  0DD0               	rlf	___fldiv@grs+2,f
  4553     0310  0DD1               	rlf	___fldiv@grs+3,f
  4554     0311  0B89               	decfsz	9,f
  4555     0312  2B0D               	goto	u2765
  4556     0313                     l2207:
  4557     0313  30FF               	movlw	255
  4558     0314  07CC               	addwf	___fldiv@new_exp,f
  4559     0315  30FF               	movlw	255
  4560     0316  3DCD               	addwfc	___fldiv@new_exp+1,f
  4561     0317                     l2209:
  4562     0317  1FC0               	btfss	___fldiv@b+2,7
  4563     0318  2B1A               	goto	u2771
  4564     0319  2B1B               	goto	u2770
  4565     031A                     u2771:
  4566     031A  2B00               	goto	l2199
  4567     031B                     u2770:
  4568     031B                     l2211:
  4569     031B  01D3               	clrf	___fldiv@aexp
  4570     031C                     l2213:
  4571     031C  1FD1               	btfss	___fldiv@grs+3,7
  4572     031D  2B1F               	goto	u2781
  4573     031E  2B20               	goto	u2780
  4574     031F                     u2781:
  4575     031F  2B3C               	goto	l2221
  4576     0320                     u2780:
  4577     0320                     l2215:
  4578     0320  30FF               	movlw	255
  4579     0321  054E               	andwf	___fldiv@grs,w
  4580     0322  00C2               	movwf	??___fldiv
  4581     0323  30FF               	movlw	255
  4582     0324  054F               	andwf	___fldiv@grs+1,w
  4583     0325  00C3               	movwf	??___fldiv+1
  4584     0326  30FF               	movlw	255
  4585     0327  0550               	andwf	___fldiv@grs+2,w
  4586     0328  00C4               	movwf	??___fldiv+2
  4587     0329  307F               	movlw	127
  4588     032A  0551               	andwf	___fldiv@grs+3,w
  4589     032B  00C5               	movwf	??___fldiv+3
  4590     032C  0845               	movf	??___fldiv+3,w
  4591     032D  0444               	iorwf	??___fldiv+2,w
  4592     032E  0443               	iorwf	??___fldiv+1,w
  4593     032F  0442               	iorwf	??___fldiv,w
  4594     0330  1903               	skipnz
  4595     0331  2B33               	goto	u2791
  4596     0332  2B34               	goto	u2790
  4597     0333                     u2791:
  4598     0333  2B37               	goto	l714
  4599     0334                     u2790:
  4600     0334                     l2217:
  4601     0334  01D3               	clrf	___fldiv@aexp
  4602     0335  0AD3               	incf	___fldiv@aexp,f
  4603     0336  2B3C               	goto	l2221
  4604     0337                     l714:
  4605     0337  1C3E               	btfss	___fldiv@b,0
  4606     0338  2B3A               	goto	u2801
  4607     0339  2B3B               	goto	u2800
  4608     033A                     u2801:
  4609     033A  2B3C               	goto	l2221
  4610     033B                     u2800:
  4611     033B  2B34               	goto	l2217
  4612     033C                     l2221:
  4613     033C  0853               	movf	___fldiv@aexp,w
  4614     033D  1903               	btfsc	3,2
  4615     033E  2B40               	goto	u2811
  4616     033F  2B41               	goto	u2810
  4617     0340                     u2811:
  4618     0340  2B69               	goto	l2231
  4619     0341                     u2810:
  4620     0341                     l2223:
  4621     0341  3001               	movlw	1
  4622     0342  07BE               	addwf	___fldiv@b,f
  4623     0343  3000               	movlw	0
  4624     0344  3DBF               	addwfc	___fldiv@b+1,f
  4625     0345  3000               	movlw	0
  4626     0346  3DC0               	addwfc	___fldiv@b+2,f
  4627     0347  3000               	movlw	0
  4628     0348  3DC1               	addwfc	___fldiv@b+3,f
  4629     0349                     l2225:
  4630     0349  1C41               	btfss	___fldiv@b+3,0
  4631     034A  2B4C               	goto	u2821
  4632     034B  2B4D               	goto	u2820
  4633     034C                     u2821:
  4634     034C  2B69               	goto	l2231
  4635     034D                     u2820:
  4636     034D                     l2227:
  4637     034D  083E               	movf	___fldiv@b,w
  4638     034E  00C2               	movwf	??___fldiv
  4639     034F  083F               	movf	___fldiv@b+1,w
  4640     0350  00C3               	movwf	??___fldiv+1
  4641     0351  0840               	movf	___fldiv@b+2,w
  4642     0352  00C4               	movwf	??___fldiv+2
  4643     0353  0841               	movf	___fldiv@b+3,w
  4644     0354  00C5               	movwf	??___fldiv+3
  4645     0355  3001               	movlw	1
  4646     0356  00C6               	movwf	??___fldiv+4
  4647     0357                     u2835:
  4648     0357  37C5               	asrf	??___fldiv+3,f
  4649     0358  0CC4               	rrf	??___fldiv+2,f
  4650     0359  0CC3               	rrf	??___fldiv+1,f
  4651     035A  0CC2               	rrf	??___fldiv,f
  4652     035B                     u2830:
  4653     035B  0BC6               	decfsz	??___fldiv+4,f
  4654     035C  2B57               	goto	u2835
  4655     035D  0845               	movf	??___fldiv+3,w
  4656     035E  00C1               	movwf	___fldiv@b+3
  4657     035F  0844               	movf	??___fldiv+2,w
  4658     0360  00C0               	movwf	___fldiv@b+2
  4659     0361  0843               	movf	??___fldiv+1,w
  4660     0362  00BF               	movwf	___fldiv@b+1
  4661     0363  0842               	movf	??___fldiv,w
  4662     0364  00BE               	movwf	___fldiv@b
  4663     0365                     l2229:
  4664     0365  3001               	movlw	1
  4665     0366  07CC               	addwf	___fldiv@new_exp,f
  4666     0367  3000               	movlw	0
  4667     0368  3DCD               	addwfc	___fldiv@new_exp+1,f
  4668     0369                     l2231:
  4669     0369  084D               	movf	___fldiv@new_exp+1,w
  4670     036A  3A80               	xorlw	128
  4671     036B  00C2               	movwf	??___fldiv
  4672     036C  3080               	movlw	128
  4673     036D  0242               	subwf	??___fldiv,w
  4674     036E  1D03               	skipz
  4675     036F  2B72               	goto	u2845
  4676     0370  30FF               	movlw	255
  4677     0371  024C               	subwf	___fldiv@new_exp,w
  4678     0372                     u2845:
  4679     0372  1C03               	skipc
  4680     0373  2B75               	goto	u2841
  4681     0374  2B76               	goto	u2840
  4682     0375                     u2841:
  4683     0375  2B83               	goto	l719
  4684     0376                     u2840:
  4685     0376                     l2233:
  4686     0376  30FF               	movlw	255
  4687     0377  0020               	movlb	0	; select bank0
  4688     0378  00CC               	movwf	___fldiv@new_exp
  4689     0379  3000               	movlw	0
  4690     037A  00CD               	movwf	___fldiv@new_exp+1
  4691     037B  3000               	movlw	0
  4692     037C  00C1               	movwf	___fldiv@b+3
  4693     037D  3000               	movlw	0
  4694     037E  00C0               	movwf	___fldiv@b+2
  4695     037F  3000               	movlw	0
  4696     0380  00BF               	movwf	___fldiv@b+1
  4697     0381  3000               	movlw	0
  4698     0382  00BE               	movwf	___fldiv@b
  4699     0383                     l719:
  4700     0383  0020               	movlb	0	; select bank0
  4701     0384  084D               	movf	___fldiv@new_exp+1,w
  4702     0385  3A80               	xorlw	128
  4703     0386  00C2               	movwf	??___fldiv
  4704     0387  3080               	movlw	128
  4705     0388  0242               	subwf	??___fldiv,w
  4706     0389  1D03               	skipz
  4707     038A  2B8D               	goto	u2855
  4708     038B  3001               	movlw	1
  4709     038C  024C               	subwf	___fldiv@new_exp,w
  4710     038D                     u2855:
  4711     038D  1803               	skipnc
  4712     038E  2B90               	goto	u2851
  4713     038F  2B91               	goto	u2850
  4714     0390                     u2851:
  4715     0390  2B9D               	goto	l720
  4716     0391                     u2850:
  4717     0391                     l2235:
  4718     0391  0020               	movlb	0	; select bank0
  4719     0392  01CC               	clrf	___fldiv@new_exp
  4720     0393  01CD               	clrf	___fldiv@new_exp+1
  4721     0394                     l2237:
  4722     0394  3000               	movlw	0
  4723     0395  00C1               	movwf	___fldiv@b+3
  4724     0396  3000               	movlw	0
  4725     0397  00C0               	movwf	___fldiv@b+2
  4726     0398  3000               	movlw	0
  4727     0399  00BF               	movwf	___fldiv@b+1
  4728     039A  3000               	movlw	0
  4729     039B  00BE               	movwf	___fldiv@b
  4730     039C                     l2239:
  4731     039C  01CB               	clrf	___fldiv@sign
  4732     039D                     l720:
  4733     039D  0020               	movlb	0	; select bank0
  4734     039E  084C               	movf	___fldiv@new_exp,w
  4735     039F  00D2               	movwf	___fldiv@bexp
  4736     03A0                     l2241:
  4737     03A0  1C52               	btfss	___fldiv@bexp,0
  4738     03A1  2BA3               	goto	u2861
  4739     03A2  2BA4               	goto	u2860
  4740     03A3                     u2861:
  4741     03A3  2BA6               	goto	l2245
  4742     03A4                     u2860:
  4743     03A4                     l2243:
  4744     03A4  17C0               	bsf	___fldiv@b+2,7
  4745     03A5  2BAA               	goto	l722
  4746     03A6                     l2245:
  4747     03A6  307F               	movlw	127
  4748     03A7  00C2               	movwf	??___fldiv
  4749     03A8  0842               	movf	??___fldiv,w
  4750     03A9  05C0               	andwf	___fldiv@b+2,f
  4751     03AA                     l722:
  4752     03AA  3652               	lsrf	___fldiv@bexp,w
  4753     03AB  00C1               	movwf	___fldiv@b+3
  4754     03AC  084B               	movf	___fldiv@sign,w
  4755     03AD  00C2               	movwf	??___fldiv
  4756     03AE  0842               	movf	??___fldiv,w
  4757     03AF  04C1               	iorwf	___fldiv@b+3,f
  4758     03B0  2A71               	goto	l2155
  4759     03B1                     l700:
  4760     03B1  0008               	return
  4761     03B2                     __end_of___fldiv:
  4762                           
  4763                           	psect	text16
  4764     03B2                     __ptext16:	
  4765 ;; *************** function ___fladd *****************
  4766 ;; Defined at:
  4767 ;;		line 10 in file "C:\XC8\pic\sources\c99\common\sprcadd.c"
  4768 ;; Parameters:    Size  Location     Type
  4769 ;;  b               4   52[BANK0 ] unsigned char 
  4770 ;;  a               4   56[BANK0 ] unsigned char 
  4771 ;; Auto vars:     Size  Location     Type
  4772 ;;  grs             1   71[BANK0 ] unsigned char 
  4773 ;;  bexp            1   70[BANK0 ] unsigned char 
  4774 ;;  aexp            1   69[BANK0 ] unsigned char 
  4775 ;;  signs           1   68[BANK0 ] unsigned char 
  4776 ;; Return value:  Size  Location     Type
  4777 ;;                  4   52[BANK0 ] unsigned char 
  4778 ;; Registers used:
  4779 ;;		wreg, status,2, status,0
  4780 ;; Tracked objects:
  4781 ;;		On entry : 0/0
  4782 ;;		On exit  : 0/0
  4783 ;;		Unchanged: 0/0
  4784 ;; Data sizes:     COMMON   BANK0   BANK1   BANK2
  4785 ;;      Params:         0       8       0       0
  4786 ;;      Locals:         0       4       0       0
  4787 ;;      Temps:          0       8       0       0
  4788 ;;      Totals:         0      20       0       0
  4789 ;;Total ram usage:       20 bytes
  4790 ;; Hardware stack levels used: 1
  4791 ;; This function calls:
  4792 ;;		Nothing
  4793 ;; This function is called by:
  4794 ;;		_GXHT30_read_result
  4795 ;; This function uses a non-reentrant model
  4796 ;;
  4797                           
  4798     03B2                     ___fladd:	
  4799                           ;psect for function ___fladd
  4800                           
  4801     03B2                     l1917:	
  4802                           ;incstack = 0
  4803                           ; Regs used in ___fladd: [wreg+status,2+status,0]
  4804                           
  4805     03B2  0020               	movlb	0	; select bank0
  4806     03B3  0857               	movf	___fladd@b+3,w
  4807     03B4  3980               	andlw	128
  4808     03B5  00E4               	movwf	___fladd@signs
  4809     03B6                     l1919:
  4810     03B6  3557               	lslf	___fladd@b+3,w
  4811     03B7  00E6               	movwf	___fladd@bexp
  4812     03B8                     l1921:
  4813     03B8  1FD6               	btfss	___fladd@b+2,7
  4814     03B9  2BBB               	goto	u2151
  4815     03BA  2BBC               	goto	u2150
  4816     03BB                     u2151:
  4817     03BB  2BBD               	goto	l1925
  4818     03BC                     u2150:
  4819     03BC                     l1923:
  4820     03BC  1466               	bsf	___fladd@bexp,0
  4821     03BD                     l1925:
  4822     03BD  0866               	movf	___fladd@bexp,w
  4823     03BE  1903               	btfsc	3,2
  4824     03BF  2BC1               	goto	u2161
  4825     03C0  2BC2               	goto	u2160
  4826     03C1                     u2161:
  4827     03C1  2BD2               	goto	l1935
  4828     03C2                     u2160:
  4829     03C2                     l1927:
  4830     03C2  0A66               	incf	___fladd@bexp,w
  4831     03C3  1D03               	btfss	3,2
  4832     03C4  2BC6               	goto	u2171
  4833     03C5  2BC7               	goto	u2170
  4834     03C6                     u2171:
  4835     03C6  2BCF               	goto	l1931
  4836     03C7                     u2170:
  4837     03C7                     l1929:
  4838     03C7  3000               	movlw	0
  4839     03C8  00D7               	movwf	___fladd@b+3
  4840     03C9  3000               	movlw	0
  4841     03CA  00D6               	movwf	___fladd@b+2
  4842     03CB  3000               	movlw	0
  4843     03CC  00D5               	movwf	___fladd@b+1
  4844     03CD  3000               	movlw	0
  4845     03CE  00D4               	movwf	___fladd@b
  4846     03CF                     l1931:
  4847     03CF  17D6               	bsf	___fladd@b+2,7
  4848     03D0                     l1933:
  4849     03D0  01D7               	clrf	___fladd@b+3
  4850     03D1  2BDA               	goto	l1937
  4851     03D2                     l1935:
  4852     03D2  3000               	movlw	0
  4853     03D3  00D7               	movwf	___fladd@b+3
  4854     03D4  3000               	movlw	0
  4855     03D5  00D6               	movwf	___fladd@b+2
  4856     03D6  3000               	movlw	0
  4857     03D7  00D5               	movwf	___fladd@b+1
  4858     03D8  3000               	movlw	0
  4859     03D9  00D4               	movwf	___fladd@b
  4860     03DA                     l1937:
  4861     03DA  085B               	movf	___fladd@a+3,w
  4862     03DB  3980               	andlw	128
  4863     03DC  00E5               	movwf	___fladd@aexp
  4864     03DD                     l1939:
  4865     03DD  0865               	movf	___fladd@aexp,w
  4866     03DE  0664               	xorwf	___fladd@signs,w
  4867     03DF  1903               	skipnz
  4868     03E0  2BE2               	goto	u2181
  4869     03E1  2BE3               	goto	u2180
  4870     03E2                     u2181:
  4871     03E2  2BE4               	goto	l1943
  4872     03E3                     u2180:
  4873     03E3                     l1941:
  4874     03E3  1764               	bsf	___fladd@signs,6
  4875     03E4                     l1943:
  4876     03E4  355B               	lslf	___fladd@a+3,w
  4877     03E5  00E5               	movwf	___fladd@aexp
  4878     03E6                     l1945:
  4879     03E6  1FDA               	btfss	___fladd@a+2,7
  4880     03E7  2BE9               	goto	u2191
  4881     03E8  2BEA               	goto	u2190
  4882     03E9                     u2191:
  4883     03E9  2BEB               	goto	l1949
  4884     03EA                     u2190:
  4885     03EA                     l1947:
  4886     03EA  1465               	bsf	___fladd@aexp,0
  4887     03EB                     l1949:
  4888     03EB  0865               	movf	___fladd@aexp,w
  4889     03EC  1903               	btfsc	3,2
  4890     03ED  2BEF               	goto	u2201
  4891     03EE  2BF0               	goto	u2200
  4892     03EF                     u2201:
  4893     03EF  2C00               	goto	l1959
  4894     03F0                     u2200:
  4895     03F0                     l1951:
  4896     03F0  0A65               	incf	___fladd@aexp,w
  4897     03F1  1D03               	btfss	3,2
  4898     03F2  2BF4               	goto	u2211
  4899     03F3  2BF5               	goto	u2210
  4900     03F4                     u2211:
  4901     03F4  2BFD               	goto	l1955
  4902     03F5                     u2210:
  4903     03F5                     l1953:
  4904     03F5  3000               	movlw	0
  4905     03F6  00DB               	movwf	___fladd@a+3
  4906     03F7  3000               	movlw	0
  4907     03F8  00DA               	movwf	___fladd@a+2
  4908     03F9  3000               	movlw	0
  4909     03FA  00D9               	movwf	___fladd@a+1
  4910     03FB  3000               	movlw	0
  4911     03FC  00D8               	movwf	___fladd@a
  4912     03FD                     l1955:
  4913     03FD  17DA               	bsf	___fladd@a+2,7
  4914     03FE                     l1957:
  4915     03FE  01DB               	clrf	___fladd@a+3
  4916     03FF  2C08               	goto	l642
  4917     0400                     l1959:
  4918     0400  3000               	movlw	0
  4919     0401  00DB               	movwf	___fladd@a+3
  4920     0402  3000               	movlw	0
  4921     0403  00DA               	movwf	___fladd@a+2
  4922     0404  3000               	movlw	0
  4923     0405  00D9               	movwf	___fladd@a+1
  4924     0406  3000               	movlw	0
  4925     0407  00D8               	movwf	___fladd@a
  4926     0408                     l642:
  4927     0408  0866               	movf	___fladd@bexp,w
  4928     0409  0265               	subwf	___fladd@aexp,w
  4929     040A  1803               	skipnc
  4930     040B  2C0D               	goto	u2221
  4931     040C  2C0E               	goto	u2220
  4932     040D                     u2221:
  4933     040D  2C34               	goto	l1995
  4934     040E                     u2220:
  4935     040E                     l1961:
  4936     040E  1F64               	btfss	___fladd@signs,6
  4937     040F  2C11               	goto	u2231
  4938     0410  2C12               	goto	u2230
  4939     0411                     u2231:
  4940     0411  2C16               	goto	l1965
  4941     0412                     u2230:
  4942     0412                     l1963:
  4943     0412  3080               	movlw	128
  4944     0413  00DC               	movwf	??___fladd
  4945     0414  085C               	movf	??___fladd,w
  4946     0415  06E4               	xorwf	___fladd@signs,f
  4947     0416                     l1965:
  4948     0416  0866               	movf	___fladd@bexp,w
  4949     0417  00E7               	movwf	___fladd@grs
  4950     0418                     l1967:
  4951     0418  0865               	movf	___fladd@aexp,w
  4952     0419  00E6               	movwf	___fladd@bexp
  4953     041A                     l1969:
  4954     041A  0867               	movf	___fladd@grs,w
  4955     041B  00E5               	movwf	___fladd@aexp
  4956     041C                     l1971:
  4957     041C  0854               	movf	___fladd@b,w
  4958     041D  00E7               	movwf	___fladd@grs
  4959     041E                     l1973:
  4960     041E  0858               	movf	___fladd@a,w
  4961     041F  00D4               	movwf	___fladd@b
  4962     0420                     l1975:
  4963     0420  0867               	movf	___fladd@grs,w
  4964     0421  00D8               	movwf	___fladd@a
  4965     0422                     l1977:
  4966     0422  0855               	movf	___fladd@b+1,w
  4967     0423  00E7               	movwf	___fladd@grs
  4968     0424                     l1979:
  4969     0424  0859               	movf	___fladd@a+1,w
  4970     0425  00D5               	movwf	___fladd@b+1
  4971     0426                     l1981:
  4972     0426  0867               	movf	___fladd@grs,w
  4973     0427  00D9               	movwf	___fladd@a+1
  4974     0428                     l1983:
  4975     0428  0856               	movf	___fladd@b+2,w
  4976     0429  00E7               	movwf	___fladd@grs
  4977     042A                     l1985:
  4978     042A  085A               	movf	___fladd@a+2,w
  4979     042B  00D6               	movwf	___fladd@b+2
  4980     042C                     l1987:
  4981     042C  0867               	movf	___fladd@grs,w
  4982     042D  00DA               	movwf	___fladd@a+2
  4983     042E                     l1989:
  4984     042E  0857               	movf	___fladd@b+3,w
  4985     042F  00E7               	movwf	___fladd@grs
  4986     0430                     l1991:
  4987     0430  085B               	movf	___fladd@a+3,w
  4988     0431  00D7               	movwf	___fladd@b+3
  4989     0432                     l1993:
  4990     0432  0867               	movf	___fladd@grs,w
  4991     0433  00DB               	movwf	___fladd@a+3
  4992     0434                     l1995:
  4993     0434  01E7               	clrf	___fladd@grs
  4994     0435                     l1997:
  4995     0435  0865               	movf	___fladd@aexp,w
  4996     0436  00DC               	movwf	??___fladd
  4997     0437  01DD               	clrf	??___fladd+1
  4998     0438  085D               	movf	??___fladd+1,w
  4999     0439  00DF               	movwf	??___fladd+3
  5000     043A  0866               	movf	___fladd@bexp,w
  5001     043B  025C               	subwf	??___fladd,w
  5002     043C  00DE               	movwf	??___fladd+2
  5003     043D  1C03               	skipc
  5004     043E  03DF               	decf	??___fladd+3,f
  5005     043F  085F               	movf	??___fladd+3,w
  5006     0440  3A80               	xorlw	128
  5007     0441  00E0               	movwf	??___fladd+4
  5008     0442  3080               	movlw	128
  5009     0443  0260               	subwf	??___fladd+4,w
  5010     0444  1D03               	skipz
  5011     0445  2C48               	goto	u2245
  5012     0446  301A               	movlw	26
  5013     0447  025E               	subwf	??___fladd+2,w
  5014     0448                     u2245:
  5015     0448  1C03               	skipc
  5016     0449  2C4B               	goto	u2241
  5017     044A  2C4C               	goto	u2240
  5018     044B                     u2241:
  5019     044B  2C7E               	goto	l2013
  5020     044C                     u2240:
  5021     044C                     l1999:
  5022     044C  0020               	movlb	0	; select bank0
  5023     044D  0857               	movf	___fladd@b+3,w
  5024     044E  0456               	iorwf	___fladd@b+2,w
  5025     044F  0455               	iorwf	___fladd@b+1,w
  5026     0450  0454               	iorwf	___fladd@b,w
  5027     0451  1D03               	skipz
  5028     0452  2C54               	goto	u2251
  5029     0453  2C56               	goto	u2250
  5030     0454                     u2251:
  5031     0454  3001               	movlw	1
  5032     0455  2C57               	goto	u2260
  5033     0456                     u2250:
  5034     0456  3000               	movlw	0
  5035     0457                     u2260:
  5036     0457  00E7               	movwf	___fladd@grs
  5037     0458  3000               	movlw	0
  5038     0459  00D7               	movwf	___fladd@b+3
  5039     045A  3000               	movlw	0
  5040     045B  00D6               	movwf	___fladd@b+2
  5041     045C  3000               	movlw	0
  5042     045D  00D5               	movwf	___fladd@b+1
  5043     045E  3000               	movlw	0
  5044     045F  00D4               	movwf	___fladd@b
  5045     0460  0865               	movf	___fladd@aexp,w
  5046     0461  00E6               	movwf	___fladd@bexp
  5047     0462  2C85               	goto	l646
  5048     0463                     l648:
  5049     0463  1C67               	btfss	___fladd@grs,0
  5050     0464  2C66               	goto	u2271
  5051     0465  2C67               	goto	u2270
  5052     0466                     u2271:
  5053     0466  2C6B               	goto	l2003
  5054     0467                     u2270:
  5055     0467                     l2001:
  5056     0467  3667               	lsrf	___fladd@grs,w
  5057     0468  3801               	iorlw	1
  5058     0469  00E7               	movwf	___fladd@grs
  5059     046A  2C6D               	goto	l2005
  5060     046B                     l2003:
  5061     046B  1003               	clrc
  5062     046C  0CE7               	rrf	___fladd@grs,f
  5063     046D                     l2005:
  5064     046D  1C54               	btfss	___fladd@b,0
  5065     046E  2C70               	goto	u2281
  5066     046F  2C71               	goto	u2280
  5067     0470                     u2281:
  5068     0470  2C72               	goto	l2009
  5069     0471                     u2280:
  5070     0471                     l2007:
  5071     0471  17E7               	bsf	___fladd@grs,7
  5072     0472                     l2009:
  5073     0472  3001               	movlw	1
  5074     0473  00DC               	movwf	??___fladd
  5075     0474                     u2295:
  5076     0474  37D7               	asrf	___fladd@b+3,f
  5077     0475  0CD6               	rrf	___fladd@b+2,f
  5078     0476  0CD5               	rrf	___fladd@b+1,f
  5079     0477  0CD4               	rrf	___fladd@b,f
  5080     0478  0BDC               	decfsz	??___fladd& (0+127),f
  5081     0479  2C74               	goto	u2295
  5082     047A                     l2011:
  5083     047A  3001               	movlw	1
  5084     047B  00DC               	movwf	??___fladd
  5085     047C  085C               	movf	??___fladd,w
  5086     047D  07E6               	addwf	___fladd@bexp,f
  5087     047E                     l2013:
  5088     047E  0020               	movlb	0	; select bank0
  5089     047F  0865               	movf	___fladd@aexp,w
  5090     0480  0266               	subwf	___fladd@bexp,w
  5091     0481  1C03               	skipc
  5092     0482  2C84               	goto	u2301
  5093     0483  2C85               	goto	u2300
  5094     0484                     u2301:
  5095     0484  2C63               	goto	l648
  5096     0485                     u2300:
  5097     0485                     l646:
  5098     0485  1B64               	btfsc	___fladd@signs,6
  5099     0486  2C88               	goto	u2311
  5100     0487  2C89               	goto	u2310
  5101     0488                     u2311:
  5102     0488  2CBF               	goto	l2039
  5103     0489                     u2310:
  5104     0489                     l2015:
  5105     0489  0866               	movf	___fladd@bexp,w
  5106     048A  1D03               	btfss	3,2
  5107     048B  2C8D               	goto	u2321
  5108     048C  2C8E               	goto	u2320
  5109     048D                     u2321:
  5110     048D  2C97               	goto	l2021
  5111     048E                     u2320:
  5112     048E                     l2017:
  5113     048E  3000               	movlw	0
  5114     048F  00D7               	movwf	?___fladd+3
  5115     0490  3000               	movlw	0
  5116     0491  00D6               	movwf	?___fladd+2
  5117     0492  3000               	movlw	0
  5118     0493  00D5               	movwf	?___fladd+1
  5119     0494  3000               	movlw	0
  5120     0495  00D4               	movwf	?___fladd
  5121     0496  2DB9               	goto	l655
  5122     0497                     l2021:
  5123     0497  0858               	movf	___fladd@a,w
  5124     0498  07D4               	addwf	___fladd@b,f
  5125     0499  0859               	movf	___fladd@a+1,w
  5126     049A  3DD5               	addwfc	___fladd@b+1,f
  5127     049B  085A               	movf	___fladd@a+2,w
  5128     049C  3DD6               	addwfc	___fladd@b+2,f
  5129     049D  085B               	movf	___fladd@a+3,w
  5130     049E  3DD7               	addwfc	___fladd@b+3,f
  5131     049F                     l2023:
  5132     049F  1C57               	btfss	___fladd@b+3,0
  5133     04A0  2CA2               	goto	u2331
  5134     04A1  2CA3               	goto	u2330
  5135     04A2                     u2331:
  5136     04A2  2D4B               	goto	l2073
  5137     04A3                     u2330:
  5138     04A3                     l2025:
  5139     04A3  1C67               	btfss	___fladd@grs,0
  5140     04A4  2CA6               	goto	u2341
  5141     04A5  2CA7               	goto	u2340
  5142     04A6                     u2341:
  5143     04A6  2CAB               	goto	l2029
  5144     04A7                     u2340:
  5145     04A7                     l2027:
  5146     04A7  3667               	lsrf	___fladd@grs,w
  5147     04A8  3801               	iorlw	1
  5148     04A9  00E7               	movwf	___fladd@grs
  5149     04AA  2CAD               	goto	l2031
  5150     04AB                     l2029:
  5151     04AB  1003               	clrc
  5152     04AC  0CE7               	rrf	___fladd@grs,f
  5153     04AD                     l2031:
  5154     04AD  1C54               	btfss	___fladd@b,0
  5155     04AE  2CB0               	goto	u2351
  5156     04AF  2CB1               	goto	u2350
  5157     04B0                     u2351:
  5158     04B0  2CB2               	goto	l2035
  5159     04B1                     u2350:
  5160     04B1                     l2033:
  5161     04B1  17E7               	bsf	___fladd@grs,7
  5162     04B2                     l2035:
  5163     04B2  3001               	movlw	1
  5164     04B3  00DC               	movwf	??___fladd
  5165     04B4                     u2365:
  5166     04B4  37D7               	asrf	___fladd@b+3,f
  5167     04B5  0CD6               	rrf	___fladd@b+2,f
  5168     04B6  0CD5               	rrf	___fladd@b+1,f
  5169     04B7  0CD4               	rrf	___fladd@b,f
  5170     04B8  0BDC               	decfsz	??___fladd& (0+127),f
  5171     04B9  2CB4               	goto	u2365
  5172     04BA                     l2037:
  5173     04BA  3001               	movlw	1
  5174     04BB  00DC               	movwf	??___fladd
  5175     04BC  085C               	movf	??___fladd,w
  5176     04BD  07E6               	addwf	___fladd@bexp,f
  5177     04BE  2D4B               	goto	l2073
  5178     04BF                     l2039:
  5179     04BF  0857               	movf	___fladd@b+3,w
  5180     04C0  3A80               	xorlw	128
  5181     04C1  00DC               	movwf	??___fladd
  5182     04C2  085B               	movf	___fladd@a+3,w
  5183     04C3  3A80               	xorlw	128
  5184     04C4  025C               	subwf	??___fladd,w
  5185     04C5  1D03               	skipz
  5186     04C6  2CD1               	goto	u2373
  5187     04C7  085A               	movf	___fladd@a+2,w
  5188     04C8  0256               	subwf	___fladd@b+2,w
  5189     04C9  1D03               	skipz
  5190     04CA  2CD1               	goto	u2373
  5191     04CB  0859               	movf	___fladd@a+1,w
  5192     04CC  0255               	subwf	___fladd@b+1,w
  5193     04CD  1D03               	skipz
  5194     04CE  2CD1               	goto	u2373
  5195     04CF  0858               	movf	___fladd@a,w
  5196     04D0  0254               	subwf	___fladd@b,w
  5197     04D1                     u2373:
  5198     04D1  1803               	skipnc
  5199     04D2  2CD4               	goto	u2371
  5200     04D3  2CD5               	goto	u2370
  5201     04D4                     u2371:
  5202     04D4  2D0D               	goto	l2049
  5203     04D5                     u2370:
  5204     04D5                     l2041:
  5205     04D5  30FF               	movlw	255
  5206     04D6  00DC               	movwf	??___fladd
  5207     04D7  30FF               	movlw	255
  5208     04D8  00DD               	movwf	??___fladd+1
  5209     04D9  30FF               	movlw	255
  5210     04DA  00DE               	movwf	??___fladd+2
  5211     04DB  30FF               	movlw	255
  5212     04DC  00DF               	movwf	??___fladd+3
  5213     04DD  0854               	movf	___fladd@b,w
  5214     04DE  0258               	subwf	___fladd@a,w
  5215     04DF  00E0               	movwf	??___fladd+4
  5216     04E0  0855               	movf	___fladd@b+1,w
  5217     04E1  3B59               	subwfb	___fladd@a+1,w
  5218     04E2  00E1               	movwf	??___fladd+5
  5219     04E3  0856               	movf	___fladd@b+2,w
  5220     04E4  3B5A               	subwfb	___fladd@a+2,w
  5221     04E5  00E2               	movwf	??___fladd+6
  5222     04E6  0857               	movf	___fladd@b+3,w
  5223     04E7  3B5B               	subwfb	___fladd@a+3,w
  5224     04E8  00E3               	movwf	??___fladd+7
  5225     04E9  0860               	movf	??___fladd+4,w
  5226     04EA  07DC               	addwf	??___fladd,f
  5227     04EB  0861               	movf	??___fladd+5,w
  5228     04EC  3DDD               	addwfc	??___fladd+1,f
  5229     04ED  0862               	movf	??___fladd+6,w
  5230     04EE  3DDE               	addwfc	??___fladd+2,f
  5231     04EF  0863               	movf	??___fladd+7,w
  5232     04F0  3DDF               	addwfc	??___fladd+3,f
  5233     04F1  085F               	movf	??___fladd+3,w
  5234     04F2  00D7               	movwf	___fladd@b+3
  5235     04F3  085E               	movf	??___fladd+2,w
  5236     04F4  00D6               	movwf	___fladd@b+2
  5237     04F5  085D               	movf	??___fladd+1,w
  5238     04F6  00D5               	movwf	___fladd@b+1
  5239     04F7  085C               	movf	??___fladd,w
  5240     04F8  00D4               	movwf	___fladd@b
  5241     04F9                     l2043:
  5242     04F9  3080               	movlw	128
  5243     04FA  00DC               	movwf	??___fladd
  5244     04FB  085C               	movf	??___fladd,w
  5245     04FC  06E4               	xorwf	___fladd@signs,f
  5246     04FD  09E7               	comf	___fladd@grs,f
  5247     04FE  0AE7               	incf	___fladd@grs,f
  5248     04FF                     l2045:
  5249     04FF  0867               	movf	___fladd@grs,w
  5250     0500  1D03               	btfss	3,2
  5251     0501  2D03               	goto	u2381
  5252     0502  2D04               	goto	u2380
  5253     0503                     u2381:
  5254     0503  2D15               	goto	l663
  5255     0504                     u2380:
  5256     0504                     l2047:
  5257     0504  3001               	movlw	1
  5258     0505  07D4               	addwf	___fladd@b,f
  5259     0506  3000               	movlw	0
  5260     0507  3DD5               	addwfc	___fladd@b+1,f
  5261     0508  3000               	movlw	0
  5262     0509  3DD6               	addwfc	___fladd@b+2,f
  5263     050A  3000               	movlw	0
  5264     050B  3DD7               	addwfc	___fladd@b+3,f
  5265     050C  2D15               	goto	l663
  5266     050D                     l2049:
  5267     050D  0858               	movf	___fladd@a,w
  5268     050E  02D4               	subwf	___fladd@b,f
  5269     050F  0859               	movf	___fladd@a+1,w
  5270     0510  3BD5               	subwfb	___fladd@b+1,f
  5271     0511  085A               	movf	___fladd@a+2,w
  5272     0512  3BD6               	subwfb	___fladd@b+2,f
  5273     0513  085B               	movf	___fladd@a+3,w
  5274     0514  3BD7               	subwfb	___fladd@b+3,f
  5275     0515                     l663:
  5276     0515  0857               	movf	___fladd@b+3,w
  5277     0516  0456               	iorwf	___fladd@b+2,w
  5278     0517  0455               	iorwf	___fladd@b+1,w
  5279     0518  0454               	iorwf	___fladd@b,w
  5280     0519  1D03               	skipz
  5281     051A  2D1C               	goto	u2391
  5282     051B  2D1D               	goto	u2390
  5283     051C                     u2391:
  5284     051C  2D47               	goto	l2071
  5285     051D                     u2390:
  5286     051D                     l2051:
  5287     051D  0867               	movf	___fladd@grs,w
  5288     051E  1D03               	btfss	3,2
  5289     051F  2D21               	goto	u2401
  5290     0520  2D22               	goto	u2400
  5291     0521                     u2401:
  5292     0521  2D47               	goto	l2071
  5293     0522                     u2400:
  5294     0522                     l2053:
  5295     0522  3000               	movlw	0
  5296     0523  00D7               	movwf	?___fladd+3
  5297     0524  3000               	movlw	0
  5298     0525  00D6               	movwf	?___fladd+2
  5299     0526  3000               	movlw	0
  5300     0527  00D5               	movwf	?___fladd+1
  5301     0528  3000               	movlw	0
  5302     0529  00D4               	movwf	?___fladd
  5303     052A  2DB9               	goto	l655
  5304     052B                     l2057:
  5305     052B  3001               	movlw	1
  5306     052C                     u2415:
  5307     052C  35D4               	lslf	___fladd@b,f
  5308     052D  0DD5               	rlf	___fladd@b+1,f
  5309     052E  0DD6               	rlf	___fladd@b+2,f
  5310     052F  0DD7               	rlf	___fladd@b+3,f
  5311     0530  0B89               	decfsz	9,f
  5312     0531  2D2C               	goto	u2415
  5313     0532                     l2059:
  5314     0532  1FE7               	btfss	___fladd@grs,7
  5315     0533  2D35               	goto	u2421
  5316     0534  2D36               	goto	u2420
  5317     0535                     u2421:
  5318     0535  2D37               	goto	l667
  5319     0536                     u2420:
  5320     0536                     l2061:
  5321     0536  1454               	bsf	___fladd@b,0
  5322     0537                     l667:
  5323     0537  1C67               	btfss	___fladd@grs,0
  5324     0538  2D3A               	goto	u2431
  5325     0539  2D3B               	goto	u2430
  5326     053A                     u2431:
  5327     053A  2D3E               	goto	l2065
  5328     053B                     u2430:
  5329     053B                     l2063:
  5330     053B  1403               	setc
  5331     053C  0DE7               	rlf	___fladd@grs,f
  5332     053D  2D40               	goto	l2067
  5333     053E                     l2065:
  5334     053E  1003               	clrc
  5335     053F  0DE7               	rlf	___fladd@grs,f
  5336     0540                     l2067:
  5337     0540  0866               	movf	___fladd@bexp,w
  5338     0541  1903               	btfsc	3,2
  5339     0542  2D44               	goto	u2441
  5340     0543  2D45               	goto	u2440
  5341     0544                     u2441:
  5342     0544  2D47               	goto	l2071
  5343     0545                     u2440:
  5344     0545                     l2069:
  5345     0545  3001               	movlw	1
  5346     0546  02E6               	subwf	___fladd@bexp,f
  5347     0547                     l2071:
  5348     0547  1FD6               	btfss	___fladd@b+2,7
  5349     0548  2D4A               	goto	u2451
  5350     0549  2D4B               	goto	u2450
  5351     054A                     u2451:
  5352     054A  2D2B               	goto	l2057
  5353     054B                     u2450:
  5354     054B                     l2073:
  5355     054B  01E5               	clrf	___fladd@aexp
  5356     054C                     l2075:
  5357     054C  1FE7               	btfss	___fladd@grs,7
  5358     054D  2D4F               	goto	u2461
  5359     054E  2D50               	goto	u2460
  5360     054F                     u2461:
  5361     054F  2D5E               	goto	l2083
  5362     0550                     u2460:
  5363     0550                     l2077:
  5364     0550  0867               	movf	___fladd@grs,w
  5365     0551  397F               	andlw	127
  5366     0552  1903               	btfsc	3,2
  5367     0553  2D55               	goto	u2471
  5368     0554  2D56               	goto	u2470
  5369     0555                     u2471:
  5370     0555  2D59               	goto	l673
  5371     0556                     u2470:
  5372     0556                     l2079:
  5373     0556  01E5               	clrf	___fladd@aexp
  5374     0557  0AE5               	incf	___fladd@aexp,f
  5375     0558  2D5E               	goto	l2083
  5376     0559                     l673:
  5377     0559  1C54               	btfss	___fladd@b,0
  5378     055A  2D5C               	goto	u2481
  5379     055B  2D5D               	goto	u2480
  5380     055C                     u2481:
  5381     055C  2D5E               	goto	l2083
  5382     055D                     u2480:
  5383     055D  2D56               	goto	l2079
  5384     055E                     l2083:
  5385     055E  0865               	movf	___fladd@aexp,w
  5386     055F  1903               	btfsc	3,2
  5387     0560  2D62               	goto	u2491
  5388     0561  2D63               	goto	u2490
  5389     0562                     u2491:
  5390     0562  2D90               	goto	l676
  5391     0563                     u2490:
  5392     0563                     l2085:
  5393     0563  3001               	movlw	1
  5394     0564  07D4               	addwf	___fladd@b,f
  5395     0565  3000               	movlw	0
  5396     0566  3DD5               	addwfc	___fladd@b+1,f
  5397     0567  3000               	movlw	0
  5398     0568  3DD6               	addwfc	___fladd@b+2,f
  5399     0569  3000               	movlw	0
  5400     056A  3DD7               	addwfc	___fladd@b+3,f
  5401     056B                     l2087:
  5402     056B  1C57               	btfss	___fladd@b+3,0
  5403     056C  2D6E               	goto	u2501
  5404     056D  2D6F               	goto	u2500
  5405     056E                     u2501:
  5406     056E  2D90               	goto	l676
  5407     056F                     u2500:
  5408     056F                     l2089:
  5409     056F  0854               	movf	___fladd@b,w
  5410     0570  00DC               	movwf	??___fladd
  5411     0571  0855               	movf	___fladd@b+1,w
  5412     0572  00DD               	movwf	??___fladd+1
  5413     0573  0856               	movf	___fladd@b+2,w
  5414     0574  00DE               	movwf	??___fladd+2
  5415     0575  0857               	movf	___fladd@b+3,w
  5416     0576  00DF               	movwf	??___fladd+3
  5417     0577  3001               	movlw	1
  5418     0578  00E0               	movwf	??___fladd+4
  5419     0579                     u2515:
  5420     0579  37DF               	asrf	??___fladd+3,f
  5421     057A  0CDE               	rrf	??___fladd+2,f
  5422     057B  0CDD               	rrf	??___fladd+1,f
  5423     057C  0CDC               	rrf	??___fladd,f
  5424     057D                     u2510:
  5425     057D  0BE0               	decfsz	??___fladd+4,f
  5426     057E  2D79               	goto	u2515
  5427     057F  085F               	movf	??___fladd+3,w
  5428     0580  00D7               	movwf	___fladd@b+3
  5429     0581  085E               	movf	??___fladd+2,w
  5430     0582  00D6               	movwf	___fladd@b+2
  5431     0583  085D               	movf	??___fladd+1,w
  5432     0584  00D5               	movwf	___fladd@b+1
  5433     0585  085C               	movf	??___fladd,w
  5434     0586  00D4               	movwf	___fladd@b
  5435     0587  0A66               	incf	___fladd@bexp,w
  5436     0588  1903               	btfsc	3,2
  5437     0589  2D8B               	goto	u2521
  5438     058A  2D8C               	goto	u2520
  5439     058B                     u2521:
  5440     058B  2D90               	goto	l676
  5441     058C                     u2520:
  5442     058C                     l2091:
  5443     058C  3001               	movlw	1
  5444     058D  00DC               	movwf	??___fladd
  5445     058E  085C               	movf	??___fladd,w
  5446     058F  07E6               	addwf	___fladd@bexp,f
  5447     0590                     l676:
  5448     0590  0A66               	incf	___fladd@bexp,w
  5449     0591  1903               	btfsc	3,2
  5450     0592  2D94               	goto	u2531
  5451     0593  2D95               	goto	u2530
  5452     0594                     u2531:
  5453     0594  2D9A               	goto	l2095
  5454     0595                     u2530:
  5455     0595                     l2093:
  5456     0595  0866               	movf	___fladd@bexp,w
  5457     0596  1D03               	btfss	3,2
  5458     0597  2D99               	goto	u2541
  5459     0598  2D9A               	goto	u2540
  5460     0599                     u2541:
  5461     0599  2DA8               	goto	l2101
  5462     059A                     u2540:
  5463     059A                     l2095:
  5464     059A  3000               	movlw	0
  5465     059B  00D7               	movwf	___fladd@b+3
  5466     059C  3000               	movlw	0
  5467     059D  00D6               	movwf	___fladd@b+2
  5468     059E  3000               	movlw	0
  5469     059F  00D5               	movwf	___fladd@b+1
  5470     05A0  3000               	movlw	0
  5471     05A1  00D4               	movwf	___fladd@b
  5472     05A2                     l2097:
  5473     05A2  0866               	movf	___fladd@bexp,w
  5474     05A3  1D03               	btfss	3,2
  5475     05A4  2DA6               	goto	u2551
  5476     05A5  2DA7               	goto	u2550
  5477     05A6                     u2551:
  5478     05A6  2DA8               	goto	l2101
  5479     05A7                     u2550:
  5480     05A7                     l2099:
  5481     05A7  01E4               	clrf	___fladd@signs
  5482     05A8                     l2101:
  5483     05A8  1C66               	btfss	___fladd@bexp,0
  5484     05A9  2DAB               	goto	u2561
  5485     05AA  2DAC               	goto	u2560
  5486     05AB                     u2561:
  5487     05AB  2DAE               	goto	l2105
  5488     05AC                     u2560:
  5489     05AC                     l2103:
  5490     05AC  17D6               	bsf	___fladd@b+2,7
  5491     05AD  2DB2               	goto	l684
  5492     05AE                     l2105:
  5493     05AE  307F               	movlw	127
  5494     05AF  00DC               	movwf	??___fladd
  5495     05B0  085C               	movf	??___fladd,w
  5496     05B1  05D6               	andwf	___fladd@b+2,f
  5497     05B2                     l684:
  5498     05B2  3666               	lsrf	___fladd@bexp,w
  5499     05B3  00D7               	movwf	___fladd@b+3
  5500     05B4                     l2107:
  5501     05B4  1FE4               	btfss	___fladd@signs,7
  5502     05B5  2DB7               	goto	u2571
  5503     05B6  2DB8               	goto	u2570
  5504     05B7                     u2571:
  5505     05B7  2DB9               	goto	l685
  5506     05B8                     u2570:
  5507     05B8                     l2109:
  5508     05B8  17D7               	bsf	___fladd@b+3,7
  5509     05B9                     l685:
  5510     05B9                     l655:
  5511     05B9  0008               	return
  5512     05BA                     __end_of___fladd:
  5513                           
  5514                           	psect	text17
  5515     0C3A                     __ptext17:	
  5516 ;; *************** function _IIC_WAck *****************
  5517 ;; Defined at:
  5518 ;;		line 80 in file "GXHT30.c"
  5519 ;; Parameters:    Size  Location     Type
  5520 ;;		None
  5521 ;; Auto vars:     Size  Location     Type
  5522 ;;  i               1    1[COMMON] unsigned char 
  5523 ;; Return value:  Size  Location     Type
  5524 ;;                  1    wreg      unsigned char 
  5525 ;; Registers used:
  5526 ;;		wreg, status,2, status,0, pclath, cstack
  5527 ;; Tracked objects:
  5528 ;;		On entry : 0/0
  5529 ;;		On exit  : 0/0
  5530 ;;		Unchanged: 0/0
  5531 ;; Data sizes:     COMMON   BANK0   BANK1   BANK2
  5532 ;;      Params:         0       0       0       0
  5533 ;;      Locals:         1       0       0       0
  5534 ;;      Temps:          1       0       0       0
  5535 ;;      Totals:         2       0       0       0
  5536 ;;Total ram usage:        2 bytes
  5537 ;; Hardware stack levels used: 1
  5538 ;; Hardware stack levels required when called: 1
  5539 ;; This function calls:
  5540 ;;		_IIC_Stop
  5541 ;; This function is called by:
  5542 ;;		_GXHT30_read_result
  5543 ;;		_GXHT30_write_cmd
  5544 ;; This function uses a non-reentrant model
  5545 ;;
  5546                           
  5547     0C3A                     _IIC_WAck:	
  5548                           ;psect for function _IIC_WAck
  5549                           
  5550     0C3A                     l1723:	
  5551                           ;incstack = 0
  5552                           ; Regs used in _IIC_WAck: [wreg+status,2+status,0+pclath+cstack]
  5553                           
  5554                           
  5555                           ;GXHT30.c: 82:  unsigned char i = 0;
  5556     0C3A  01F1               	clrf	IIC_WAck@i
  5557     0C3B                     l1725:
  5558                           
  5559                           ;GXHT30.c: 83:  TRISAbits.TRISA5 = 1;;
  5560     0C3B  0021               	movlb	1	; select bank1
  5561     0C3C  168C               	bsf	12,5	;volatile
  5562     0C3D                     l1727:
  5563                           
  5564                           ;GXHT30.c: 84:  PORTAbits.RA5 = 1;;
  5565     0C3D  0020               	movlb	0	; select bank0
  5566     0C3E  168C               	bsf	12,5	;volatile
  5567     0C3F                     l1729:
  5568                           
  5569                           ;GXHT30.c: 85:  PORTAbits.RA4 = 1;;
  5570     0C3F  160C               	bsf	12,4	;volatile
  5571                           
  5572                           ;GXHT30.c: 87:  while(PORTAbits.RA5)
  5573     0C40  2C56               	goto	l1743
  5574     0C41                     l1731:
  5575                           
  5576                           ;GXHT30.c: 88:  {;GXHT30.c: 89:   if(i >= 255)
  5577     0C41  0A71               	incf	IIC_WAck@i,w
  5578     0C42  1D03               	btfss	3,2
  5579     0C43  2C45               	goto	u1771
  5580     0C44  2C46               	goto	u1770
  5581     0C45                     u1771:
  5582     0C45  2C52               	goto	l1741
  5583     0C46                     u1770:
  5584     0C46                     l1733:
  5585                           
  5586                           ;GXHT30.c: 90:   {;GXHT30.c: 91:    IIC_Stop();
  5587     0C46  318B  23EF  318C   	fcall	_IIC_Stop
  5588     0C49                     l1735:
  5589                           
  5590                           ;GXHT30.c: 92:    _delay((unsigned long)((1)*(8000000/4000.0)));
  5591     0C49  3003               	movlw	3
  5592     0C4A  00F0               	movwf	??_IIC_WAck
  5593     0C4B  3098               	movlw	152
  5594     0C4C                     u3637:
  5595     0C4C  0B89               	decfsz	9,f
  5596     0C4D  2C4C               	goto	u3637
  5597     0C4E  0BF0               	decfsz	??_IIC_WAck,f
  5598     0C4F  2C4C               	goto	u3637
  5599     0C50                     l1737:
  5600                           
  5601                           ;GXHT30.c: 93:    return 1;
  5602     0C50  3001               	movlw	1
  5603     0C51  2C5C               	goto	l162
  5604     0C52                     l1741:
  5605                           
  5606                           ;GXHT30.c: 95:   i++;
  5607     0C52  3001               	movlw	1
  5608     0C53  00F0               	movwf	??_IIC_WAck
  5609     0C54  0870               	movf	??_IIC_WAck,w
  5610     0C55  07F1               	addwf	IIC_WAck@i,f
  5611     0C56                     l1743:
  5612                           
  5613                           ;GXHT30.c: 87:  while(PORTAbits.RA5)
  5614     0C56  1A8C               	btfsc	12,5	;volatile
  5615     0C57  2C59               	goto	u1781
  5616     0C58  2C5A               	goto	u1780
  5617     0C59                     u1781:
  5618     0C59  2C41               	goto	l1731
  5619     0C5A                     u1780:
  5620     0C5A                     l163:
  5621                           
  5622                           ;GXHT30.c: 98:  PORTAbits.RA4 = 0;;
  5623     0C5A  120C               	bcf	12,4	;volatile
  5624     0C5B                     l1745:
  5625                           
  5626                           ;GXHT30.c: 99:  return 0;
  5627     0C5B  3000               	movlw	0
  5628     0C5C                     l162:
  5629     0C5C  0008               	return
  5630     0C5D                     __end_of_IIC_WAck:
  5631                           
  5632                           	psect	text18
  5633     0BEF                     __ptext18:	
  5634 ;; *************** function _IIC_Stop *****************
  5635 ;; Defined at:
  5636 ;;		line 36 in file "GXHT30.c"
  5637 ;; Parameters:    Size  Location     Type
  5638 ;;		None
  5639 ;; Auto vars:     Size  Location     Type
  5640 ;;		None
  5641 ;; Return value:  Size  Location     Type
  5642 ;;                  1    wreg      void 
  5643 ;; Registers used:
  5644 ;;		None
  5645 ;; Tracked objects:
  5646 ;;		On entry : 0/0
  5647 ;;		On exit  : 0/0
  5648 ;;		Unchanged: 0/0
  5649 ;; Data sizes:     COMMON   BANK0   BANK1   BANK2
  5650 ;;      Params:         0       0       0       0
  5651 ;;      Locals:         0       0       0       0
  5652 ;;      Temps:          0       0       0       0
  5653 ;;      Totals:         0       0       0       0
  5654 ;;Total ram usage:        0 bytes
  5655 ;; Hardware stack levels used: 1
  5656 ;; This function calls:
  5657 ;;		Nothing
  5658 ;; This function is called by:
  5659 ;;		_IIC_WAck
  5660 ;;		_GXHT30_read_result
  5661 ;;		_GXHT30_write_cmd
  5662 ;; This function uses a non-reentrant model
  5663 ;;
  5664                           
  5665     0BEF                     _IIC_Stop:	
  5666                           ;psect for function _IIC_Stop
  5667                           
  5668     0BEF                     l1701:	
  5669                           ;incstack = 0
  5670                           ; Regs used in _IIC_Stop: []
  5671                           
  5672                           
  5673                           ;GXHT30.c: 38:  TRISAbits.TRISA5 = 0;;
  5674     0BEF  0021               	movlb	1	; select bank1
  5675     0BF0  128C               	bcf	12,5	;volatile
  5676                           
  5677                           ;GXHT30.c: 39:  PORTAbits.RA4 = 0;;
  5678     0BF1  0020               	movlb	0	; select bank0
  5679     0BF2  120C               	bcf	12,4	;volatile
  5680                           
  5681                           ;GXHT30.c: 41:  PORTAbits.RA5 = 0;;
  5682     0BF3  128C               	bcf	12,5	;volatile
  5683                           
  5684                           ;GXHT30.c: 42:  _delay((unsigned long)((1)*(8000000/4000000.0)));
  5685     0BF4  3200               	nop2	;2 cycle nop
  5686                           
  5687                           ;GXHT30.c: 43:  PORTAbits.RA4 = 1;;
  5688     0BF5  0020               	movlb	0	; select bank0
  5689     0BF6  160C               	bsf	12,4	;volatile
  5690                           
  5691                           ;GXHT30.c: 44:  _delay((unsigned long)((1)*(8000000/4000000.0)));
  5692     0BF7  3200               	nop2	;2 cycle nop
  5693                           
  5694                           ;GXHT30.c: 45:  PORTAbits.RA5 = 1;;
  5695     0BF8  0020               	movlb	0	; select bank0
  5696     0BF9  168C               	bsf	12,5	;volatile
  5697                           
  5698                           ;GXHT30.c: 46:  _delay((unsigned long)((1)*(8000000/4000000.0)));
  5699     0BFA  3200               	nop2	;2 cycle nop
  5700                           
  5701                           ;GXHT30.c: 47:  PORTAbits.RA4 = 0;;
  5702     0BFB  0020               	movlb	0	; select bank0
  5703     0BFC  120C               	bcf	12,4	;volatile
  5704     0BFD                     l150:
  5705     0BFD  0008               	return
  5706     0BFE                     __end_of_IIC_Stop:
  5707                           
  5708                           	psect	text19
  5709     0BE0                     __ptext19:	
  5710 ;; *************** function _IIC_Start *****************
  5711 ;; Defined at:
  5712 ;;		line 20 in file "GXHT30.c"
  5713 ;; Parameters:    Size  Location     Type
  5714 ;;		None
  5715 ;; Auto vars:     Size  Location     Type
  5716 ;;		None
  5717 ;; Return value:  Size  Location     Type
  5718 ;;                  1    wreg      void 
  5719 ;; Registers used:
  5720 ;;		None
  5721 ;; Tracked objects:
  5722 ;;		On entry : 0/0
  5723 ;;		On exit  : 0/0
  5724 ;;		Unchanged: 0/0
  5725 ;; Data sizes:     COMMON   BANK0   BANK1   BANK2
  5726 ;;      Params:         0       0       0       0
  5727 ;;      Locals:         0       0       0       0
  5728 ;;      Temps:          0       0       0       0
  5729 ;;      Totals:         0       0       0       0
  5730 ;;Total ram usage:        0 bytes
  5731 ;; Hardware stack levels used: 1
  5732 ;; This function calls:
  5733 ;;		Nothing
  5734 ;; This function is called by:
  5735 ;;		_GXHT30_read_result
  5736 ;;		_GXHT30_write_cmd
  5737 ;; This function uses a non-reentrant model
  5738 ;;
  5739                           
  5740     0BE0                     _IIC_Start:	
  5741                           ;psect for function _IIC_Start
  5742                           
  5743     0BE0                     l1721:	
  5744                           ;incstack = 0
  5745                           ; Regs used in _IIC_Start: []
  5746                           
  5747                           
  5748                           ;GXHT30.c: 22:  TRISAbits.TRISA5 = 0;;
  5749     0BE0  0021               	movlb	1	; select bank1
  5750     0BE1  128C               	bcf	12,5	;volatile
  5751                           
  5752                           ;GXHT30.c: 23:  PORTAbits.RA4 = 0;;
  5753     0BE2  0020               	movlb	0	; select bank0
  5754     0BE3  120C               	bcf	12,4	;volatile
  5755                           
  5756                           ;GXHT30.c: 25:  PORTAbits.RA5 = 1;;
  5757     0BE4  168C               	bsf	12,5	;volatile
  5758                           
  5759                           ;GXHT30.c: 26:  _delay((unsigned long)((1)*(8000000/4000000.0)));
  5760     0BE5  3200               	nop2	;2 cycle nop
  5761                           
  5762                           ;GXHT30.c: 27:  PORTAbits.RA4 = 1;;
  5763     0BE6  0020               	movlb	0	; select bank0
  5764     0BE7  160C               	bsf	12,4	;volatile
  5765                           
  5766                           ;GXHT30.c: 28:  _delay((unsigned long)((1)*(8000000/4000000.0)));
  5767     0BE8  3200               	nop2	;2 cycle nop
  5768                           
  5769                           ;GXHT30.c: 29:  PORTAbits.RA5 = 0;;
  5770     0BE9  0020               	movlb	0	; select bank0
  5771     0BEA  128C               	bcf	12,5	;volatile
  5772                           
  5773                           ;GXHT30.c: 30:  _delay((unsigned long)((1)*(8000000/4000000.0)));
  5774     0BEB  3200               	nop2	;2 cycle nop
  5775                           
  5776                           ;GXHT30.c: 31:  PORTAbits.RA4 = 0;;
  5777     0BEC  0020               	movlb	0	; select bank0
  5778     0BED  120C               	bcf	12,4	;volatile
  5779     0BEE                     l147:
  5780     0BEE  0008               	return
  5781     0BEF                     __end_of_IIC_Start:
  5782                           
  5783                           	psect	text20
  5784     0C80                     __ptext20:	
  5785 ;; *************** function _IIC_SendByte *****************
  5786 ;; Defined at:
  5787 ;;		line 104 in file "GXHT30.c"
  5788 ;; Parameters:    Size  Location     Type
  5789 ;;  txd             2    0[COMMON] unsigned int 
  5790 ;; Auto vars:     Size  Location     Type
  5791 ;;  i               2    2[COMMON] unsigned int 
  5792 ;; Return value:  Size  Location     Type
  5793 ;;                  1    wreg      void 
  5794 ;; Registers used:
  5795 ;;		wreg, status,2
  5796 ;; Tracked objects:
  5797 ;;		On entry : 0/0
  5798 ;;		On exit  : 0/0
  5799 ;;		Unchanged: 0/0
  5800 ;; Data sizes:     COMMON   BANK0   BANK1   BANK2
  5801 ;;      Params:         2       0       0       0
  5802 ;;      Locals:         2       0       0       0
  5803 ;;      Temps:          0       0       0       0
  5804 ;;      Totals:         4       0       0       0
  5805 ;;Total ram usage:        4 bytes
  5806 ;; Hardware stack levels used: 1
  5807 ;; This function calls:
  5808 ;;		Nothing
  5809 ;; This function is called by:
  5810 ;;		_GXHT30_read_result
  5811 ;;		_GXHT30_write_cmd
  5812 ;; This function uses a non-reentrant model
  5813 ;;
  5814                           
  5815     0C80                     _IIC_SendByte:	
  5816                           ;psect for function _IIC_SendByte
  5817                           
  5818     0C80                     l1749:	
  5819                           ;incstack = 0
  5820                           ; Regs used in _IIC_SendByte: [wreg+status,2]
  5821                           
  5822     0C80                     l1751:
  5823                           
  5824                           ;GXHT30.c: 108:  TRISAbits.TRISA5 = 0;;
  5825     0C80  0021               	movlb	1	; select bank1
  5826     0C81  128C               	bcf	12,5	;volatile
  5827     0C82                     l1753:
  5828                           
  5829                           ;GXHT30.c: 109:  PORTAbits.RA4 = 0;;
  5830     0C82  0020               	movlb	0	; select bank0
  5831     0C83  120C               	bcf	12,4	;volatile
  5832                           
  5833                           ;GXHT30.c: 111:  for(i = 0; i < 8; i++)
  5834     0C84  01F2               	clrf	IIC_SendByte@i
  5835     0C85  01F3               	clrf	IIC_SendByte@i+1
  5836     0C86                     l166:
  5837                           
  5838                           ;GXHT30.c: 112:  {;GXHT30.c: 113:   if((txd & 0x80) > 0)
  5839     0C86  1FF0               	btfss	IIC_SendByte@txd,7
  5840     0C87  2C89               	goto	u1791
  5841     0C88  2C8A               	goto	u1790
  5842     0C89                     u1791:
  5843     0C89  2C8D               	goto	l168
  5844     0C8A                     u1790:
  5845     0C8A                     l1759:
  5846                           
  5847                           ;GXHT30.c: 114:   {;GXHT30.c: 115:    PORTAbits.RA5 = 1;;
  5848     0C8A  0020               	movlb	0	; select bank0
  5849     0C8B  168C               	bsf	12,5	;volatile
  5850                           
  5851                           ;GXHT30.c: 116:   }
  5852     0C8C  2C8F               	goto	l1761
  5853     0C8D                     l168:	
  5854                           ;GXHT30.c: 117:   else
  5855                           
  5856                           
  5857                           ;GXHT30.c: 118:   {;GXHT30.c: 119:    PORTAbits.RA5 = 0;;
  5858     0C8D  0020               	movlb	0	; select bank0
  5859     0C8E  128C               	bcf	12,5	;volatile
  5860     0C8F                     l1761:
  5861                           
  5862                           ;GXHT30.c: 122:   txd <<= 1;
  5863     0C8F  3001               	movlw	1
  5864     0C90                     u1805:
  5865     0C90  35F0               	lslf	IIC_SendByte@txd,f
  5866     0C91  0DF1               	rlf	IIC_SendByte@txd+1,f
  5867     0C92  0B89               	decfsz	9,f
  5868     0C93  2C90               	goto	u1805
  5869     0C94                     l1763:
  5870                           
  5871                           ;GXHT30.c: 123:   PORTAbits.RA4 = 1;;
  5872     0C94  160C               	bsf	12,4	;volatile
  5873     0C95                     l1765:
  5874                           
  5875                           ;GXHT30.c: 124:   _delay((unsigned long)((2)*(8000000/4000000.0)));
  5876     0C95  3200               	nop2	;2 cycle nop
  5877     0C96  3200               	nop2	;2 cycle nop
  5878     0C97                     l1767:
  5879                           
  5880                           ;GXHT30.c: 125:   PORTAbits.RA4 = 0;;
  5881     0C97  0020               	movlb	0	; select bank0
  5882     0C98  120C               	bcf	12,4	;volatile
  5883     0C99                     l1769:
  5884                           
  5885                           ;GXHT30.c: 126:   _delay((unsigned long)((2)*(8000000/4000000.0)));
  5886     0C99  3200               	nop2	;2 cycle nop
  5887     0C9A  3200               	nop2	;2 cycle nop
  5888                           
  5889                           ;GXHT30.c: 127:  }
  5890     0C9B  3001               	movlw	1
  5891     0C9C  07F2               	addwf	IIC_SendByte@i,f
  5892     0C9D  3000               	movlw	0
  5893     0C9E  3DF3               	addwfc	IIC_SendByte@i+1,f
  5894     0C9F  3000               	movlw	0
  5895     0CA0  0273               	subwf	IIC_SendByte@i+1,w
  5896     0CA1  3008               	movlw	8
  5897     0CA2  1903               	skipnz
  5898     0CA3  0272               	subwf	IIC_SendByte@i,w
  5899     0CA4  1C03               	skipc
  5900     0CA5  2CA7               	goto	u1811
  5901     0CA6  2CA8               	goto	u1810
  5902     0CA7                     u1811:
  5903     0CA7  2C86               	goto	l166
  5904     0CA8                     u1810:
  5905     0CA8                     l170:
  5906     0CA8  0008               	return
  5907     0CA9                     __end_of_IIC_SendByte:
  5908                           
  5909                           	psect	text21
  5910     0CD6                     __ptext21:	
  5911 ;; *************** function _IIC_ReadByte *****************
  5912 ;; Defined at:
  5913 ;;		line 132 in file "GXHT30.c"
  5914 ;; Parameters:    Size  Location     Type
  5915 ;;  ack             2    0[COMMON] unsigned int 
  5916 ;; Auto vars:     Size  Location     Type
  5917 ;;  i               1    4[COMMON] unsigned char 
  5918 ;;  receive         1    3[COMMON] unsigned char 
  5919 ;; Return value:  Size  Location     Type
  5920 ;;                  1    wreg      unsigned char 
  5921 ;; Registers used:
  5922 ;;		wreg, status,2, status,0, pclath, cstack
  5923 ;; Tracked objects:
  5924 ;;		On entry : 0/0
  5925 ;;		On exit  : 0/0
  5926 ;;		Unchanged: 0/0
  5927 ;; Data sizes:     COMMON   BANK0   BANK1   BANK2
  5928 ;;      Params:         2       0       0       0
  5929 ;;      Locals:         2       0       0       0
  5930 ;;      Temps:          1       0       0       0
  5931 ;;      Totals:         5       0       0       0
  5932 ;;Total ram usage:        5 bytes
  5933 ;; Hardware stack levels used: 1
  5934 ;; Hardware stack levels required when called: 1
  5935 ;; This function calls:
  5936 ;;		_IIC_Ack
  5937 ;;		_IIC_NAck
  5938 ;; This function is called by:
  5939 ;;		_GXHT30_read_result
  5940 ;; This function uses a non-reentrant model
  5941 ;;
  5942                           
  5943     0CD6                     _IIC_ReadByte:	
  5944                           ;psect for function _IIC_ReadByte
  5945                           
  5946     0CD6                     l1771:	
  5947                           ;incstack = 0
  5948                           ; Regs used in _IIC_ReadByte: [wreg+status,2+status,0+pclath+cstack]
  5949                           
  5950     0CD6  01F3               	clrf	IIC_ReadByte@receive
  5951     0CD7                     l1773:
  5952                           
  5953                           ;GXHT30.c: 135:    TRISAbits.TRISA5 = 1;;
  5954     0CD7  0021               	movlb	1	; select bank1
  5955     0CD8  168C               	bsf	12,5	;volatile
  5956                           
  5957                           ;GXHT30.c: 136:    for(i = 0; i < 8; i++)
  5958     0CD9  01F4               	clrf	IIC_ReadByte@i
  5959     0CDA                     l173:
  5960                           
  5961                           ;GXHT30.c: 137:    {;GXHT30.c: 138:      PORTAbits.RA4 = 0;;
  5962     0CDA  0020               	movlb	0	; select bank0
  5963     0CDB  120C               	bcf	12,4	;volatile
  5964                           
  5965                           ;GXHT30.c: 139:   _delay((unsigned long)((1)*(8000000/4000000.0)));
  5966     0CDC  3200               	nop2	;2 cycle nop
  5967                           
  5968                           ;GXHT30.c: 140:   PORTAbits.RA4 = 1;;
  5969     0CDD  0020               	movlb	0	; select bank0
  5970     0CDE  160C               	bsf	12,4	;volatile
  5971     0CDF                     l175:	
  5972                           ;GXHT30.c: 142:   while(!PORTAbits.RA4);
  5973                           
  5974     0CDF  1E0C               	btfss	12,4	;volatile
  5975     0CE0  2CE2               	goto	u1821
  5976     0CE1  2CE3               	goto	u1820
  5977     0CE2                     u1821:
  5978     0CE2  2CDF               	goto	l175
  5979     0CE3                     u1820:
  5980     0CE3                     l1779:
  5981                           
  5982                           ;GXHT30.c: 143:   receive <<= 1;
  5983     0CE3  1003               	clrc
  5984     0CE4  0DF3               	rlf	IIC_ReadByte@receive,f
  5985     0CE5                     l1781:
  5986                           
  5987                           ;GXHT30.c: 144:   if(PORTAbits.RA5 == 1)
  5988     0CE5  1E8C               	btfss	12,5	;volatile
  5989     0CE6  2CE8               	goto	u1831
  5990     0CE7  2CE9               	goto	u1830
  5991     0CE8                     u1831:
  5992     0CE8  2CED               	goto	l178
  5993     0CE9                     u1830:
  5994     0CE9                     l1783:
  5995                           
  5996                           ;GXHT30.c: 145:   {;GXHT30.c: 146:    receive++;
  5997     0CE9  3001               	movlw	1
  5998     0CEA  00F2               	movwf	??_IIC_ReadByte
  5999     0CEB  0872               	movf	??_IIC_ReadByte,w
  6000     0CEC  07F3               	addwf	IIC_ReadByte@receive,f
  6001     0CED                     l178:	
  6002                           ;GXHT30.c: 147:   }
  6003                           
  6004                           
  6005                           ;GXHT30.c: 168:  }
  6006     0CED  3001               	movlw	1
  6007     0CEE  00F2               	movwf	??_IIC_ReadByte
  6008     0CEF  0872               	movf	??_IIC_ReadByte,w
  6009     0CF0  07F4               	addwf	IIC_ReadByte@i,f
  6010     0CF1                     l1785:
  6011     0CF1  3008               	movlw	8
  6012     0CF2  0274               	subwf	IIC_ReadByte@i,w
  6013     0CF3  1C03               	skipc
  6014     0CF4  2CF6               	goto	u1841
  6015     0CF5  2CF7               	goto	u1840
  6016     0CF6                     u1841:
  6017     0CF6  2CDA               	goto	l173
  6018     0CF7                     u1840:
  6019     0CF7                     l1787:
  6020                           
  6021                           ;GXHT30.c: 169:  _delay((unsigned long)((1)*(8000000/4000.0)));
  6022     0CF7  3003               	movlw	3
  6023     0CF8  00F2               	movwf	??_IIC_ReadByte
  6024     0CF9  3098               	movlw	152
  6025     0CFA                     u3647:
  6026     0CFA  0B89               	decfsz	9,f
  6027     0CFB  2CFA               	goto	u3647
  6028     0CFC  0BF2               	decfsz	??_IIC_ReadByte,f
  6029     0CFD  2CFA               	goto	u3647
  6030     0CFE                     l1789:
  6031                           
  6032                           ;GXHT30.c: 170:     if(ack == 0)
  6033     0CFE  0870               	movf	IIC_ReadByte@ack,w
  6034     0CFF  0471               	iorwf	IIC_ReadByte@ack+1,w
  6035     0D00  1D03               	btfss	3,2
  6036     0D01  2D03               	goto	u1851
  6037     0D02  2D04               	goto	u1850
  6038     0D03                     u1851:
  6039     0D03  2D08               	goto	l1793
  6040     0D04                     u1850:
  6041     0D04                     l1791:
  6042                           
  6043                           ;GXHT30.c: 171:  {;GXHT30.c: 172:      IIC_NAck();
  6044     0D04  318B  23D4  318C   	fcall	_IIC_NAck
  6045                           
  6046                           ;GXHT30.c: 173:  }
  6047     0D07  2D0B               	goto	l1795
  6048     0D08                     l1793:
  6049                           
  6050                           ;GXHT30.c: 175:  {;GXHT30.c: 176:   IIC_Ack();
  6051     0D08  318B  23C8  318C   	fcall	_IIC_Ack
  6052     0D0B                     l1795:
  6053                           
  6054                           ;GXHT30.c: 178:  return receive;
  6055     0D0B  0873               	movf	IIC_ReadByte@receive,w
  6056     0D0C                     l181:
  6057     0D0C  0008               	return
  6058     0D0D                     __end_of_IIC_ReadByte:
  6059                           
  6060                           	psect	text22
  6061     0BD4                     __ptext22:	
  6062 ;; *************** function _IIC_NAck *****************
  6063 ;; Defined at:
  6064 ;;		line 66 in file "GXHT30.c"
  6065 ;; Parameters:    Size  Location     Type
  6066 ;;		None
  6067 ;; Auto vars:     Size  Location     Type
  6068 ;;		None
  6069 ;; Return value:  Size  Location     Type
  6070 ;;                  1    wreg      void 
  6071 ;; Registers used:
  6072 ;;		None
  6073 ;; Tracked objects:
  6074 ;;		On entry : 0/0
  6075 ;;		On exit  : 0/0
  6076 ;;		Unchanged: 0/0
  6077 ;; Data sizes:     COMMON   BANK0   BANK1   BANK2
  6078 ;;      Params:         0       0       0       0
  6079 ;;      Locals:         0       0       0       0
  6080 ;;      Temps:          0       0       0       0
  6081 ;;      Totals:         0       0       0       0
  6082 ;;Total ram usage:        0 bytes
  6083 ;; Hardware stack levels used: 1
  6084 ;; This function calls:
  6085 ;;		Nothing
  6086 ;; This function is called by:
  6087 ;;		_IIC_ReadByte
  6088 ;; This function uses a non-reentrant model
  6089 ;;
  6090                           
  6091     0BD4                     _IIC_NAck:	
  6092                           ;psect for function _IIC_NAck
  6093                           
  6094     0BD4                     l1705:	
  6095                           ;incstack = 0
  6096                           ; Regs used in _IIC_NAck: []
  6097                           
  6098                           
  6099                           ;GXHT30.c: 68:  TRISAbits.TRISA5 = 0;;
  6100     0BD4  0021               	movlb	1	; select bank1
  6101     0BD5  128C               	bcf	12,5	;volatile
  6102                           
  6103                           ;GXHT30.c: 69:  PORTAbits.RA4 = 0;;
  6104     0BD6  0020               	movlb	0	; select bank0
  6105     0BD7  120C               	bcf	12,4	;volatile
  6106                           
  6107                           ;GXHT30.c: 71:  PORTAbits.RA5 = 1;;
  6108     0BD8  168C               	bsf	12,5	;volatile
  6109                           
  6110                           ;GXHT30.c: 72:  _delay((unsigned long)((1)*(8000000/4000000.0)));
  6111     0BD9  3200               	nop2	;2 cycle nop
  6112                           
  6113                           ;GXHT30.c: 73:  PORTAbits.RA4 = 1;;
  6114     0BDA  0020               	movlb	0	; select bank0
  6115     0BDB  160C               	bsf	12,4	;volatile
  6116                           
  6117                           ;GXHT30.c: 74:  _delay((unsigned long)((1)*(8000000/4000000.0)));
  6118     0BDC  3200               	nop2	;2 cycle nop
  6119                           
  6120                           ;GXHT30.c: 75:  PORTAbits.RA4 = 0;;
  6121     0BDD  0020               	movlb	0	; select bank0
  6122     0BDE  120C               	bcf	12,4	;volatile
  6123     0BDF                     l156:
  6124     0BDF  0008               	return
  6125     0BE0                     __end_of_IIC_NAck:
  6126                           
  6127                           	psect	text23
  6128     0BC8                     __ptext23:	
  6129 ;; *************** function _IIC_Ack *****************
  6130 ;; Defined at:
  6131 ;;		line 52 in file "GXHT30.c"
  6132 ;; Parameters:    Size  Location     Type
  6133 ;;		None
  6134 ;; Auto vars:     Size  Location     Type
  6135 ;;		None
  6136 ;; Return value:  Size  Location     Type
  6137 ;;                  1    wreg      void 
  6138 ;; Registers used:
  6139 ;;		None
  6140 ;; Tracked objects:
  6141 ;;		On entry : 0/0
  6142 ;;		On exit  : 0/0
  6143 ;;		Unchanged: 0/0
  6144 ;; Data sizes:     COMMON   BANK0   BANK1   BANK2
  6145 ;;      Params:         0       0       0       0
  6146 ;;      Locals:         0       0       0       0
  6147 ;;      Temps:          0       0       0       0
  6148 ;;      Totals:         0       0       0       0
  6149 ;;Total ram usage:        0 bytes
  6150 ;; Hardware stack levels used: 1
  6151 ;; This function calls:
  6152 ;;		Nothing
  6153 ;; This function is called by:
  6154 ;;		_IIC_ReadByte
  6155 ;; This function uses a non-reentrant model
  6156 ;;
  6157                           
  6158     0BC8                     _IIC_Ack:	
  6159                           ;psect for function _IIC_Ack
  6160                           
  6161     0BC8                     l1703:	
  6162                           ;incstack = 0
  6163                           ; Regs used in _IIC_Ack: []
  6164                           
  6165                           
  6166                           ;GXHT30.c: 54:  TRISAbits.TRISA5 = 0;;
  6167     0BC8  0021               	movlb	1	; select bank1
  6168     0BC9  128C               	bcf	12,5	;volatile
  6169                           
  6170                           ;GXHT30.c: 55:  PORTAbits.RA4 = 0;;
  6171     0BCA  0020               	movlb	0	; select bank0
  6172     0BCB  120C               	bcf	12,4	;volatile
  6173                           
  6174                           ;GXHT30.c: 57:  PORTAbits.RA5 = 0;;
  6175     0BCC  128C               	bcf	12,5	;volatile
  6176                           
  6177                           ;GXHT30.c: 58:  _delay((unsigned long)((1)*(8000000/4000000.0)));
  6178     0BCD  3200               	nop2	;2 cycle nop
  6179                           
  6180                           ;GXHT30.c: 59:  PORTAbits.RA4 = 1;;
  6181     0BCE  0020               	movlb	0	; select bank0
  6182     0BCF  160C               	bsf	12,4	;volatile
  6183                           
  6184                           ;GXHT30.c: 60:  _delay((unsigned long)((1)*(8000000/4000000.0)));
  6185     0BD0  3200               	nop2	;2 cycle nop
  6186                           
  6187                           ;GXHT30.c: 61:  PORTAbits.RA4 = 0;;
  6188     0BD1  0020               	movlb	0	; select bank0
  6189     0BD2  120C               	bcf	12,4	;volatile
  6190     0BD3                     l153:
  6191     0BD3  0008               	return
  6192     0BD4                     __end_of_IIC_Ack:
  6193                           
  6194                           	psect	text24
  6195     0BFE                     __ptext24:	
  6196 ;; *************** function _Clear *****************
  6197 ;; Defined at:
  6198 ;;		line 91 in file "main.c"
  6199 ;; Parameters:    Size  Location     Type
  6200 ;;		None
  6201 ;; Auto vars:     Size  Location     Type
  6202 ;;		None
  6203 ;; Return value:  Size  Location     Type
  6204 ;;                  1    wreg      void 
  6205 ;; Registers used:
  6206 ;;		status,2
  6207 ;; Tracked objects:
  6208 ;;		On entry : 0/0
  6209 ;;		On exit  : 0/0
  6210 ;;		Unchanged: 0/0
  6211 ;; Data sizes:     COMMON   BANK0   BANK1   BANK2
  6212 ;;      Params:         0       0       0       0
  6213 ;;      Locals:         0       0       0       0
  6214 ;;      Temps:          0       0       0       0
  6215 ;;      Totals:         0       0       0       0
  6216 ;;Total ram usage:        0 bytes
  6217 ;; Hardware stack levels used: 1
  6218 ;; This function calls:
  6219 ;;		Nothing
  6220 ;; This function is called by:
  6221 ;;		_main
  6222 ;; This function uses a non-reentrant model
  6223 ;;
  6224                           
  6225     0BFE                     _Clear:	
  6226                           ;psect for function _Clear
  6227                           
  6228     0BFE                     l2515:	
  6229                           ;incstack = 0
  6230                           ; Regs used in _Clear: [status,2]
  6231                           
  6232                           
  6233                           ;main.c: 93:  ten = 0;
  6234     0BFE  0021               	movlb	1	; select bank1
  6235     0BFF  01C9               	clrf	_ten^(0+128)
  6236                           
  6237                           ;main.c: 94:  one = 0;
  6238     0C00  01C8               	clrf	_one^(0+128)
  6239                           
  6240                           ;main.c: 95:  hundred = 0;
  6241     0C01  01C7               	clrf	_hundred^(0+128)
  6242                           
  6243                           ;main.c: 96:  ten1 = 0;
  6244     0C02  01C6               	clrf	_ten1^(0+128)
  6245                           
  6246                           ;main.c: 97:  one1 = 0;
  6247     0C03  01C5               	clrf	_one1^(0+128)
  6248                           
  6249                           ;main.c: 98:  hundred1 = 0;
  6250     0C04  01C4               	clrf	_hundred1^(0+128)
  6251                           
  6252                           ;main.c: 99:  Temperature = 0;
  6253     0C05  01C2               	clrf	_Temperature^(0+128)
  6254     0C06  01C3               	clrf	(_Temperature+1)^(0+128)
  6255                           
  6256                           ;main.c: 100:  Humidity = 0;
  6257     0C07  01C0               	clrf	_Humidity^(0+128)
  6258     0C08  01C1               	clrf	(_Humidity+1)^(0+128)
  6259                           
  6260                           ;main.c: 101:  Temperature_Value = 0;
  6261     0C09  01BE               	clrf	_Temperature_Value^(0+128)
  6262     0C0A  01BF               	clrf	(_Temperature_Value+1)^(0+128)
  6263                           
  6264                           ;main.c: 102:  Humidity_Value = 0;
  6265     0C0B  01BC               	clrf	_Humidity_Value^(0+128)
  6266     0C0C  01BD               	clrf	(_Humidity_Value+1)^(0+128)
  6267     0C0D                     l106:
  6268     0C0D  0008               	return
  6269     0C0E                     __end_of_Clear:
  6270     007E                     btemp	set	126	;btemp
  6271     007E                     wtemp0	set	126
  6272                           
  6273                           	psect	config
  6274                           
  6275                           ;Config register CONFIG1 @ 0x8007
  6276                           ;	Oscillator Selection
  6277                           ;	FOSC = INTOSC, INTOSC oscillator: I/O function on CLKIN pin
  6278                           ;	Watchdog Timer Enable
  6279                           ;	WDTE = OFF, WDT disabled
  6280                           ;	Power-up Timer Enable
  6281                           ;	PWRTE = OFF, PWRT disabled
  6282                           ;	MCLR Pin Function Select
  6283                           ;	MCLRE = ON, MCLR/VPP pin function is MCLR
  6284                           ;	Flash Program Memory Code Protection
  6285                           ;	CP = OFF, Program memory code protection is disabled
  6286                           ;	Data Memory Code Protection
  6287                           ;	CPD = OFF, Data memory code protection is disabled
  6288                           ;	Brown-out Reset Enable
  6289                           ;	BOREN = OFF, Brown-out Reset disabled
  6290                           ;	Clock Out Enable
  6291                           ;	CLKOUTEN = OFF, CLKOUT function is disabled. I/O or oscillator function on the CLKOUT 
      +                          pin
  6292                           ;	Internal/External Switchover
  6293                           ;	IESO = ON, Internal/External Switchover mode is enabled
  6294                           ;	Fail-Safe Clock Monitor Enable
  6295                           ;	FCMEN = ON, Fail-Safe Clock Monitor is enabled
  6296     8007                     	org	32775
  6297     8007  39E4               	dw	14820
  6298                           
  6299                           ;Config register CONFIG2 @ 0x8008
  6300                           ;	Flash Memory Self-Write Protection
  6301                           ;	WRT = OFF, Write protection off
  6302                           ;	PLL Enable
  6303                           ;	PLLEN = OFF, 4x PLL disabled
  6304                           ;	Stack Overflow/Underflow Reset Enable
  6305                           ;	STVREN = ON, Stack Overflow or Underflow will cause a Reset
  6306                           ;	Brown-out Reset Voltage Selection
  6307                           ;	BORV = LO, Brown-out Reset Voltage (Vbor), low trip point selected.
  6308                           ;	In-Circuit Debugger Mode
  6309                           ;	DEBUG = OFF, In-Circuit Debugger disabled, ICSPCLK and ICSPDAT are general purpose I/O
      +                           pins
  6310                           ;	Low-Voltage Programming Enable
  6311                           ;	LVP = OFF, High-voltage on MCLR/VPP must be used for programming
  6312     8008                     	org	32776
  6313     8008  1EFF               	dw	7935

Data Sizes:
    Strings     0
    Constant    0
    Data        0
    BSS         14
    Persistent  32
    Stack       0

Auto Spaces:
    Space          Size  Autos    Used
    COMMON           14     14      14
    BANK0            80     80      80
    BANK1            80     28      42
    BANK2            64      0       0

Pointer List with Targets:

    None.

Critical Paths under _main in COMMON

    _ASCII_TH->___awdiv
    ___awdiv->___awmod
    _GXHT30_write_cmd->_IIC_SendByte
    _GXHT30_read_result->___xxtofl
    ___fltol->___xxtofl
    ___flmul->___xxtofl
    ___fldiv->___xxtofl
    ___fladd->___xxtofl

Critical Paths under _main in BANK0

    _bit_Value->_ASCII_TH
    _ASCII_TH->___awdiv
    _GXHT30_read_result->___fltol
    ___fltol->___fladd
    ___fldiv->___flmul
    ___fladd->___fldiv

Critical Paths under _main in BANK1

    _main->_GXHT30_single_call
    _GXHT30_single_call->_GXHT30_read_result
    _GXHT30_read_result->___fltol

Critical Paths under _main in BANK2

    None.

Call Graph Tables:

 ---------------------------------------------------------------------------------
 (Depth) Function   	        Calls       Base Space   Used Autos Params    Refs
 ---------------------------------------------------------------------------------
 (0) _main                                                 2     2      0   11555
                                             26 BANK1      2     2      0
                              _Clear
                 _GXHT30_single_call
                           _IIC_init
                         _TXREG_TRMT
                          _bit_Value
                          _main_init
 ---------------------------------------------------------------------------------
 (1) _main_init                                            0     0      0       0
 ---------------------------------------------------------------------------------
 (1) _bit_Value                                            1     1      0    2248
                                             12 COMMON     1     1      0
                           _ASCII_TH
 ---------------------------------------------------------------------------------
 (2) _ASCII_TH                                             3     0      3    2248
                                              4 BANK0      3     0      3
                            ___awdiv
                            ___awmod
 ---------------------------------------------------------------------------------
 (3) ___awmod                                              7     3      4     600
                                              0 COMMON     7     3      4
 ---------------------------------------------------------------------------------
 (3) ___awdiv                                              9     5      4     604
                                              7 COMMON     5     1      4
                                              0 BANK0      4     4      0
                            ___awmod (ARG)
 ---------------------------------------------------------------------------------
 (1) _TXREG_TRMT                                           1     1      0       0
                                              0 COMMON     1     1      0
 ---------------------------------------------------------------------------------
 (1) _IIC_init                                             0     0      0       0
 ---------------------------------------------------------------------------------
 (1) _GXHT30_single_call                                   1     1      0    9307
                                             25 BANK1      1     1      0
                 _GXHT30_read_result
                   _GXHT30_write_cmd
 ---------------------------------------------------------------------------------
 (2) _GXHT30_write_cmd                                     5     3      2     616
                                              4 COMMON     5     3      2
                       _IIC_SendByte
                          _IIC_Start
                           _IIC_Stop
                           _IIC_WAck
 ---------------------------------------------------------------------------------
 (2) _GXHT30_read_result                                  23    23      0    8691
                                              2 BANK1     23    23      0
                       _IIC_ReadByte
                       _IIC_SendByte
                          _IIC_Start
                           _IIC_Stop
                           _IIC_WAck
                            ___fladd
                            ___fldiv
                            ___flmul
                            ___fltol
                           ___xxtofl
 ---------------------------------------------------------------------------------
 (3) ___xxtofl                                            14    10      4     474
                                              0 COMMON    14    10      4
 ---------------------------------------------------------------------------------
 (3) ___fltol                                             10     6      4     381
                                             72 BANK0      8     4      4
                                              0 BANK1      2     2      0
                            ___fladd (ARG)
                            ___fldiv (ARG)
                            ___flmul (ARG)
                           ___xxtofl (ARG)
 ---------------------------------------------------------------------------------
 (3) ___flmul                                             26    18      8    2873
                                              0 BANK0     26    18      8
                          __Umul8_16
                           ___xxtofl (ARG)
 ---------------------------------------------------------------------------------
 (4) __Umul8_16                                            9     7      2     799
                                              0 COMMON     9     7      2
 ---------------------------------------------------------------------------------
 (3) ___fldiv                                             26    18      8    1425
                                             26 BANK0     26    18      8
                            ___flmul (ARG)
                           ___xxtofl (ARG)
 ---------------------------------------------------------------------------------
 (3) ___fladd                                             20    12      8    2262
                                             52 BANK0     20    12      8
                            ___fldiv (ARG)
                            ___flmul (ARG)
                           ___xxtofl (ARG)
 ---------------------------------------------------------------------------------
 (3) _IIC_WAck                                             2     2      0      24
                                              0 COMMON     2     2      0
                           _IIC_Stop
 ---------------------------------------------------------------------------------
 (4) _IIC_Stop                                             0     0      0       0
 ---------------------------------------------------------------------------------
 (3) _IIC_Start                                            0     0      0       0
 ---------------------------------------------------------------------------------
 (3) _IIC_SendByte                                         4     2      2     374
                                              0 COMMON     4     2      2
 ---------------------------------------------------------------------------------
 (3) _IIC_ReadByte                                         5     3      2     550
                                              0 COMMON     5     3      2
                            _IIC_Ack
                           _IIC_NAck
 ---------------------------------------------------------------------------------
 (4) _IIC_NAck                                             0     0      0       0
 ---------------------------------------------------------------------------------
 (4) _IIC_Ack                                              0     0      0       0
 ---------------------------------------------------------------------------------
 (1) _Clear                                                0     0      0       0
 ---------------------------------------------------------------------------------
 Estimated maximum stack depth 4
 ---------------------------------------------------------------------------------

 Call Graph Graphs:

 _main (ROOT)
   _Clear
   _GXHT30_single_call
     _GXHT30_read_result
       _IIC_ReadByte
         _IIC_Ack
         _IIC_NAck
       _IIC_SendByte
       _IIC_Start
       _IIC_Stop
       _IIC_WAck
         _IIC_Stop
       ___fladd
         ___fldiv (ARG)
           ___flmul (ARG)
             __Umul8_16
             ___xxtofl (ARG)
           ___xxtofl (ARG)
         ___flmul (ARG)
         ___xxtofl (ARG)
       ___fldiv
       ___flmul
       ___fltol
         ___fladd (ARG)
         ___fldiv (ARG)
         ___flmul (ARG)
         ___xxtofl (ARG)
       ___xxtofl
     _GXHT30_write_cmd
       _IIC_SendByte
       _IIC_Start
       _IIC_Stop
       _IIC_WAck
   _IIC_init
   _TXREG_TRMT
   _bit_Value
     _ASCII_TH
       ___awdiv
         ___awmod (ARG)
       ___awmod
   _main_init

 Address spaces:
Name               Size   Autos  Total    Cost      Usage
BIGRAM              E0      0       0       0        0.0%
EEDATA             100      0       0       0        0.0%
NULL                 0      0       0       0        0.0%
CODE                 0      0       0       0        0.0%
BITCOMMON            E      0       0       1        0.0%
BITSFR0              0      0       0       1        0.0%
SFR0                 0      0       0       1        0.0%
COMMON               E      E       E       2      100.0%
BITSFR1              0      0       0       2        0.0%
SFR1                 0      0       0       2        0.0%
BITSFR2              0      0       0       3        0.0%
SFR2                 0      0       0       3        0.0%
STACK                0      0       0       3        0.0%
BITSFR3              0      0       0       4        0.0%
SFR3                 0      0       0       4        0.0%
ABS                  0      0      88       4        0.0%
BITBANK0            50      0       0       5        0.0%
BITSFR4              0      0       0       5        0.0%
SFR4                 0      0       0       5        0.0%
BANK0               50     50      50       6      100.0%
BITSFR5              0      0       0       6        0.0%
SFR5                 0      0       0       6        0.0%
BITBANK1            50      0       0       7        0.0%
BITSFR6              0      0       0       7        0.0%
SFR6                 0      0       0       7        0.0%
BANK1               50     1C      2A       8       52.5%
BITSFR7              0      0       0       8        0.0%
SFR7                 0      0       0       8        0.0%
BITBANK2            40      0       0       9        0.0%
BITSFR8              0      0       0       9        0.0%
SFR8                 0      0       0       9        0.0%
BANK2               40      0       0      10        0.0%
BITSFR9              0      0       0      10        0.0%
SFR9                 0      0       0      10        0.0%
BITSFR10             0      0       0      11        0.0%
SFR10                0      0       0      11        0.0%
DATA                 0      0      88      11        0.0%
BITSFR11             0      0       0      12        0.0%
SFR11                0      0       0      12        0.0%
BITSFR12             0      0       0      13        0.0%
SFR12                0      0       0      13        0.0%
BITSFR13             0      0       0      14        0.0%
SFR13                0      0       0      14        0.0%
BITSFR14             0      0       0      15        0.0%
SFR14                0      0       0      15        0.0%
BITSFR15             0      0       0      16        0.0%
SFR15                0      0       0      16        0.0%
BITSFR16             0      0       0      17        0.0%
SFR16                0      0       0      17        0.0%
BITSFR17             0      0       0      18        0.0%
SFR17                0      0       0      18        0.0%
BITSFR18             0      0       0      19        0.0%
SFR18                0      0       0      19        0.0%
BITSFR19             0      0       0      20        0.0%
SFR19                0      0       0      20        0.0%
BITSFR20             0      0       0      21        0.0%
SFR20                0      0       0      21        0.0%
BITSFR21             0      0       0      22        0.0%
SFR21                0      0       0      22        0.0%
BITSFR22             0      0       0      23        0.0%
SFR22                0      0       0      23        0.0%
BITSFR23             0      0       0      24        0.0%
SFR23                0      0       0      24        0.0%
BITSFR24             0      0       0      25        0.0%
SFR24                0      0       0      25        0.0%
BITSFR25             0      0       0      26        0.0%
SFR25                0      0       0      26        0.0%
BITSFR26             0      0       0      27        0.0%
SFR26                0      0       0      27        0.0%
BITSFR27             0      0       0      28        0.0%
SFR27                0      0       0      28        0.0%
BITSFR28             0      0       0      29        0.0%
SFR28                0      0       0      29        0.0%
BITSFR29             0      0       0      30        0.0%
SFR29                0      0       0      30        0.0%
BITSFR30             0      0       0      31        0.0%
SFR30                0      0       0      31        0.0%
BITSFR31             0      0       0      32        0.0%
SFR31                0      0       0      32        0.0%


Microchip Technology PIC Macro Assembler V2.45 build 20230818022343 
Symbol Table                                                                                   Fri Dec 29 13:44:44 2023

              ___fldiv@aexp 0053                ___fldiv@bexp 0052                ___fldiv@sign 004B  
                        l50 0D55                          l61 0011                          l70 0025  
                        l64 0017                          l73 002B                          l82 003F  
                        l58 0009                          l91 0055                          l67 001F  
                        l76 0031                          l85 0047                          l94 005B  
                        l79 0037                          l88 004D                          l97 0061  
              ___awdiv@sign 0021         __Umul8_16@word_mpld 0076                         l100 0067  
                       l110 0ED9                         l103 0072                         l106 0C0D  
                       l131 0C39                         l150 0BFD                         l144 0BC7  
                       l153 0BD3                         l170 0CA8                         l162 0C5C  
                       l147 0BEE                         l163 0C5A                         l156 0BDF  
                       l181 0D0C                         l173 0CDA                         l166 0C86  
                       l175 0CDF                         l191 0C23                         l168 0C8D  
                       l184 00F7                         l185 0207                         l178 0CED  
                       l507 0DA8                         l700 03B1                         l188 0E6F  
                       l542 0F3F                         l535 0F55                         l720 039D  
                       l545 0F55                         l642 0408                         l722 03AA  
                       l714 0337                         l646 0485                         l750 07E8  
                       l494 0E08                         l663 0515                         l655 05B9  
                       l719 0383                         l648 0463                         l744 0774  
                       l673 0559                         l738 07F4                         l667 0537  
                       l684 05B2                         l676 0590                         l685 05B9  
                       l757 0C6F               ?_IIC_ReadByte 0070                         l782 0F78  
                       l759 0C7F                         l784 0FFF                         l698 0259  
                       l795 0FCB                         l796 0FD7                         l788 0FB1  
                _TXREG_TRMT 0005                         _one 00C8                         _ten 00C9  
              ___awmod@sign 0076                         wreg 0009               ?_IIC_SendByte 0070  
              ___flmul@aexp 0032                ___flmul@bexp 0033                ___flmul@sign 002D  
              ___flmul@temp 0038                ___flmul@prod 0034             __end_of_IIC_Ack 0BD4  
              ___fltol@exp1 00A1                        l2001 0467                        l2011 047A  
                      l2003 046B                        l2101 05A8                        l2021 0497  
                      l2005 046D                        l2013 047E                        l2103 05AC  
                      l2031 04AD                        l2023 049F                        l2015 0489  
                      l2007 0471                        l2111 0208                        l2105 05AE  
                      l2041 04D5                        l2033 04B1                        l2025 04A3  
                      l2017 048E                        l2009 0472                        l2201 0307  
                      l2121 0218                        l2113 020C                        l2107 05B4  
                      l2051 051D                        l2043 04F9                        l2035 04B2  
                      l2027 04A7                        l2211 031B                        l2203 030B  
                      l2131 0230                        l2123 021D                        l2115 020E  
                      l2109 05B8                        l2061 0536                        l2053 0522  
                      l2045 04FF                        l2037 04BA                        l2029 04AB  
                      l2221 033C                        l2213 031C                        l2205 030C  
                      l2141 0241                        l2133 0235                        l2125 0225  
                      l2117 0212                        l2301 064C                        l2063 053B  
                      l2071 0547                        l2047 0504                        l2039 04BF  
                      l2223 0341                        l2231 0369                        l2215 0320  
                      l2207 0313                        l2151 0261                        l2143 0246  
                      l2135 0237                        l2127 0226                        l2119 0213  
                      l2311 0692                        l2303 0659                        l2065 053E  
                      l2057 052B                        l2049 050D                        l2073 054B  
                      l2241 03A0                        l2233 0376                        l2225 0349  
                      l2217 0334                        l2209 0317                        l2161 027F  
                      l2153 026D                        l2145 024E                        l2137 023B  
                      l2129 0228                        l2321 06C8                        l2313 069D  
                      l2305 0671                        l2091 058C                        l2083 055E  
                      l2075 054C                        l2067 0540                        l2059 0532  
                      l2243 03A4                        l2235 0391                        l2227 034D  
                      l2171 02A8                        l2155 0271                        l2147 024F  
                      l2139 023C                        l2331 0713                        l2323 06CF  
                      l2315 06A4                        l2307 067E                        l2251 05BA  
                      l2411 0FA2                        l2403 0F89                        l1701 0BEF  
                      l2093 0595                        l2085 0563                        l2077 0550  
                      l2069 0545                        l2245 03A6                        l2237 0394  
                      l2229 0365                        l2181 02C9                        l2173 02B0  
                      l2165 0288                        l2149 0251                        l2341 0748  
                      l2333 072A                        l2325 06E1                        l2317 06AF  
                      l2309 068B                        l2261 05CA                        l2253 05BE  
                      l2421 0FCF                        l2413 0FAA                        l2405 0F8C  
                      l2501 0E2F                        l1621 0C31                        l1613 0C24  
                      l1703 0BC8                        l2095 059A                        l2087 056B  
                      l2079 0556                        l2239 039C                        l2191 02EC  
                      l2183 02CA                        l2175 02B2                        l2167 0298  
                      l2159 027A                        l1711 0C67                        l2351 0759  
                      l2343 0749                        l2335 0731                        l2327 06EC  
                      l2319 06B6                        l2271 05E6                        l2263 05CF  
                      l2255 05C0                        l2431 0FF7                        l2423 0FD9  
                      l2415 0FB8                        l2407 0F97                        l2511 0E5E  
                      l2503 0E39                        l1631 0C38                        l1623 0C32  
                      l1615 0C2A                        l1705 0BD4                        l1721 0BE0  
                      l2097 05A2                        l2089 056F                        l2177 02B7  
                      l2185 02D1                        l2193 02F0                        l2169 02A0  
                      l1713 0C6B                        l2361 077E                        l2353 075D  
                      l2345 0750                        l2337 073D                        l2329 06FE  
                      l2281 05F7                        l2273 05E8                        l2265 05D7  
                      l2257 05C4                        l2425 0FED                        l2417 0FC1  
                      l2409 0F9E                        l2513 0E65                        l2505 0E43  
                      l2521 0C1F                        l1633 0BC1                        l1801 0DAB  
                      l1625 0C34                        l1617 0C2D                        l2515 0BFE  
                      l1731 0C41                        l1723 0C3A                        l2099 05A7  
                      l2195 02F6                        l2187 02E3                        l2179 02C5  
                      l1715 0C76                        l1707 0C5E                        l2371 07B3  
                      l2363 0786                        l2355 0771                        l2339 0744  
                      l2347 0754                        l2291 0613                        l2283 05FF  
                      l2275 05EC                        l2267 05D9                        l2259 05C5  
                      l2427 0FF2                        l2419 0FC5                        l2507 0E4A  
                      l1811 0DBF                        l1803 0DAF                        l2451 0D40  
                      l2443 0D21                        l2435 0D0D                        l2531 0E9A  
                      l2523 0E70                        l1627 0C35                        l1619 0C2F  
                      l1733 0C46                        l1741 0C52                        l1725 0C3B  
                      l2197 02FE                        l2189 02E4                        l1717 0C7B  
                      l1709 0C60                        l2381 07E1                        l2373 07BD  
                      l2365 078A                        l2349 0758                        l2285 0601  
                      l2277 05ED                        l2269 05E1                        l2429 0FF6  
                      l2509 0E5B                        l2517 0C0E                        l2541 000D  
                      l1821 0DD3                        l1813 0DC3                        l1805 0DB4  
                      l2453 0D46                        l2445 0D27                        l2437 0D13  
                      l2533 0EA8                        l2525 0E7A                        l1629 0C37  
                      l1751 0C80                        l1735 0C49                        l1743 0C56  
                      l1727 0C3D                        l2199 0300                        l2383 07E5  
                      l2375 07CB                        l2367 07A2                        l2359 0779  
                      l2295 061C                        l2287 0609                        l2279 05F2  
                      l1911 0F34                        l1903 0F1B                        l2391 0F57  
                      l2471 008E                        l2463 0075                        l2519 0C16  
                      l2551 002F                        l2543 0015                        l1831 0DEF  
                      l1823 0DD7                        l1815 0DC5                        l1807 0DB6  
                      l2535 0EB6                        l2527 0E7E                        l1761 0C8F  
                      l1753 0C82                        l1745 0C5B                        l1737 0C50  
                      l1729 0C3F                        l1921 03B8                        l2385 07E6  
                      l2377 07D4                        l2369 07A6                        l2297 0627  
                      l2289 060E                        l1913 0F44                        l1905 0F2D  
                      l2393 0F5C                        l2481 010A                        l2473 0097  
                      l2465 0079                        l2561 0051                        l2553 0035  
                      l2545 001B                        l1833 0DF4                        l1825 0DDB  
                      l1817 0DCB                        l1809 0DBA                        l2537 0EC4  
                      l2529 0E8C                        l1771 0CD6                        l1763 0C94  
                      l1931 03CF                        l1923 03BC                        l2387 07EC  
                      l2379 07D6                        l2299 0634                        l1915 0F49  
                      l2395 0F60                        l2491 01FE                        l2483 0160  
                      l2475 009F                        l2467 007C                        l2563 0059  
                      l2555 003B                        l2547 0023                        l2539 0005  
                      l1827 0DEA                        l1819 0DCE                        l1835 0DFA  
                      l1851 0D62                        l1843 0D56                        l2459 0D54  
                      l2571 0CA9                        l1781 0CE5                        l1773 0CD7  
                      l1765 0C95                        l1749 0C80                        l1941 03E3  
                      l1933 03D0                        l1925 03BD                        l1917 03B2  
                      l2397 0F70                        l2485 018E                        l2477 00A1  
                      l2469 0085                        l2493 0E0A                        l2565 005F  
                      l2557 0043                        l2549 0029                        l1837 0DFF  
                      l1829 0DEE                        l1861 0D79                        l1853 0D66  
                      l1845 0D57                        l2573 0CAC                        l1791 0D04  
                      l1783 0CE9                        l1767 0C97                        l1759 0C8A  
                      l1951 03F0                        l1943 03E4                        l1927 03C2  
                      l1935 03D2                        l1919 03B6                        l2399 0F80  
                      l2487 01D0                        l2479 00F4                        l2495 0E0D  
                      l2567 0065                        l2559 004B                        l1839 0E04  
                      l1871 0D94                        l1863 0D7D                        l1855 0D6B  
                      l1847 0D5B                        l2575 0CAF                        l1793 0D08  
                      l1785 0CF1                        l1769 0C99                        l1961 040E  
                      l1953 03F5                        l1945 03E6                        l1937 03DA  
                      l1929 03C7                        l1881 0EDA                        l2489 01FE  
                      l2497 0E1E                        l2569 006B                        l1865 0D81  
                      l1857 0D71                        l1873 0D9A                        l1849 0D60  
                      l2577 0CBA                        l1795 0D0B                        l1787 0CF7  
                      l1779 0CE3                        l1971 041C                        l1963 0412  
                      l1955 03FD                        l1947 03EA                        l1939 03DD  
                      l1891 0F04                        l1883 0EE5                        l2499 0E25  
                      l1875 0D9F                        l1867 0D8B                        l1859 0D74  
                      l2579 0CC6                        l1789 0CFE                        l1981 0426  
                      l1973 041E                        l1965 0416                        l1957 03FE  
                      l1949 03EB                        l1893 0F0C                        l1877 0DA4  
                      l1869 0D8F                        l1991 0430                        l1983 0428  
                      l1975 0420                        l1967 0418                        l1959 0400  
                      l1895 0F0F                        l1887 0EEF                        l1799 0DA9  
                      l1993 0432                        l1985 042A                        l1977 0422  
                      l1969 041A                        l1897 0F13                        l1889 0F02  
                      l1987 042C                        l1979 0424                        l1995 0434  
                      l1997 0435                        l1989 042E                        l1999 044C  
                      u2000 0D81                        u2001 0D80                        u2010 0D8B  
                      u2011 0D8A                        u2100 0F2C                        u2101 0F2B  
                      u2110 0F33                        u2030 0D9A                        u2111 0F32  
                      u2031 0D99                        u2015 0D87                        u2200 03F0  
                      u2040 0D9F                        u2201 03EF                        u2041 0D9E  
                      u2025 0D90                        u2210 03F5                        u3010 0748  
                      u2130 0F44                        u2050 0EE5                        u2211 03F4  
                      u3011 0747                        u2131 0F43                        u2051 0EE4  
                      u2300 0485                        u2220 040E                        u3100 07B3  
                      u2140 0F49                        u2060 0EFD                        u2301 0484  
                      u2221 040D                        u3101 07B2                        u3005 073E  
                      u2141 0F48                        u2125 0F35                        u2310 0489  
                      u2230 0412                        u2150 03BC                        u3110 07CB  
                      u3030 0758                        u2070 0F13                        u2311 0488  
                      u2231 0411                        u2151 03BB                        u3111 07CA  
                      u3031 0757                        u2071 0F12                        u2400 0522  
                      u2320 048E                        u2240 044C                        u2160 03C2  
                      u3120 07E5                        u3040 075D                        u2080 0F1A  
                      u2401 0521                        u2321 048D                        u2241 044B  
                      u2161 03C1                        u3121 07E4                        u3105 07AF  
                      u3041 075C                        u3025 074A                        u2081 0F19  
                      u2065 0EF9                        u2330 04A3                        u2250 0456  
                      u2170 03C7                        u3050 0771                        u3210 0FC5  
                      u3130 0F5C                        u2331 04A2                        u2251 0454  
                      u2171 03C6                        u3115 07C7                        u3051 0770  
                      u3211 0FC4                        u3131 0F5B                        u2500 056F  
                      u2420 0536                        u2340 04A7                        u2260 0457  
                      u2180 03E3                        u3060 0778                        u3220 0FCB  
                      u3140 0F60                        u3300 009F                        u2501 056E  
                      u2421 0535                        u2341 04A6                        u2245 0448  
                      u2181 03E2                        u3061 0777                        u3221 0FCA  
                      u3205 0FBB                        u3141 0F5F                        u3301 009E  
                      u2510 057D                        u2430 053B                        u2350 04B1  
                      u2270 0467                        u2190 03EA                        u3070 077E  
                      u3230 0FCF                        u3150 0F80                        u3310 0E7A  
                      u2431 053A                        u2415 052C                        u2351 04B0  
                      u2271 0466                        u2191 03E9                        u3071 077D  
                      u2095 0F1C                        u3231 0FCE                        u3151 0F7F  
                      u3311 0E79                        u2520 058C                        u2440 0545  
                      u2280 0471                        u2600 021D                        u3080 078A  
                      u3240 0FE3                        u3400 0043                        u3320 000D  
                      u2521 058B                        u2441 0544                        u2281 0470  
                      u2601 021C                        u3081 0789                        u3401 0042  
                      u3321 000C                        u1810 0CA8                        u2530 0595  
                      u2450 054B                        u2370 04D5                        u2610 023B  
                      u3090 0798                        u3250 0FF2                        u3170 0F9D  
                      u3410 004B                        u3330 0015                        u1811 0CA7  
                      u2531 0594                        u2515 0579                        u2451 054A  
                      u2371 04D4                        u2611 023A                        u3251 0FF1  
                      u3171 0F9C                        u3411 004A                        u3331 0014  
                      u1820 0CE3                        u2540 059A                        u2460 0550  
                      u2380 0504                        u2620 0241                        u1740 0C6B  
                      u3260 0FF6                        u3420 0051                        u3340 001B  
                      u1900 0DDB                        u1821 0CE2                        u1805 0C90  
                      u2541 0599                        u2461 054F                        u2381 0503  
                      u2373 04D1                        u2365 04B4                        u2621 0240  
                      u1741 0C6A                        u3261 0FF5                        u3245 0FDF  
                      u3165 0F91                        u3421 0050                        u3341 001A  
                      u1901 0DDA                        u1830 0CE9                        u2550 05A7  
                      u2470 0556                        u2390 051D                        u2710 02E3  
                      u2630 0246                        u3190 0FB7                        u3430 0059  
                      u3350 0023                        u3270 0D13                        u1831 0CE8  
                      u2551 05A6                        u2471 0555                        u2391 051C  
                      u2295 0474                        u2711 02E2                        u2631 0245  
                      u3095 0794                        u3191 0FB6                        u3431 0058  
                      u3351 0022                        u3271 0D12                        u1840 0CF7  
                      u2560 05AC                        u2480 055D                        u2800 033B  
                      u2720 02F6                        u2640 0261                        u1760 0C7B  
                      u3440 005F                        u3360 0029                        u1920 0DEA  
                      u3280 0D27                        u1841 0CF6                        u2561 05AB  
                      u2481 055C                        u2801 033A                        u2721 02F5  
                      u2705 02CB                        u2641 0260                        u1761 0C7A  
                      u3185 0FAB                        u3441 005E                        u3361 0028  
                      u1921 0DE9                        u3281 0D26                        u1850 0D04  
                      u1770 0C46                        u2570 05B8                        u2490 0563  
                      u2810 0341                        u2730 02FE                        u2650 027F  
                      u3450 0065                        u3370 002F                        u3290 0D46  
                      u1851 0D03                        u1771 0C45                        u2571 05B7  
                      u2491 0562                        u2811 0340                        u2731 02FD  
                      u2715 02DF                        u2651 027E                        u1755 0C70  
                      u3507 006E                        u3451 0064                        u3371 002E  
                      u1915 0DDC                        u3291 0D45                        u1780 0C5A  
                      u2820 034D                        u2660 02B7                        u2580 0212  
                      u2900 05EC                        u3460 006B                        u3380 0035  
                      u1940 0DFA                        u1860 0DAF                        u1781 0C59  
                      u2821 034C                        u2661 02B6                        u2581 0211  
                      u2901 05EB                        u3517 0C1A                        u3461 006A  
                      u3381 0034                        u1941 0DF9                        u1925 0DE6  
                      u1861 0DAE                        u1790 0C8A                        u2830 035B  
                      u2750 030B                        u2590 0218                        u2910 05F2  
                      u3390 003B                        u1950 0DFF                        u1870 0DBA  
                      u1791 0C89                        u2751 030A                        u2591 0217  
                      u2911 05F1                        u3607 0080                        u3527 0E10  
                      u3391 003A                        u1951 0DFE                        u1935 0DF0  
                      u1871 0DB9                        u2840 0376                        u2920 05F7  
                      u1880 0DCB                        u1960 0D5B                        u2841 0375  
                      u2745 0301                        u2921 05F6                        u3617 0092  
                      u3537 0E21                        u1881 0DCA                        u1961 0D5A  
                      u2850 0391                        u2770 031B                        u2690 02C9  
                      u2930 060E                        u1970 0D66                        u2851 0390  
                      u2835 0357                        u2771 031A                        u2691 02C8  
                      u2675 02B8                        u2931 060D                        u3627 0202  
                      u3547 0E2B                        u1971 0D65                        u2860 03A4  
                      u2780 0320                        u2940 0613                        u1980 0D71  
                      u3637 0C4C                        u2861 03A3                        u2845 0372  
                      u2781 031F                        u2765 030D                        u2685 02BF  
                      u2941 0612                        u3557 0E3C                        u1981 0D70  
                      u3477 0CB5                        u2790 0334                        u2870 05C4  
                      u3647 0CFA                        u2855 038D                        u2791 0333  
                      u2871 05C3                        u3567 0E46                        u1895 0DCF  
                      u3487 0CCC                        u2880 05CA                        u2881 05C9  
                      u3577 0E57                        u3497 0ED5                        u2970 0709  
                      u2890 05CF                        u2955 068C                        u2891 05CE  
                      u3587 0E61                        u1995 0D75                        u2980 0720  
                      u2965 06B7                        u3597 0E6B                        u2975 0705  
                      u2985 071C                        u2995 072B                        _one1 00C5  
                      _main 0CA9                        _ten1 00C6                        fsr0h 0005  
                      indf0 0000                        fsr0l 0004                        btemp 007E  
                      start 0003             ___fldiv@new_exp 004C            __end_of_ASCII_TH 0D56  
           IIC_SendByte@txd 0070            __end_of_IIC_NAck 0BE0            __end_of_IIC_WAck 0C5D  
          __end_of_IIC_Stop 0BFE            __end_of_IIC_init 0BC8              ??_IIC_ReadByte 0072  
             ___fltol@sign1 00A0             __end_of___fladd 05BA                       ?_main 0070  
           __end_of___fldiv 03B2             __end_of___awdiv 0E09             __end_of___awmod 0DA9  
           __end_of___flmul 07F5             __end_of___fltol 0F56             ___awdiv@divisor 0077  
           ___awdiv@counter 0020                       _SPBRG 019B              ??_IIC_SendByte 0072  
                     _TXREG 019A                       _Clear 0BFE                       status 0003  
                     wtemp0 007E             __initialization 07F5                __end_of_main 0CD6  
                    ??_main 00BA                 ?_TXREG_TRMT 0070                   ??_IIC_Ack 0070  
         __end_of_IIC_Start 0BEF                      ?_Clear 0070            ___awdiv@dividend 0079  
                    _ANSELA 018C                      _OSCCON 0099            __end_of___xxtofl 1000  
  __end_of_GXHT30_write_cmd 0E70                   ??___fladd 005C                   ??___fldiv 0042  
                 ??___awdiv 007B                   ??___awmod 0074                   ??___flmul 0028  
                 ??___fltol 006C            ___awdiv@quotient 0022             ___awmod@divisor 0070  
           ___awmod@counter 0075               IIC_ReadByte@i 0074                   ?_ASCII_TH 0024  
              ___xxtofl@arg 007A                ___xxtofl@exp 0079                ___xxtofl@val 0070  
                 ?_IIC_NAck 0070                   ?_IIC_WAck 0070     __end_of__initialization 07FD  
                 ?_IIC_Stop 0070        __end_of_IIC_ReadByte 0D0D                   ?_IIC_init 0070  
                 IIC_WAck@i 0071                  ___fltol@f1 0068        __end_of_IIC_SendByte 0CA9  
             __end_of_Clear 0C0E               IIC_SendByte@i 0072              __pcstackCOMMON 0070  
             ASCII_TH@Value 0024                     ??_Clear 0070                  ??_ASCII_TH 007C  
__end_of_GXHT30_read_result 0208                  __pbssBANK1 00BC                  ??_IIC_NAck 0070  
                ??_IIC_WAck 0070                  ??_IIC_Stop 0070                  ??_IIC_init 0070  
         __end_of__Umul8_16 0C80                  __pmaintext 0CA9                     _IIC_Ack 0BC8  
                 ?___xxtofl 0070           __end_of_bit_Value 0EDA                     ___fladd 03B2  
                   ___fldiv 0208                     ___awdiv 0DA9                     ___awmod 0D56  
                   ___flmul 05BA                     ___fltol 0EDA           __end_of_main_init 0C3A  
               _Temperature 00C2        GXHT30_write_cmd@addr 0078                     __ptext1 0C24  
                   __ptext2 0E70                     __ptext3 0D0D                     __ptext4 0D56  
                   __ptext5 0DA9                     __ptext6 0005                     __ptext7 0BC1  
                   __ptext8 0C0E                     __ptext9 0E09                ??_TXREG_TRMT 0070  
__end_of_GXHT30_single_call 0C24                  ??___xxtofl 0074            ___awmod@dividend 0072  
                   _hundred 00C7                   _IIC_Start 0BE0                     clrloop0 0BBC  
      end_of_initialization 07FD          __end_of_TXREG_TRMT 0073           ?_GXHT30_write_cmd 0074  
                 _RCSTAbits 019D          ??_GXHT30_write_cmd 0076                   _PORTAbits 000C  
              _IIC_ReadByte 0CD6                 ___fladd@grs 0067               ___xxtofl@sign 0078  
                 _TRISAbits 008C                _IIC_SendByte 0C80                 ___fldiv@grs 004E  
               ___fldiv@rem 0047                  ?_IIC_Start 0070           _Temperature_Value 00BE  
               ___flmul@grs 002E      GXHT30_read_result@addr 00A4      GXHT30_read_result@buff 00A9  
                 _TXSTAbits 019E                 _BAUDCONbits 019F         start_initialization 07F5  
        _GXHT30_read_result 0073                   __Umul8_16 0C5D      _GXHT30_read_result$964 00B5  
       ?_GXHT30_read_result 0070                   ___fladd@a 0058                   ___fladd@b 0054  
                  ?_IIC_Ack 0070                   ___fldiv@a 003A                   ___fldiv@b 003E  
                 ___flmul@a 0024                   ___flmul@b 0020                   ___latbits 0001  
             __pcstackBANK0 0020               __pcstackBANK1 00A0              _Humidity_Value 00BC  
               ??_IIC_Start 0070        ??_GXHT30_read_result 00A2                   _bit_Value 0E70  
                  ?___fladd 0054                    ?___fldiv 003A                    ?___awdiv 0077  
                  ?___awmod 0070                    ?___flmul 0020                    ?___fltol 0068  
                ?__Umul8_16 0070                   _main_init 0C24                    _ASCII_TH 0D0D  
       GXHT30_write_cmd@LSB 0075         GXHT30_write_cmd@MSB 0074          _GXHT30_single_call 0C0E  
                  _IIC_NAck 0BD4                    _IIC_WAck 0C3A                    _IIC_Stop 0BEF  
                  _IIC_init 0BC1                   clear_ram0 0BBB                  ?_bit_Value 0070  
       ?_GXHT30_single_call 0070                  ?_main_init 0070       GXHT30_read_result@hum 00A7  
     GXHT30_read_result@tem 00A5        ??_GXHT30_single_call 00B9                    _Humidity 00C0  
                _APFCONbits 011D                 ??__Umul8_16 0072                 ASCII_TH@bit 0026  
                  ___xxtofl 0F56                    __ptext10 0073                    __ptext11 0F56  
                  __ptext20 0C80                    __ptext12 0EDA                    __ptext21 0CD6  
                  __ptext13 05BA                    __ptext22 0BD4                    __ptext14 0C5D  
                  __ptext23 0BC8                    __ptext15 0208                    __ptext24 0BFE  
                  __ptext16 03B2                    __ptext17 0C3A                    __ptext18 0BEF  
                  __ptext19 0BE0         IIC_ReadByte@receive 0073                    _hundred1 00C4  
               ??_bit_Value 007C                 ??_main_init 0070             IIC_ReadByte@ack 0070  
    __Umul8_16@multiplicand 0070            _GXHT30_write_cmd 0E09               ___fladd@signs 0064  
              ___fladd@aexp 0065                ___fladd@bexp 0066        __Umul8_16@multiplier 0078  
         __Umul8_16@product 0074  
