

Microchip MPLAB XC8 Assembler V2.45 build 20230818022343 
                                                                                               Fri Dec 29 13:28:13 2023

Microchip MPLAB XC8 C Compiler v2.45 (Free license) build 20230818022343 Og1 
     1                           	processor	12F1840
     2                           	pagewidth 120
     3                           	opt	flic
     4                           	psect	cinit,global,class=CODE,merge=1,delta=2
     5                           	psect	bssBANK1,global,class=BANK1,space=1,delta=1,noexec
     6                           	psect	clrtext,global,class=CODE,delta=2
     7                           	psect	cstackBANK1,global,class=BANK1,space=1,delta=1,noexec
     8                           	psect	cstackCOMMON,global,class=COMMON,space=1,delta=1,noexec
     9                           	psect	cstackBANK0,global,class=BANK0,space=1,delta=1,noexec
    10                           	psect	maintext,global,class=CODE,merge=1,split=1,delta=2
    11                           	psect	text1,local,class=CODE,merge=1,delta=2
    12                           	psect	text2,local,class=CODE,merge=1,delta=2
    13                           	psect	text3,local,class=CODE,merge=1,delta=2
    14                           	psect	text4,local,class=CODE,merge=1,delta=2
    15                           	psect	text5,local,class=CODE,merge=1,delta=2,group=1
    16                           	psect	text6,local,class=CODE,merge=1,delta=2,group=1
    17                           	psect	text7,local,class=CODE,merge=1,delta=2,group=1
    18                           	psect	text8,local,class=CODE,merge=1,delta=2,group=1
    19                           	psect	text9,local,class=CODE,merge=1,delta=2,group=1
    20                           	psect	text10,local,class=CODE,merge=1,delta=2,group=1
    21                           	psect	text11,local,class=CODE,merge=1,delta=2
    22                           	psect	text12,local,class=CODE,merge=1,delta=2
    23                           	psect	text13,local,class=CODE,merge=1,delta=2
    24                           	psect	text14,local,class=CODE,merge=1,delta=2
    25                           	psect	text15,local,class=CODE,merge=1,delta=2
    26                           	psect	text16,local,class=CODE,merge=1,delta=2
    27                           	psect	text17,local,class=CODE,merge=1,delta=2
    28                           	psect	text18,local,class=CODE,merge=1,delta=2
    29                           	psect	text19,local,class=CODE,merge=1,delta=2,group=1
    30                           	psect	text20,local,class=CODE,merge=1,delta=2,group=1
    31                           	psect	config,global,abs,ovrld,class=CONFIG,space=4,delta=2,noexec
    32                           	dabs	1,0x7E,2
    33     0000                     
    34                           ; Generated 07/09/2023 GMT
    35                           ; 
    36                           ; Copyright © 2023, Microchip Technology Inc. and its subsidiaries ("Microchip")
    37                           ; All rights reserved.
    38                           ; 
    39                           ; This software is developed by Microchip Technology Inc. and its subsidiaries ("Microch
      +                          ip").
    40                           ; 
    41                           ; Redistribution and use in source and binary forms, with or without modification, are
    42                           ; permitted provided that the following conditions are met:
    43                           ; 
    44                           ;     1. Redistributions of source code must retain the above copyright notice, this lis
      +                          t of
    45                           ;        conditions and the following disclaimer.
    46                           ; 
    47                           ;     2. Redistributions in binary form must reproduce the above copyright notice, this 
      +                          list
    48                           ;        of conditions and the following disclaimer in the documentation and/or other
    49                           ;        materials provided with the distribution. Publication is not required when
    50                           ;        this file is used in an embedded application.
    51                           ; 
    52                           ;     3. Microchip's name may not be used to endorse or promote products derived from th
      +                          is
    53                           ;        software without specific prior written permission.
    54                           ; 
    55                           ; THIS SOFTWARE IS PROVIDED BY MICROCHIP "AS IS" AND ANY EXPRESS OR IMPLIED WARRANTIES,
    56                           ; INCLUDING, BUT NOT LIMITED TO, THE IMPLIED WARRANTIES OF MERCHANTABILITY AND FITNESS F
      +                          OR
    57                           ; PURPOSE ARE DISCLAIMED.  IN NO EVENT SHALL MICROCHIP BE LIABLE FOR ANY DIRECT, INDIREC
      +                          T,
    58                           ; INCIDENTAL, SPECIAL, EXEMPLARY, OR CONSEQUENTIAL DAMAGES (INCLUDING BUT NOT LIMITED TO
    59                           ; PROCUREMENT OF SUBSTITUTE GOODS OR SERVICES; LOSS OF USE, DATA OR PROFITS; OR BUSINESS
    60                           ; INTERRUPTION) HOWSOEVER CAUSED AND ON ANY THEORY OF LIABILITY, WHETHER IN CONTRACT, ST
      +                          RICT
    61                           ; LIABILITY, OR TORT (INCLUDING NEGLIGENCE OR OTHERWISE) ARISING IN ANY WAY OUT OF THE U
      +                          SE OF
    62                           ; THIS SOFTWARE, EVEN IF ADVISED OF THE POSSIBILITY OF SUCH DAMAGE.
    63                           ; 
    64                           ; 
    65                           ; Code-generator required, PIC12F1840 Definitions
    66                           ; 
    67                           ; SFR Addresses
    68     0000                     	;# 
    69     0001                     	;# 
    70     0002                     	;# 
    71     0003                     	;# 
    72     0004                     	;# 
    73     0005                     	;# 
    74     0006                     	;# 
    75     0007                     	;# 
    76     0008                     	;# 
    77     0009                     	;# 
    78     000A                     	;# 
    79     000B                     	;# 
    80     000C                     	;# 
    81     0011                     	;# 
    82     0012                     	;# 
    83     0015                     	;# 
    84     0016                     	;# 
    85     0016                     	;# 
    86     0017                     	;# 
    87     0018                     	;# 
    88     0019                     	;# 
    89     001A                     	;# 
    90     001B                     	;# 
    91     001C                     	;# 
    92     001E                     	;# 
    93     001F                     	;# 
    94     008C                     	;# 
    95     0091                     	;# 
    96     0092                     	;# 
    97     0095                     	;# 
    98     0096                     	;# 
    99     0097                     	;# 
   100     0098                     	;# 
   101     0099                     	;# 
   102     009A                     	;# 
   103     009B                     	;# 
   104     009B                     	;# 
   105     009C                     	;# 
   106     009D                     	;# 
   107     009E                     	;# 
   108     010C                     	;# 
   109     0111                     	;# 
   110     0112                     	;# 
   111     0115                     	;# 
   112     0116                     	;# 
   113     0117                     	;# 
   114     0118                     	;# 
   115     0119                     	;# 
   116     011A                     	;# 
   117     011B                     	;# 
   118     011D                     	;# 
   119     011D                     	;# 
   120     018C                     	;# 
   121     0191                     	;# 
   122     0191                     	;# 
   123     0192                     	;# 
   124     0193                     	;# 
   125     0193                     	;# 
   126     0193                     	;# 
   127     0194                     	;# 
   128     0195                     	;# 
   129     0196                     	;# 
   130     0197                     	;# 
   131     0199                     	;# 
   132     019A                     	;# 
   133     019B                     	;# 
   134     019B                     	;# 
   135     019B                     	;# 
   136     019B                     	;# 
   137     019C                     	;# 
   138     019C                     	;# 
   139     019D                     	;# 
   140     019E                     	;# 
   141     019F                     	;# 
   142     020C                     	;# 
   143     0211                     	;# 
   144     0211                     	;# 
   145     0212                     	;# 
   146     0212                     	;# 
   147     0213                     	;# 
   148     0213                     	;# 
   149     0214                     	;# 
   150     0214                     	;# 
   151     0215                     	;# 
   152     0215                     	;# 
   153     0215                     	;# 
   154     0216                     	;# 
   155     0216                     	;# 
   156     0217                     	;# 
   157     0217                     	;# 
   158     0291                     	;# 
   159     0291                     	;# 
   160     0292                     	;# 
   161     0293                     	;# 
   162     0294                     	;# 
   163     0295                     	;# 
   164     0295                     	;# 
   165     0296                     	;# 
   166     0391                     	;# 
   167     0392                     	;# 
   168     0393                     	;# 
   169     039A                     	;# 
   170     039C                     	;# 
   171     039D                     	;# 
   172     039E                     	;# 
   173     039F                     	;# 
   174     0FE4                     	;# 
   175     0FE5                     	;# 
   176     0FE6                     	;# 
   177     0FE7                     	;# 
   178     0FE8                     	;# 
   179     0FE9                     	;# 
   180     0FEA                     	;# 
   181     0FEB                     	;# 
   182     0FED                     	;# 
   183     0FEE                     	;# 
   184     0FEF                     	;# 
   185     0000                     	;# 
   186     0001                     	;# 
   187     0002                     	;# 
   188     0003                     	;# 
   189     0004                     	;# 
   190     0005                     	;# 
   191     0006                     	;# 
   192     0007                     	;# 
   193     0008                     	;# 
   194     0009                     	;# 
   195     000A                     	;# 
   196     000B                     	;# 
   197     000C                     	;# 
   198     0011                     	;# 
   199     0012                     	;# 
   200     0015                     	;# 
   201     0016                     	;# 
   202     0016                     	;# 
   203     0017                     	;# 
   204     0018                     	;# 
   205     0019                     	;# 
   206     001A                     	;# 
   207     001B                     	;# 
   208     001C                     	;# 
   209     001E                     	;# 
   210     001F                     	;# 
   211     008C                     	;# 
   212     0091                     	;# 
   213     0092                     	;# 
   214     0095                     	;# 
   215     0096                     	;# 
   216     0097                     	;# 
   217     0098                     	;# 
   218     0099                     	;# 
   219     009A                     	;# 
   220     009B                     	;# 
   221     009B                     	;# 
   222     009C                     	;# 
   223     009D                     	;# 
   224     009E                     	;# 
   225     010C                     	;# 
   226     0111                     	;# 
   227     0112                     	;# 
   228     0115                     	;# 
   229     0116                     	;# 
   230     0117                     	;# 
   231     0118                     	;# 
   232     0119                     	;# 
   233     011A                     	;# 
   234     011B                     	;# 
   235     011D                     	;# 
   236     011D                     	;# 
   237     018C                     	;# 
   238     0191                     	;# 
   239     0191                     	;# 
   240     0192                     	;# 
   241     0193                     	;# 
   242     0193                     	;# 
   243     0193                     	;# 
   244     0194                     	;# 
   245     0195                     	;# 
   246     0196                     	;# 
   247     0197                     	;# 
   248     0199                     	;# 
   249     019A                     	;# 
   250     019B                     	;# 
   251     019B                     	;# 
   252     019B                     	;# 
   253     019B                     	;# 
   254     019C                     	;# 
   255     019C                     	;# 
   256     019D                     	;# 
   257     019E                     	;# 
   258     019F                     	;# 
   259     020C                     	;# 
   260     0211                     	;# 
   261     0211                     	;# 
   262     0212                     	;# 
   263     0212                     	;# 
   264     0213                     	;# 
   265     0213                     	;# 
   266     0214                     	;# 
   267     0214                     	;# 
   268     0215                     	;# 
   269     0215                     	;# 
   270     0215                     	;# 
   271     0216                     	;# 
   272     0216                     	;# 
   273     0217                     	;# 
   274     0217                     	;# 
   275     0291                     	;# 
   276     0291                     	;# 
   277     0292                     	;# 
   278     0293                     	;# 
   279     0294                     	;# 
   280     0295                     	;# 
   281     0295                     	;# 
   282     0296                     	;# 
   283     0391                     	;# 
   284     0392                     	;# 
   285     0393                     	;# 
   286     039A                     	;# 
   287     039C                     	;# 
   288     039D                     	;# 
   289     039E                     	;# 
   290     039F                     	;# 
   291     0FE4                     	;# 
   292     0FE5                     	;# 
   293     0FE6                     	;# 
   294     0FE7                     	;# 
   295     0FE8                     	;# 
   296     0FE9                     	;# 
   297     0FEA                     	;# 
   298     0FEB                     	;# 
   299     0FED                     	;# 
   300     0FEE                     	;# 
   301     0FEF                     	;# 
   302     0000                     	;# 
   303     0001                     	;# 
   304     0002                     	;# 
   305     0003                     	;# 
   306     0004                     	;# 
   307     0005                     	;# 
   308     0006                     	;# 
   309     0007                     	;# 
   310     0008                     	;# 
   311     0009                     	;# 
   312     000A                     	;# 
   313     000B                     	;# 
   314     000C                     	;# 
   315     0011                     	;# 
   316     0012                     	;# 
   317     0015                     	;# 
   318     0016                     	;# 
   319     0016                     	;# 
   320     0017                     	;# 
   321     0018                     	;# 
   322     0019                     	;# 
   323     001A                     	;# 
   324     001B                     	;# 
   325     001C                     	;# 
   326     001E                     	;# 
   327     001F                     	;# 
   328     008C                     	;# 
   329     0091                     	;# 
   330     0092                     	;# 
   331     0095                     	;# 
   332     0096                     	;# 
   333     0097                     	;# 
   334     0098                     	;# 
   335     0099                     	;# 
   336     009A                     	;# 
   337     009B                     	;# 
   338     009B                     	;# 
   339     009C                     	;# 
   340     009D                     	;# 
   341     009E                     	;# 
   342     010C                     	;# 
   343     0111                     	;# 
   344     0112                     	;# 
   345     0115                     	;# 
   346     0116                     	;# 
   347     0117                     	;# 
   348     0118                     	;# 
   349     0119                     	;# 
   350     011A                     	;# 
   351     011B                     	;# 
   352     011D                     	;# 
   353     011D                     	;# 
   354     018C                     	;# 
   355     0191                     	;# 
   356     0191                     	;# 
   357     0192                     	;# 
   358     0193                     	;# 
   359     0193                     	;# 
   360     0193                     	;# 
   361     0194                     	;# 
   362     0195                     	;# 
   363     0196                     	;# 
   364     0197                     	;# 
   365     0199                     	;# 
   366     019A                     	;# 
   367     019B                     	;# 
   368     019B                     	;# 
   369     019B                     	;# 
   370     019B                     	;# 
   371     019C                     	;# 
   372     019C                     	;# 
   373     019D                     	;# 
   374     019E                     	;# 
   375     019F                     	;# 
   376     020C                     	;# 
   377     0211                     	;# 
   378     0211                     	;# 
   379     0212                     	;# 
   380     0212                     	;# 
   381     0213                     	;# 
   382     0213                     	;# 
   383     0214                     	;# 
   384     0214                     	;# 
   385     0215                     	;# 
   386     0215                     	;# 
   387     0215                     	;# 
   388     0216                     	;# 
   389     0216                     	;# 
   390     0217                     	;# 
   391     0217                     	;# 
   392     0291                     	;# 
   393     0291                     	;# 
   394     0292                     	;# 
   395     0293                     	;# 
   396     0294                     	;# 
   397     0295                     	;# 
   398     0295                     	;# 
   399     0296                     	;# 
   400     0391                     	;# 
   401     0392                     	;# 
   402     0393                     	;# 
   403     039A                     	;# 
   404     039C                     	;# 
   405     039D                     	;# 
   406     039E                     	;# 
   407     039F                     	;# 
   408     0FE4                     	;# 
   409     0FE5                     	;# 
   410     0FE6                     	;# 
   411     0FE7                     	;# 
   412     0FE8                     	;# 
   413     0FE9                     	;# 
   414     0FEA                     	;# 
   415     0FEB                     	;# 
   416     0FED                     	;# 
   417     0FEE                     	;# 
   418     0FEF                     	;# 
   419     0000                     	;# 
   420     0001                     	;# 
   421     0002                     	;# 
   422     0003                     	;# 
   423     0004                     	;# 
   424     0005                     	;# 
   425     0006                     	;# 
   426     0007                     	;# 
   427     0008                     	;# 
   428     0009                     	;# 
   429     000A                     	;# 
   430     000B                     	;# 
   431     000C                     	;# 
   432     0011                     	;# 
   433     0012                     	;# 
   434     0015                     	;# 
   435     0016                     	;# 
   436     0016                     	;# 
   437     0017                     	;# 
   438     0018                     	;# 
   439     0019                     	;# 
   440     001A                     	;# 
   441     001B                     	;# 
   442     001C                     	;# 
   443     001E                     	;# 
   444     001F                     	;# 
   445     008C                     	;# 
   446     0091                     	;# 
   447     0092                     	;# 
   448     0095                     	;# 
   449     0096                     	;# 
   450     0097                     	;# 
   451     0098                     	;# 
   452     0099                     	;# 
   453     009A                     	;# 
   454     009B                     	;# 
   455     009B                     	;# 
   456     009C                     	;# 
   457     009D                     	;# 
   458     009E                     	;# 
   459     010C                     	;# 
   460     0111                     	;# 
   461     0112                     	;# 
   462     0115                     	;# 
   463     0116                     	;# 
   464     0117                     	;# 
   465     0118                     	;# 
   466     0119                     	;# 
   467     011A                     	;# 
   468     011B                     	;# 
   469     011D                     	;# 
   470     011D                     	;# 
   471     018C                     	;# 
   472     0191                     	;# 
   473     0191                     	;# 
   474     0192                     	;# 
   475     0193                     	;# 
   476     0193                     	;# 
   477     0193                     	;# 
   478     0194                     	;# 
   479     0195                     	;# 
   480     0196                     	;# 
   481     0197                     	;# 
   482     0199                     	;# 
   483     019A                     	;# 
   484     019B                     	;# 
   485     019B                     	;# 
   486     019B                     	;# 
   487     019B                     	;# 
   488     019C                     	;# 
   489     019C                     	;# 
   490     019D                     	;# 
   491     019E                     	;# 
   492     019F                     	;# 
   493     020C                     	;# 
   494     0211                     	;# 
   495     0211                     	;# 
   496     0212                     	;# 
   497     0212                     	;# 
   498     0213                     	;# 
   499     0213                     	;# 
   500     0214                     	;# 
   501     0214                     	;# 
   502     0215                     	;# 
   503     0215                     	;# 
   504     0215                     	;# 
   505     0216                     	;# 
   506     0216                     	;# 
   507     0217                     	;# 
   508     0217                     	;# 
   509     0291                     	;# 
   510     0291                     	;# 
   511     0292                     	;# 
   512     0293                     	;# 
   513     0294                     	;# 
   514     0295                     	;# 
   515     0295                     	;# 
   516     0296                     	;# 
   517     0391                     	;# 
   518     0392                     	;# 
   519     0393                     	;# 
   520     039A                     	;# 
   521     039C                     	;# 
   522     039D                     	;# 
   523     039E                     	;# 
   524     039F                     	;# 
   525     0FE4                     	;# 
   526     0FE5                     	;# 
   527     0FE6                     	;# 
   528     0FE7                     	;# 
   529     0FE8                     	;# 
   530     0FE9                     	;# 
   531     0FEA                     	;# 
   532     0FEB                     	;# 
   533     0FED                     	;# 
   534     0FEE                     	;# 
   535     0FEF                     	;# 
   536     000C                     _PORTAbits	set	12
   537     0099                     _OSCCON	set	153
   538     008C                     _TRISAbits	set	140
   539     011D                     _APFCONbits	set	285
   540     019D                     _RCSTAbits	set	413
   541     019B                     _SPBRG	set	411
   542     019F                     _BAUDCONbits	set	415
   543     018C                     _ANSELA	set	396
   544     019A                     _TXREG	set	410
   545     019E                     _TXSTAbits	set	414
   546                           
   547                           	psect	cinit
   548     07F5                     start_initialization:	
   549                           ; #config settings
   550                           
   551     07F5                     __initialization:
   552                           
   553                           ; Clear objects allocated to BANK1
   554     07F5  30BB               	movlw	low __pbssBANK1
   555     07F6  0084               	movwf	4
   556     07F7  3000               	movlw	high __pbssBANK1
   557     07F8  0085               	movwf	5
   558     07F9  300E               	movlw	14
   559     07FA  318B  23C8  3187   	fcall	clear_ram0
   560     07FD                     end_of_initialization:	
   561                           ;End of C runtime variable initialization code
   562                           
   563     07FD                     __end_of__initialization:
   564     07FD  0020               	movlb	0
   565     07FE  318E  2EE2         	ljmp	_main	;jump to C main() function
   566                           
   567                           	psect	bssBANK1
   568     00BB                     __pbssBANK1:
   569     00BB                     _Humidity_Value:
   570     00BB                     	ds	2
   571     00BD                     _Temperature_Value:
   572     00BD                     	ds	2
   573     00BF                     _Humidity:
   574     00BF                     	ds	2
   575     00C1                     _Temperature:
   576     00C1                     	ds	2
   577     00C3                     _hundred1:
   578     00C3                     	ds	1
   579     00C4                     _one1:
   580     00C4                     	ds	1
   581     00C5                     _ten1:
   582     00C5                     	ds	1
   583     00C6                     _hundred:
   584     00C6                     	ds	1
   585     00C7                     _one:
   586     00C7                     	ds	1
   587     00C8                     _ten:
   588     00C8                     	ds	1
   589                           
   590                           	psect	clrtext
   591     0BC8                     clear_ram0:	
   592                           ;	Called with FSR0 containing the base address, and
   593                           ;	WREG with the size to clear
   594                           
   595     0BC8  0064               	clrwdt	;clear the watchdog before getting into this loop
   596     0BC9                     clrloop0:
   597     0BC9  0180               	clrf	0	;clear RAM location pointed to by FSR
   598     0BCA  3101               	addfsr 0,1
   599     0BCB  0B89               	decfsz	9,f	;Have we reached the end of clearing yet?
   600     0BCC  2BC9               	goto	clrloop0	;have we reached the end yet?
   601     0BCD  3400               	retlw	0	;all done for this memory range, return
   602                           
   603                           	psect	cstackBANK1
   604     00A0                     __pcstackBANK1:
   605     00A0                     ___fltol@sign1:
   606                           
   607                           ; 1 bytes @ 0x0
   608     00A0                     	ds	1
   609     00A1                     ___fltol@exp1:
   610                           
   611                           ; 1 bytes @ 0x1
   612     00A1                     	ds	1
   613     00A2                     ??_GXHT30_read_result:
   614                           
   615                           ; 1 bytes @ 0x2
   616     00A2                     	ds	2
   617     00A4                     GXHT30_read_result@addr:
   618                           
   619                           ; 1 bytes @ 0x4
   620     00A4                     	ds	1
   621     00A5                     GXHT30_read_result@tem:
   622                           
   623                           ; 2 bytes @ 0x5
   624     00A5                     	ds	2
   625     00A7                     GXHT30_read_result@hum:
   626                           
   627                           ; 2 bytes @ 0x7
   628     00A7                     	ds	2
   629     00A9                     GXHT30_read_result@buff:
   630                           
   631                           ; 12 bytes @ 0x9
   632     00A9                     	ds	12
   633     00B5                     _GXHT30_read_result$953:
   634                           
   635                           ; 4 bytes @ 0x15
   636     00B5                     	ds	4
   637     00B9                     ??_main:
   638                           
   639                           ; 1 bytes @ 0x19
   640     00B9                     	ds	2
   641                           
   642                           	psect	cstackCOMMON
   643     0070                     __pcstackCOMMON:
   644     0070                     ?_main_init:
   645     0070                     ??_main_init:	
   646                           ; 1 bytes @ 0x0
   647                           
   648     0070                     ?_IIC_init:	
   649                           ; 1 bytes @ 0x0
   650                           
   651     0070                     ??_IIC_init:	
   652                           ; 1 bytes @ 0x0
   653                           
   654     0070                     ?_GXHT30_read_result:	
   655                           ; 1 bytes @ 0x0
   656                           
   657     0070                     ?_main:	
   658                           ; 1 bytes @ 0x0
   659                           
   660     0070                     ?_IIC_Start:	
   661                           ; 1 bytes @ 0x0
   662                           
   663     0070                     ??_IIC_Start:	
   664                           ; 1 bytes @ 0x0
   665                           
   666     0070                     ?_IIC_Stop:	
   667                           ; 1 bytes @ 0x0
   668                           
   669     0070                     ??_IIC_Stop:	
   670                           ; 1 bytes @ 0x0
   671                           
   672     0070                     ?_IIC_Ack:	
   673                           ; 1 bytes @ 0x0
   674                           
   675     0070                     ??_IIC_Ack:	
   676                           ; 1 bytes @ 0x0
   677                           
   678     0070                     ?_IIC_NAck:	
   679                           ; 1 bytes @ 0x0
   680                           
   681     0070                     ??_IIC_NAck:	
   682                           ; 1 bytes @ 0x0
   683                           
   684     0070                     ?_IIC_WAck:	
   685                           ; 1 bytes @ 0x0
   686                           
   687     0070                     ??_IIC_WAck:	
   688                           ; 1 bytes @ 0x0
   689                           
   690     0070                     ?_IIC_SendByte:	
   691                           ; 1 bytes @ 0x0
   692                           
   693     0070                     ?_IIC_ReadByte:	
   694                           ; 1 bytes @ 0x0
   695                           
   696     0070                     ?__Umul8_16:	
   697                           ; 1 bytes @ 0x0
   698                           
   699     0070                     ?___awmod:	
   700                           ; 2 bytes @ 0x0
   701                           
   702     0070                     ?___xxtofl:	
   703                           ; 2 bytes @ 0x0
   704                           
   705     0070                     __Umul8_16@multiplicand:	
   706                           ; 4 bytes @ 0x0
   707                           
   708     0070                     IIC_SendByte@txd:	
   709                           ; 1 bytes @ 0x0
   710                           
   711     0070                     IIC_ReadByte@ack:	
   712                           ; 2 bytes @ 0x0
   713                           
   714     0070                     ___awmod@divisor:	
   715                           ; 2 bytes @ 0x0
   716                           
   717     0070                     ___xxtofl@val:	
   718                           ; 2 bytes @ 0x0
   719                           
   720                           
   721                           ; 4 bytes @ 0x0
   722     0070                     	ds	1
   723     0071                     IIC_WAck@i:
   724                           
   725                           ; 1 bytes @ 0x1
   726     0071                     	ds	1
   727     0072                     ??__Umul8_16:
   728     0072                     ??_IIC_SendByte:	
   729                           ; 1 bytes @ 0x2
   730                           
   731     0072                     ??_IIC_ReadByte:	
   732                           ; 1 bytes @ 0x2
   733                           
   734     0072                     IIC_SendByte@i:	
   735                           ; 1 bytes @ 0x2
   736                           
   737     0072                     ___awmod@dividend:	
   738                           ; 2 bytes @ 0x2
   739                           
   740                           
   741                           ; 2 bytes @ 0x2
   742     0072                     	ds	1
   743     0073                     IIC_ReadByte@receive:
   744                           
   745                           ; 1 bytes @ 0x3
   746     0073                     	ds	1
   747     0074                     ?_GXHT30_write_cmd:
   748     0074                     ??___awmod:	
   749                           ; 1 bytes @ 0x4
   750                           
   751     0074                     ??___xxtofl:	
   752                           ; 1 bytes @ 0x4
   753                           
   754     0074                     IIC_ReadByte@i:	
   755                           ; 1 bytes @ 0x4
   756                           
   757     0074                     GXHT30_write_cmd@MSB:	
   758                           ; 1 bytes @ 0x4
   759                           
   760     0074                     __Umul8_16@product:	
   761                           ; 1 bytes @ 0x4
   762                           
   763                           
   764                           ; 2 bytes @ 0x4
   765     0074                     	ds	1
   766     0075                     GXHT30_write_cmd@LSB:
   767     0075                     ___awmod@counter:	
   768                           ; 1 bytes @ 0x5
   769                           
   770                           
   771                           ; 1 bytes @ 0x5
   772     0075                     	ds	1
   773     0076                     ??_GXHT30_write_cmd:
   774     0076                     ___awmod@sign:	
   775                           ; 1 bytes @ 0x6
   776                           
   777     0076                     __Umul8_16@word_mpld:	
   778                           ; 1 bytes @ 0x6
   779                           
   780                           
   781                           ; 2 bytes @ 0x6
   782     0076                     	ds	1
   783     0077                     ?___awdiv:
   784     0077                     ___awdiv@divisor:	
   785                           ; 2 bytes @ 0x7
   786                           
   787                           
   788                           ; 2 bytes @ 0x7
   789     0077                     	ds	1
   790     0078                     GXHT30_write_cmd@addr:
   791     0078                     __Umul8_16@multiplier:	
   792                           ; 1 bytes @ 0x8
   793                           
   794     0078                     ___xxtofl@sign:	
   795                           ; 1 bytes @ 0x8
   796                           
   797                           
   798                           ; 1 bytes @ 0x8
   799     0078                     	ds	1
   800     0079                     ___xxtofl@exp:
   801     0079                     ___awdiv@dividend:	
   802                           ; 1 bytes @ 0x9
   803                           
   804                           
   805                           ; 2 bytes @ 0x9
   806     0079                     	ds	1
   807     007A                     ___xxtofl@arg:
   808                           
   809                           ; 4 bytes @ 0xA
   810     007A                     	ds	1
   811     007B                     ??___awdiv:
   812                           
   813                           ; 1 bytes @ 0xB
   814     007B                     	ds	1
   815     007C                     ??_ASCII_TH:
   816                           
   817                           ; 1 bytes @ 0xC
   818     007C                     	ds	2
   819                           
   820                           	psect	cstackBANK0
   821     0020                     __pcstackBANK0:
   822     0020                     ?___flmul:
   823     0020                     ___awdiv@counter:	
   824                           ; 4 bytes @ 0x0
   825                           
   826     0020                     ___flmul@b:	
   827                           ; 1 bytes @ 0x0
   828                           
   829                           
   830                           ; 4 bytes @ 0x0
   831     0020                     	ds	1
   832     0021                     ___awdiv@sign:
   833                           
   834                           ; 1 bytes @ 0x1
   835     0021                     	ds	1
   836     0022                     ___awdiv@quotient:
   837                           
   838                           ; 2 bytes @ 0x2
   839     0022                     	ds	2
   840     0024                     ?_ASCII_TH:
   841     0024                     ASCII_TH@Value:	
   842                           ; 1 bytes @ 0x4
   843                           
   844     0024                     ___flmul@a:	
   845                           ; 2 bytes @ 0x4
   846                           
   847                           
   848                           ; 4 bytes @ 0x4
   849     0024                     	ds	2
   850     0026                     ASCII_TH@bit:
   851                           
   852                           ; 1 bytes @ 0x6
   853     0026                     	ds	2
   854     0028                     ??___flmul:
   855                           
   856                           ; 1 bytes @ 0x8
   857     0028                     	ds	5
   858     002D                     ___flmul@sign:
   859                           
   860                           ; 1 bytes @ 0xD
   861     002D                     	ds	1
   862     002E                     ___flmul@grs:
   863                           
   864                           ; 4 bytes @ 0xE
   865     002E                     	ds	4
   866     0032                     ___flmul@aexp:
   867                           
   868                           ; 1 bytes @ 0x12
   869     0032                     	ds	1
   870     0033                     ___flmul@bexp:
   871                           
   872                           ; 1 bytes @ 0x13
   873     0033                     	ds	1
   874     0034                     ___flmul@prod:
   875                           
   876                           ; 4 bytes @ 0x14
   877     0034                     	ds	4
   878     0038                     ___flmul@temp:
   879                           
   880                           ; 2 bytes @ 0x18
   881     0038                     	ds	2
   882     003A                     ?___fldiv:
   883     003A                     ___fldiv@a:	
   884                           ; 4 bytes @ 0x1A
   885                           
   886                           
   887                           ; 4 bytes @ 0x1A
   888     003A                     	ds	4
   889     003E                     ___fldiv@b:
   890                           
   891                           ; 4 bytes @ 0x1E
   892     003E                     	ds	4
   893     0042                     ??___fldiv:
   894                           
   895                           ; 1 bytes @ 0x22
   896     0042                     	ds	5
   897     0047                     ___fldiv@rem:
   898                           
   899                           ; 4 bytes @ 0x27
   900     0047                     	ds	4
   901     004B                     ___fldiv@sign:
   902                           
   903                           ; 1 bytes @ 0x2B
   904     004B                     	ds	1
   905     004C                     ___fldiv@new_exp:
   906                           
   907                           ; 2 bytes @ 0x2C
   908     004C                     	ds	2
   909     004E                     ___fldiv@grs:
   910                           
   911                           ; 4 bytes @ 0x2E
   912     004E                     	ds	4
   913     0052                     ___fldiv@bexp:
   914                           
   915                           ; 1 bytes @ 0x32
   916     0052                     	ds	1
   917     0053                     ___fldiv@aexp:
   918                           
   919                           ; 1 bytes @ 0x33
   920     0053                     	ds	1
   921     0054                     ?___fladd:
   922     0054                     ___fladd@b:	
   923                           ; 4 bytes @ 0x34
   924                           
   925                           
   926                           ; 4 bytes @ 0x34
   927     0054                     	ds	4
   928     0058                     ___fladd@a:
   929                           
   930                           ; 4 bytes @ 0x38
   931     0058                     	ds	4
   932     005C                     ??___fladd:
   933                           
   934                           ; 1 bytes @ 0x3C
   935     005C                     	ds	8
   936     0064                     ___fladd@signs:
   937                           
   938                           ; 1 bytes @ 0x44
   939     0064                     	ds	1
   940     0065                     ___fladd@aexp:
   941                           
   942                           ; 1 bytes @ 0x45
   943     0065                     	ds	1
   944     0066                     ___fladd@bexp:
   945                           
   946                           ; 1 bytes @ 0x46
   947     0066                     	ds	1
   948     0067                     ___fladd@grs:
   949                           
   950                           ; 1 bytes @ 0x47
   951     0067                     	ds	1
   952     0068                     ?___fltol:
   953     0068                     ___fltol@f1:	
   954                           ; 4 bytes @ 0x48
   955                           
   956                           
   957                           ; 4 bytes @ 0x48
   958     0068                     	ds	4
   959     006C                     ??___fltol:
   960                           
   961                           ; 1 bytes @ 0x4C
   962     006C                     	ds	4
   963                           
   964                           	psect	maintext
   965     0EE2                     __pmaintext:	
   966 ;;
   967 ;;Main: autosize = 0, tempsize = 2, incstack = 0, save=0
   968 ;;
   969 ;; *************** function _main *****************
   970 ;; Defined at:
   971 ;;		line 15 in file "main.c"
   972 ;; Parameters:    Size  Location     Type
   973 ;;		None
   974 ;; Auto vars:     Size  Location     Type
   975 ;;		None
   976 ;; Return value:  Size  Location     Type
   977 ;;                  1    wreg      void 
   978 ;; Registers used:
   979 ;;		wreg, status,2, status,0, pclath, cstack
   980 ;; Tracked objects:
   981 ;;		On entry : B1F/0
   982 ;;		On exit  : 0/0
   983 ;;		Unchanged: 0/0
   984 ;; Data sizes:     COMMON   BANK0   BANK1   BANK2
   985 ;;      Params:         0       0       0       0
   986 ;;      Locals:         0       0       0       0
   987 ;;      Temps:          0       0       2       0
   988 ;;      Totals:         0       0       2       0
   989 ;;Total ram usage:        2 bytes
   990 ;; Hardware stack levels required when called: 3
   991 ;; This function calls:
   992 ;;		_ASCII_TH
   993 ;;		_GXHT30_read_result
   994 ;;		_GXHT30_write_cmd
   995 ;;		_IIC_init
   996 ;;		_main_init
   997 ;; This function is called by:
   998 ;;		Startup code after reset
   999 ;; This function uses a non-reentrant model
  1000 ;;
  1001                           
  1002     0EE2                     _main:	
  1003                           ;psect for function _main
  1004                           
  1005     0EE2                     l2535:	
  1006                           ;incstack = 0
  1007                           ; Regs used in _main: [wreg+status,2+status,0+pclath+cstack]
  1008                           
  1009                           
  1010                           ;main.c: 17:  main_init();
  1011     0EE2  318C  2404  318E   	fcall	_main_init
  1012     0EE5                     l2537:
  1013                           
  1014                           ;main.c: 18:  IIC_init();
  1015     0EE5  3180  2005  318E   	fcall	_IIC_init
  1016     0EE8                     l2539:
  1017                           
  1018                           ;main.c: 19:  TXSTAbits.TXEN = 1;
  1019     0EE8  0023               	movlb	3	; select bank3
  1020     0EE9  169E               	bsf	30,5	;volatile
  1021                           
  1022                           ;main.c: 20:  _delay((unsigned long)((10)*(8000000/4000.0)));
  1023     0EEA  301A               	movlw	26
  1024     0EEB  0021               	movlb	1	; select bank1
  1025     0EEC  00B9               	movwf	??_main^(0+128)
  1026     0EED  30F8               	movlw	248
  1027     0EEE                     u3477:
  1028     0EEE  0B89               	decfsz	9,f
  1029     0EEF  2EEE               	goto	u3477
  1030     0EF0  0BB9               	decfsz	??_main^(0+128),f
  1031     0EF1  2EEE               	goto	u3477
  1032     0EF2  0000               	nop
  1033     0EF3                     l2541:
  1034                           
  1035                           ;main.c: 23:  {;main.c: 24:   GXHT30_write_cmd(0x88, 0x2C, 0x0D);
  1036     0EF3  302C               	movlw	44
  1037     0EF4  00F4               	movwf	GXHT30_write_cmd@MSB
  1038     0EF5  300D               	movlw	13
  1039     0EF6  00F5               	movwf	GXHT30_write_cmd@LSB
  1040     0EF7  3088               	movlw	136
  1041     0EF8  3180  200C  318E   	fcall	_GXHT30_write_cmd
  1042     0EFB                     l2543:
  1043                           
  1044                           ;main.c: 25:   _delay((unsigned long)((18)*(8000000/4000.0)));
  1045     0EFB  302F               	movlw	47
  1046     0EFC  0021               	movlb	1	; select bank1
  1047     0EFD  00B9               	movwf	??_main^(0+128)
  1048     0EFE  30BF               	movlw	191
  1049     0EFF                     u3487:
  1050     0EFF  0B89               	decfsz	9,f
  1051     0F00  2EFF               	goto	u3487
  1052     0F01  0BB9               	decfsz	??_main^(0+128),f
  1053     0F02  2EFF               	goto	u3487
  1054     0F03  3200               	nop2
  1055                           
  1056                           ;main.c: 26:   GXHT30_read_result(0x88);
  1057     0F04  3088               	movlw	136
  1058     0F05  3180  2073  318E   	fcall	_GXHT30_read_result
  1059     0F08                     l2545:
  1060                           
  1061                           ;main.c: 27:   _delay((unsigned long)((200)*(8000000/4000.0)));
  1062     0F08  3003               	movlw	3
  1063     0F09  0021               	movlb	1	; select bank1
  1064     0F0A  00BA               	movwf	(??_main^(0+128)+1)
  1065     0F0B  3008               	movlw	8
  1066     0F0C  00B9               	movwf	??_main^(0+128)
  1067     0F0D  3077               	movlw	119
  1068     0F0E                     u3497:
  1069     0F0E  0B89               	decfsz	9,f
  1070     0F0F  2F0E               	goto	u3497
  1071     0F10  0BB9               	decfsz	??_main^(0+128),f
  1072     0F11  2F0E               	goto	u3497
  1073     0F12  0BBA               	decfsz	(??_main^(0+128)+1),f
  1074     0F13  2F0E               	goto	u3497
  1075     0F14                     l2547:
  1076                           
  1077                           ;main.c: 29:   if(Humidity == 1000) Humidity = 999;
  1078     0F14  30E8               	movlw	232
  1079     0F15  0021               	movlb	1	; select bank1
  1080     0F16  063F               	xorwf	_Humidity^(0+128),w
  1081     0F17  3003               	movlw	3
  1082     0F18  1903               	skipnz
  1083     0F19  0640               	xorwf	(_Humidity+1)^(0+128),w
  1084     0F1A  1D03               	btfss	3,2
  1085     0F1B  2F1D               	goto	u3311
  1086     0F1C  2F1E               	goto	u3310
  1087     0F1D                     u3311:
  1088     0F1D  2F22               	goto	l2551
  1089     0F1E                     u3310:
  1090     0F1E                     l2549:
  1091     0F1E  30E7               	movlw	231
  1092     0F1F  00BF               	movwf	_Humidity^(0+128)
  1093     0F20  3003               	movlw	3
  1094     0F21  00C0               	movwf	(_Humidity^(0+128)+1)
  1095     0F22                     l2551:
  1096                           
  1097                           ;main.c: 31:   one = ASCII_TH(Temperature, 1);
  1098     0F22  0842               	movf	(_Temperature+1)^(0+128),w
  1099     0F23  0020               	movlb	0	; select bank0
  1100     0F24  00A5               	movwf	ASCII_TH@Value+1
  1101     0F25  0021               	movlb	1	; select bank1
  1102     0F26  0841               	movf	_Temperature^(0+128),w
  1103     0F27  0020               	movlb	0	; select bank0
  1104     0F28  00A4               	movwf	ASCII_TH@Value
  1105     0F29  01A6               	clrf	ASCII_TH@bit
  1106     0F2A  0AA6               	incf	ASCII_TH@bit,f
  1107     0F2B  318C  24C0  318E   	fcall	_ASCII_TH
  1108     0F2E  0021               	movlb	1	; select bank1
  1109     0F2F  00C7               	movwf	_one^(0+128)
  1110     0F30                     l2553:
  1111                           
  1112                           ;main.c: 32:   ten = ASCII_TH(Temperature, 2);
  1113     0F30  0842               	movf	(_Temperature+1)^(0+128),w
  1114     0F31  0020               	movlb	0	; select bank0
  1115     0F32  00A5               	movwf	ASCII_TH@Value+1
  1116     0F33  0021               	movlb	1	; select bank1
  1117     0F34  0841               	movf	_Temperature^(0+128),w
  1118     0F35  0020               	movlb	0	; select bank0
  1119     0F36  00A4               	movwf	ASCII_TH@Value
  1120     0F37  3002               	movlw	2
  1121     0F38  00A6               	movwf	ASCII_TH@bit
  1122     0F39  318C  24C0  318E   	fcall	_ASCII_TH
  1123     0F3C  0021               	movlb	1	; select bank1
  1124     0F3D  00C8               	movwf	_ten^(0+128)
  1125     0F3E                     l2555:
  1126                           
  1127                           ;main.c: 33:   hundred = ASCII_TH(Temperature, 3);
  1128     0F3E  0842               	movf	(_Temperature+1)^(0+128),w
  1129     0F3F  0020               	movlb	0	; select bank0
  1130     0F40  00A5               	movwf	ASCII_TH@Value+1
  1131     0F41  0021               	movlb	1	; select bank1
  1132     0F42  0841               	movf	_Temperature^(0+128),w
  1133     0F43  0020               	movlb	0	; select bank0
  1134     0F44  00A4               	movwf	ASCII_TH@Value
  1135     0F45  3003               	movlw	3
  1136     0F46  00A6               	movwf	ASCII_TH@bit
  1137     0F47  318C  24C0  318E   	fcall	_ASCII_TH
  1138     0F4A  0021               	movlb	1	; select bank1
  1139     0F4B  00C6               	movwf	_hundred^(0+128)
  1140     0F4C                     l2557:
  1141                           
  1142                           ;main.c: 35:   one1 = ASCII_TH(Humidity, 1);
  1143     0F4C  0840               	movf	(_Humidity+1)^(0+128),w
  1144     0F4D  0020               	movlb	0	; select bank0
  1145     0F4E  00A5               	movwf	ASCII_TH@Value+1
  1146     0F4F  0021               	movlb	1	; select bank1
  1147     0F50  083F               	movf	_Humidity^(0+128),w
  1148     0F51  0020               	movlb	0	; select bank0
  1149     0F52  00A4               	movwf	ASCII_TH@Value
  1150     0F53  01A6               	clrf	ASCII_TH@bit
  1151     0F54  0AA6               	incf	ASCII_TH@bit,f
  1152     0F55  318C  24C0  318E   	fcall	_ASCII_TH
  1153     0F58  0021               	movlb	1	; select bank1
  1154     0F59  00C4               	movwf	_one1^(0+128)
  1155     0F5A                     l2559:
  1156                           
  1157                           ;main.c: 36:   ten1 = ASCII_TH(Humidity, 2);
  1158     0F5A  0840               	movf	(_Humidity+1)^(0+128),w
  1159     0F5B  0020               	movlb	0	; select bank0
  1160     0F5C  00A5               	movwf	ASCII_TH@Value+1
  1161     0F5D  0021               	movlb	1	; select bank1
  1162     0F5E  083F               	movf	_Humidity^(0+128),w
  1163     0F5F  0020               	movlb	0	; select bank0
  1164     0F60  00A4               	movwf	ASCII_TH@Value
  1165     0F61  3002               	movlw	2
  1166     0F62  00A6               	movwf	ASCII_TH@bit
  1167     0F63  318C  24C0  318E   	fcall	_ASCII_TH
  1168     0F66  0021               	movlb	1	; select bank1
  1169     0F67  00C5               	movwf	_ten1^(0+128)
  1170     0F68                     l2561:
  1171                           
  1172                           ;main.c: 37:   hundred1 = ASCII_TH(Humidity, 3);
  1173     0F68  0840               	movf	(_Humidity+1)^(0+128),w
  1174     0F69  0020               	movlb	0	; select bank0
  1175     0F6A  00A5               	movwf	ASCII_TH@Value+1
  1176     0F6B  0021               	movlb	1	; select bank1
  1177     0F6C  083F               	movf	_Humidity^(0+128),w
  1178     0F6D  0020               	movlb	0	; select bank0
  1179     0F6E  00A4               	movwf	ASCII_TH@Value
  1180     0F6F  3003               	movlw	3
  1181     0F70  00A6               	movwf	ASCII_TH@bit
  1182     0F71  318C  24C0  318E   	fcall	_ASCII_TH
  1183     0F74  0021               	movlb	1	; select bank1
  1184     0F75  00C3               	movwf	_hundred1^(0+128)
  1185                           
  1186                           ;main.c: 38:   _delay((unsigned long)((5)*(8000000/4000.0)));
  1187     0F76  300D               	movlw	13
  1188     0F77  0021               	movlb	1	; select bank1
  1189     0F78  00B9               	movwf	??_main^(0+128)
  1190     0F79  30FB               	movlw	251
  1191     0F7A                     u3507:
  1192     0F7A  0B89               	decfsz	9,f
  1193     0F7B  2F7A               	goto	u3507
  1194     0F7C  0BB9               	decfsz	??_main^(0+128),f
  1195     0F7D  2F7A               	goto	u3507
  1196     0F7E  3200               	nop2
  1197                           
  1198                           ;main.c: 40:   TXREG = hundred;
  1199     0F7F  0021               	movlb	1	; select bank1
  1200     0F80  0846               	movf	_hundred^(0+128),w
  1201     0F81  0023               	movlb	3	; select bank3
  1202     0F82  009A               	movwf	26	;volatile
  1203     0F83                     l43:	
  1204                           ;main.c: 41:   while(!TXSTAbits.TRMT);
  1205                           
  1206     0F83  1C9E               	btfss	30,1	;volatile
  1207     0F84  2F86               	goto	u3321
  1208     0F85  2F87               	goto	u3320
  1209     0F86                     u3321:
  1210     0F86  2F83               	goto	l43
  1211     0F87                     u3320:
  1212     0F87                     l2563:
  1213                           
  1214                           ;main.c: 42:   TXREG = ten;
  1215     0F87  0021               	movlb	1	; select bank1
  1216     0F88  0848               	movf	_ten^(0+128),w
  1217     0F89  0023               	movlb	3	; select bank3
  1218     0F8A  009A               	movwf	26	;volatile
  1219     0F8B                     l46:	
  1220                           ;main.c: 43:   while(!TXSTAbits.TRMT);
  1221                           
  1222     0F8B  1C9E               	btfss	30,1	;volatile
  1223     0F8C  2F8E               	goto	u3331
  1224     0F8D  2F8F               	goto	u3330
  1225     0F8E                     u3331:
  1226     0F8E  2F8B               	goto	l46
  1227     0F8F                     u3330:
  1228     0F8F                     l2565:
  1229                           
  1230                           ;main.c: 44:   TXREG = 46;
  1231     0F8F  302E               	movlw	46
  1232     0F90  009A               	movwf	26	;volatile
  1233     0F91                     l49:	
  1234                           ;main.c: 45:   while(!TXSTAbits.TRMT);
  1235                           
  1236     0F91  1C9E               	btfss	30,1	;volatile
  1237     0F92  2F94               	goto	u3341
  1238     0F93  2F95               	goto	u3340
  1239     0F94                     u3341:
  1240     0F94  2F91               	goto	l49
  1241     0F95                     u3340:
  1242     0F95                     l2567:
  1243                           
  1244                           ;main.c: 46:   TXREG = one;
  1245     0F95  0021               	movlb	1	; select bank1
  1246     0F96  0847               	movf	_one^(0+128),w
  1247     0F97  0023               	movlb	3	; select bank3
  1248     0F98  009A               	movwf	26	;volatile
  1249     0F99                     l52:	
  1250                           ;main.c: 47:   while(!TXSTAbits.TRMT);
  1251                           
  1252     0F99  1C9E               	btfss	30,1	;volatile
  1253     0F9A  2F9C               	goto	u3351
  1254     0F9B  2F9D               	goto	u3350
  1255     0F9C                     u3351:
  1256     0F9C  2F99               	goto	l52
  1257     0F9D                     u3350:
  1258     0F9D                     l2569:
  1259                           
  1260                           ;main.c: 48:   TXREG = 161;
  1261     0F9D  30A1               	movlw	161
  1262     0F9E  009A               	movwf	26	;volatile
  1263     0F9F                     l55:	
  1264                           ;main.c: 49:   while(!TXSTAbits.TRMT);
  1265                           
  1266     0F9F  1C9E               	btfss	30,1	;volatile
  1267     0FA0  2FA2               	goto	u3361
  1268     0FA1  2FA3               	goto	u3360
  1269     0FA2                     u3361:
  1270     0FA2  2F9F               	goto	l55
  1271     0FA3                     u3360:
  1272     0FA3                     l2571:
  1273                           
  1274                           ;main.c: 50:   TXREG = 230;
  1275     0FA3  30E6               	movlw	230
  1276     0FA4  009A               	movwf	26	;volatile
  1277     0FA5                     l58:	
  1278                           ;main.c: 51:   while(!TXSTAbits.TRMT);
  1279                           
  1280     0FA5  1C9E               	btfss	30,1	;volatile
  1281     0FA6  2FA8               	goto	u3371
  1282     0FA7  2FA9               	goto	u3370
  1283     0FA8                     u3371:
  1284     0FA8  2FA5               	goto	l58
  1285     0FA9                     u3370:
  1286     0FA9                     l2573:
  1287                           
  1288                           ;main.c: 52:   TXREG = 32;
  1289     0FA9  3020               	movlw	32
  1290     0FAA  009A               	movwf	26	;volatile
  1291     0FAB                     l61:	
  1292                           ;main.c: 53:   while(!TXSTAbits.TRMT);
  1293                           
  1294     0FAB  1C9E               	btfss	30,1	;volatile
  1295     0FAC  2FAE               	goto	u3381
  1296     0FAD  2FAF               	goto	u3380
  1297     0FAE                     u3381:
  1298     0FAE  2FAB               	goto	l61
  1299     0FAF                     u3380:
  1300     0FAF                     l2575:
  1301                           
  1302                           ;main.c: 54:   TXREG = 32;
  1303     0FAF  3020               	movlw	32
  1304     0FB0  009A               	movwf	26	;volatile
  1305     0FB1                     l64:	
  1306                           ;main.c: 55:   while(!TXSTAbits.TRMT);
  1307                           
  1308     0FB1  1C9E               	btfss	30,1	;volatile
  1309     0FB2  2FB4               	goto	u3391
  1310     0FB3  2FB5               	goto	u3390
  1311     0FB4                     u3391:
  1312     0FB4  2FB1               	goto	l64
  1313     0FB5                     u3390:
  1314     0FB5                     l2577:
  1315                           
  1316                           ;main.c: 57:   TXREG = hundred1;
  1317     0FB5  0021               	movlb	1	; select bank1
  1318     0FB6  0843               	movf	_hundred1^(0+128),w
  1319     0FB7  0023               	movlb	3	; select bank3
  1320     0FB8  009A               	movwf	26	;volatile
  1321     0FB9                     l67:	
  1322                           ;main.c: 58:   while(!TXSTAbits.TRMT);
  1323                           
  1324     0FB9  1C9E               	btfss	30,1	;volatile
  1325     0FBA  2FBC               	goto	u3401
  1326     0FBB  2FBD               	goto	u3400
  1327     0FBC                     u3401:
  1328     0FBC  2FB9               	goto	l67
  1329     0FBD                     u3400:
  1330     0FBD                     l2579:
  1331                           
  1332                           ;main.c: 59:   TXREG = ten1;
  1333     0FBD  0021               	movlb	1	; select bank1
  1334     0FBE  0845               	movf	_ten1^(0+128),w
  1335     0FBF  0023               	movlb	3	; select bank3
  1336     0FC0  009A               	movwf	26	;volatile
  1337     0FC1                     l70:	
  1338                           ;main.c: 60:   while(!TXSTAbits.TRMT);
  1339                           
  1340     0FC1  1C9E               	btfss	30,1	;volatile
  1341     0FC2  2FC4               	goto	u3411
  1342     0FC3  2FC5               	goto	u3410
  1343     0FC4                     u3411:
  1344     0FC4  2FC1               	goto	l70
  1345     0FC5                     u3410:
  1346     0FC5                     l2581:
  1347                           
  1348                           ;main.c: 61:   TXREG = 46;
  1349     0FC5  302E               	movlw	46
  1350     0FC6  009A               	movwf	26	;volatile
  1351     0FC7                     l73:	
  1352                           ;main.c: 62:   while(!TXSTAbits.TRMT);
  1353                           
  1354     0FC7  1C9E               	btfss	30,1	;volatile
  1355     0FC8  2FCA               	goto	u3421
  1356     0FC9  2FCB               	goto	u3420
  1357     0FCA                     u3421:
  1358     0FCA  2FC7               	goto	l73
  1359     0FCB                     u3420:
  1360     0FCB                     l2583:
  1361                           
  1362                           ;main.c: 63:   TXREG = one1;
  1363     0FCB  0021               	movlb	1	; select bank1
  1364     0FCC  0844               	movf	_one1^(0+128),w
  1365     0FCD  0023               	movlb	3	; select bank3
  1366     0FCE  009A               	movwf	26	;volatile
  1367     0FCF                     l76:	
  1368                           ;main.c: 64:   while(!TXSTAbits.TRMT);
  1369                           
  1370     0FCF  1C9E               	btfss	30,1	;volatile
  1371     0FD0  2FD2               	goto	u3431
  1372     0FD1  2FD3               	goto	u3430
  1373     0FD2                     u3431:
  1374     0FD2  2FCF               	goto	l76
  1375     0FD3                     u3430:
  1376     0FD3                     l2585:
  1377                           
  1378                           ;main.c: 65:   TXREG = 37;
  1379     0FD3  3025               	movlw	37
  1380     0FD4  009A               	movwf	26	;volatile
  1381     0FD5                     l79:	
  1382                           ;main.c: 66:   while(!TXSTAbits.TRMT);
  1383                           
  1384     0FD5  1C9E               	btfss	30,1	;volatile
  1385     0FD6  2FD8               	goto	u3441
  1386     0FD7  2FD9               	goto	u3440
  1387     0FD8                     u3441:
  1388     0FD8  2FD5               	goto	l79
  1389     0FD9                     u3440:
  1390     0FD9                     l2587:
  1391                           
  1392                           ;main.c: 67:   TXREG = 32;
  1393     0FD9  3020               	movlw	32
  1394     0FDA  009A               	movwf	26	;volatile
  1395     0FDB                     l82:	
  1396                           ;main.c: 68:   while(!TXSTAbits.TRMT);
  1397                           
  1398     0FDB  1C9E               	btfss	30,1	;volatile
  1399     0FDC  2FDE               	goto	u3451
  1400     0FDD  2FDF               	goto	u3450
  1401     0FDE                     u3451:
  1402     0FDE  2FDB               	goto	l82
  1403     0FDF                     u3450:
  1404     0FDF                     l2589:
  1405                           
  1406                           ;main.c: 69:   TXREG = 13;
  1407     0FDF  300D               	movlw	13
  1408     0FE0  009A               	movwf	26	;volatile
  1409     0FE1                     l85:	
  1410                           ;main.c: 70:   while(!TXSTAbits.TRMT);
  1411                           
  1412     0FE1  1C9E               	btfss	30,1	;volatile
  1413     0FE2  2FE4               	goto	u3461
  1414     0FE3  2FE5               	goto	u3460
  1415     0FE4                     u3461:
  1416     0FE4  2FE1               	goto	l85
  1417     0FE5                     u3460:
  1418     0FE5                     l2591:
  1419                           
  1420                           ;main.c: 71:   _delay((unsigned long)((5)*(8000000/4000.0)));
  1421     0FE5  300D               	movlw	13
  1422     0FE6  0021               	movlb	1	; select bank1
  1423     0FE7  00B9               	movwf	??_main^(0+128)
  1424     0FE8  30FB               	movlw	251
  1425     0FE9                     u3517:
  1426     0FE9  0B89               	decfsz	9,f
  1427     0FEA  2FE9               	goto	u3517
  1428     0FEB  0BB9               	decfsz	??_main^(0+128),f
  1429     0FEC  2FE9               	goto	u3517
  1430     0FED  3200               	nop2
  1431     0FEE                     l2593:
  1432                           
  1433                           ;main.c: 74:   ten = 0;
  1434     0FEE  0021               	movlb	1	; select bank1
  1435     0FEF  01C8               	clrf	_ten^(0+128)
  1436     0FF0                     l2595:
  1437                           
  1438                           ;main.c: 75:   one = 0;
  1439     0FF0  01C7               	clrf	_one^(0+128)
  1440     0FF1                     l2597:
  1441                           
  1442                           ;main.c: 76:   hundred = 0;
  1443     0FF1  01C6               	clrf	_hundred^(0+128)
  1444     0FF2                     l2599:
  1445                           
  1446                           ;main.c: 77:   ten1 = 0;
  1447     0FF2  01C5               	clrf	_ten1^(0+128)
  1448     0FF3                     l2601:
  1449                           
  1450                           ;main.c: 78:   one1 = 0;
  1451     0FF3  01C4               	clrf	_one1^(0+128)
  1452     0FF4                     l2603:
  1453                           
  1454                           ;main.c: 79:   hundred1 = 0;
  1455     0FF4  01C3               	clrf	_hundred1^(0+128)
  1456     0FF5                     l2605:
  1457                           
  1458                           ;main.c: 80:   Temperature = 0;
  1459     0FF5  01C1               	clrf	_Temperature^(0+128)
  1460     0FF6  01C2               	clrf	(_Temperature+1)^(0+128)
  1461     0FF7                     l2607:
  1462                           
  1463                           ;main.c: 81:   Humidity = 0;
  1464     0FF7  01BF               	clrf	_Humidity^(0+128)
  1465     0FF8  01C0               	clrf	(_Humidity+1)^(0+128)
  1466     0FF9                     l2609:
  1467                           
  1468                           ;main.c: 82:   Temperature_Value = 0;
  1469     0FF9  01BD               	clrf	_Temperature_Value^(0+128)
  1470     0FFA  01BE               	clrf	(_Temperature_Value+1)^(0+128)
  1471     0FFB                     l2611:
  1472                           
  1473                           ;main.c: 83:   Humidity_Value = 0;
  1474     0FFB  01BB               	clrf	_Humidity_Value^(0+128)
  1475     0FFC  01BC               	clrf	(_Humidity_Value+1)^(0+128)
  1476     0FFD  2EF3               	goto	l2541
  1477     0FFE  3180  2802         	ljmp	start
  1478     1000                     __end_of_main:
  1479                           
  1480                           	psect	text1
  1481     0C04                     __ptext1:	
  1482 ;; *************** function _main_init *****************
  1483 ;; Defined at:
  1484 ;;		line 5 in file "MB1.c"
  1485 ;; Parameters:    Size  Location     Type
  1486 ;;		None
  1487 ;; Auto vars:     Size  Location     Type
  1488 ;;		None
  1489 ;; Return value:  Size  Location     Type
  1490 ;;                  1    wreg      void 
  1491 ;; Registers used:
  1492 ;;		wreg, status,2
  1493 ;; Tracked objects:
  1494 ;;		On entry : 0/0
  1495 ;;		On exit  : 0/0
  1496 ;;		Unchanged: 0/0
  1497 ;; Data sizes:     COMMON   BANK0   BANK1   BANK2
  1498 ;;      Params:         0       0       0       0
  1499 ;;      Locals:         0       0       0       0
  1500 ;;      Temps:          0       0       0       0
  1501 ;;      Totals:         0       0       0       0
  1502 ;;Total ram usage:        0 bytes
  1503 ;; Hardware stack levels used: 1
  1504 ;; This function calls:
  1505 ;;		Nothing
  1506 ;; This function is called by:
  1507 ;;		_main
  1508 ;; This function uses a non-reentrant model
  1509 ;;
  1510                           
  1511     0C04                     _main_init:	
  1512                           ;psect for function _main_init
  1513                           
  1514     0C04                     l2433:	
  1515                           ;incstack = 0
  1516                           ; Regs used in _main_init: [wreg+status,2]
  1517                           
  1518                           
  1519                           ;MB1.c: 7:  TRISAbits.TRISA0 = 0;
  1520     0C04  0021               	movlb	1	; select bank1
  1521     0C05  100C               	bcf	12,0	;volatile
  1522                           
  1523                           ;MB1.c: 8:  TRISAbits.TRISA1 = 1;
  1524     0C06  148C               	bsf	12,1	;volatile
  1525                           
  1526                           ;MB1.c: 11:  PORTAbits.RA0 = 0;
  1527     0C07  0020               	movlb	0	; select bank0
  1528     0C08  100C               	bcf	12,0	;volatile
  1529                           
  1530                           ;MB1.c: 12:  PORTAbits.RA1 = 0;
  1531     0C09  108C               	bcf	12,1	;volatile
  1532     0C0A                     l2435:
  1533                           
  1534                           ;MB1.c: 14:  OSCCON = 0b01110000;
  1535     0C0A  3070               	movlw	112
  1536     0C0B  0021               	movlb	1	; select bank1
  1537     0C0C  0099               	movwf	25	;volatile
  1538     0C0D                     l2437:
  1539                           
  1540                           ;MB1.c: 15:  ANSELA = 0;
  1541     0C0D  0023               	movlb	3	; select bank3
  1542     0C0E  018C               	clrf	12	;volatile
  1543     0C0F                     l2439:
  1544                           
  1545                           ;MB1.c: 16:  APFCONbits.RXDTSEL = 0;
  1546     0C0F  0022               	movlb	2	; select bank2
  1547     0C10  139D               	bcf	29,7	;volatile
  1548     0C11                     l2441:
  1549                           
  1550                           ;MB1.c: 17:  APFCONbits.TXCKSEL = 0;
  1551     0C11  111D               	bcf	29,2	;volatile
  1552     0C12                     l2443:
  1553                           
  1554                           ;MB1.c: 18:  TXSTAbits.BRGH = 1;
  1555     0C12  0023               	movlb	3	; select bank3
  1556     0C13  151E               	bsf	30,2	;volatile
  1557     0C14                     l2445:
  1558                           
  1559                           ;MB1.c: 19:  BAUDCONbits.BRG16 = 1;
  1560     0C14  159F               	bsf	31,3	;volatile
  1561     0C15                     l2447:
  1562                           
  1563                           ;MB1.c: 20:  SPBRG = 207;
  1564     0C15  30CF               	movlw	207
  1565     0C16  009B               	movwf	27	;volatile
  1566     0C17                     l2449:
  1567                           
  1568                           ;MB1.c: 21:  TXSTAbits.SYNC = 0;
  1569     0C17  121E               	bcf	30,4	;volatile
  1570     0C18                     l2451:
  1571                           
  1572                           ;MB1.c: 22:  RCSTAbits.SPEN = 1;
  1573     0C18  179D               	bsf	29,7	;volatile
  1574     0C19                     l120:
  1575     0C19  0008               	return
  1576     0C1A                     __end_of_main_init:
  1577                           
  1578                           	psect	text2
  1579     0005                     __ptext2:	
  1580 ;; *************** function _IIC_init *****************
  1581 ;; Defined at:
  1582 ;;		line 9 in file "GXHT30.c"
  1583 ;; Parameters:    Size  Location     Type
  1584 ;;		None
  1585 ;; Auto vars:     Size  Location     Type
  1586 ;;		None
  1587 ;; Return value:  Size  Location     Type
  1588 ;;                  1    wreg      void 
  1589 ;; Registers used:
  1590 ;;		None
  1591 ;; Tracked objects:
  1592 ;;		On entry : 0/0
  1593 ;;		On exit  : 0/0
  1594 ;;		Unchanged: 0/0
  1595 ;; Data sizes:     COMMON   BANK0   BANK1   BANK2
  1596 ;;      Params:         0       0       0       0
  1597 ;;      Locals:         0       0       0       0
  1598 ;;      Temps:          0       0       0       0
  1599 ;;      Totals:         0       0       0       0
  1600 ;;Total ram usage:        0 bytes
  1601 ;; Hardware stack levels used: 1
  1602 ;; This function calls:
  1603 ;;		Nothing
  1604 ;; This function is called by:
  1605 ;;		_main
  1606 ;; This function uses a non-reentrant model
  1607 ;;
  1608                           
  1609     0005                     _IIC_init:	
  1610                           ;psect for function _IIC_init
  1611                           
  1612     0005                     l2453:	
  1613                           ;incstack = 0
  1614                           ; Regs used in _IIC_init: []
  1615                           
  1616                           
  1617                           ;GXHT30.c: 11:  TRISAbits.TRISA4 = 0;;
  1618     0005  0021               	movlb	1	; select bank1
  1619     0006  120C               	bcf	12,4	;volatile
  1620                           
  1621                           ;GXHT30.c: 12:  TRISAbits.TRISA5 = 0;;
  1622     0007  128C               	bcf	12,5	;volatile
  1623                           
  1624                           ;GXHT30.c: 14:  PORTAbits.RA4 = 0;;
  1625     0008  0020               	movlb	0	; select bank0
  1626     0009  120C               	bcf	12,4	;volatile
  1627                           
  1628                           ;GXHT30.c: 15:  PORTAbits.RA5 = 0;;
  1629     000A  128C               	bcf	12,5	;volatile
  1630     000B                     l133:
  1631     000B  0008               	return
  1632     000C                     __end_of_IIC_init:
  1633                           
  1634                           	psect	text3
  1635     000C                     __ptext3:	
  1636 ;; *************** function _GXHT30_write_cmd *****************
  1637 ;; Defined at:
  1638 ;;		line 219 in file "GXHT30.c"
  1639 ;; Parameters:    Size  Location     Type
  1640 ;;  addr            1    wreg     unsigned char 
  1641 ;;  MSB             1    4[COMMON] unsigned char 
  1642 ;;  LSB             1    5[COMMON] unsigned char 
  1643 ;; Auto vars:     Size  Location     Type
  1644 ;;  addr            1    8[COMMON] unsigned char 
  1645 ;; Return value:  Size  Location     Type
  1646 ;;                  1    wreg      void 
  1647 ;; Registers used:
  1648 ;;		wreg, status,2, status,0, pclath, cstack
  1649 ;; Tracked objects:
  1650 ;;		On entry : 0/0
  1651 ;;		On exit  : 0/0
  1652 ;;		Unchanged: 0/0
  1653 ;; Data sizes:     COMMON   BANK0   BANK1   BANK2
  1654 ;;      Params:         2       0       0       0
  1655 ;;      Locals:         1       0       0       0
  1656 ;;      Temps:          2       0       0       0
  1657 ;;      Totals:         5       0       0       0
  1658 ;;Total ram usage:        5 bytes
  1659 ;; Hardware stack levels used: 1
  1660 ;; Hardware stack levels required when called: 2
  1661 ;; This function calls:
  1662 ;;		_IIC_SendByte
  1663 ;;		_IIC_Start
  1664 ;;		_IIC_Stop
  1665 ;;		_IIC_WAck
  1666 ;; This function is called by:
  1667 ;;		_main
  1668 ;; This function uses a non-reentrant model
  1669 ;;
  1670                           
  1671     000C                     _GXHT30_write_cmd:	
  1672                           ;psect for function _GXHT30_write_cmd
  1673                           
  1674                           
  1675                           ;incstack = 0
  1676                           ; Regs used in _GXHT30_write_cmd: [wreg+status,2+status,0+pclath+cstack]
  1677                           ;GXHT30_write_cmd@addr stored from wreg
  1678     000C  00F8               	movwf	GXHT30_write_cmd@addr
  1679     000D                     l2455:
  1680                           
  1681                           ;GXHT30.c: 219: void GXHT30_write_cmd(unsigned char addr, unsigned char MSB, unsigned ch
      +                          ar LSB);GXHT30.c: 220: {;GXHT30.c: 221:  IIC_Start();
  1682     000D  318B  23E6  3180   	fcall	_IIC_Start
  1683     0010                     l2457:
  1684                           
  1685                           ;GXHT30.c: 222:  _delay((unsigned long)((1)*(8000000/4000.0)));
  1686     0010  3003               	movlw	3
  1687     0011  00F6               	movwf	??_GXHT30_write_cmd
  1688     0012  3098               	movlw	152
  1689     0013                     u3527:
  1690     0013  0B89               	decfsz	9,f
  1691     0014  2813               	goto	u3527
  1692     0015  0BF6               	decfsz	??_GXHT30_write_cmd,f
  1693     0016  2813               	goto	u3527
  1694                           
  1695                           ;GXHT30.c: 223:  IIC_SendByte(addr);
  1696     0017  0878               	movf	GXHT30_write_cmd@addr,w
  1697     0018  00F6               	movwf	??_GXHT30_write_cmd
  1698     0019  01F7               	clrf	??_GXHT30_write_cmd+1
  1699     001A  0876               	movf	??_GXHT30_write_cmd,w
  1700     001B  00F0               	movwf	IIC_SendByte@txd
  1701     001C  0877               	movf	??_GXHT30_write_cmd+1,w
  1702     001D  00F1               	movwf	IIC_SendByte@txd+1
  1703     001E  318C  2460  3180   	fcall	_IIC_SendByte
  1704     0021                     l2459:
  1705                           
  1706                           ;GXHT30.c: 224:  _delay((unsigned long)((1)*(8000000/4000.0)));
  1707     0021  3003               	movlw	3
  1708     0022  00F6               	movwf	??_GXHT30_write_cmd
  1709     0023  3098               	movlw	152
  1710     0024                     u3537:
  1711     0024  0B89               	decfsz	9,f
  1712     0025  2824               	goto	u3537
  1713     0026  0BF6               	decfsz	??_GXHT30_write_cmd,f
  1714     0027  2824               	goto	u3537
  1715     0028                     l2461:
  1716                           
  1717                           ;GXHT30.c: 225:  IIC_WAck();
  1718     0028  318C  241A  3180   	fcall	_IIC_WAck
  1719                           
  1720                           ;GXHT30.c: 226:  _delay((unsigned long)((1)*(8000000/4000.0)));
  1721     002B  3003               	movlw	3
  1722     002C  00F6               	movwf	??_GXHT30_write_cmd
  1723     002D  3098               	movlw	152
  1724     002E                     u3547:
  1725     002E  0B89               	decfsz	9,f
  1726     002F  282E               	goto	u3547
  1727     0030  0BF6               	decfsz	??_GXHT30_write_cmd,f
  1728     0031  282E               	goto	u3547
  1729     0032                     l2463:
  1730                           
  1731                           ;GXHT30.c: 227:  IIC_SendByte(MSB);
  1732     0032  0874               	movf	GXHT30_write_cmd@MSB,w
  1733     0033  00F6               	movwf	??_GXHT30_write_cmd
  1734     0034  01F7               	clrf	??_GXHT30_write_cmd+1
  1735     0035  0876               	movf	??_GXHT30_write_cmd,w
  1736     0036  00F0               	movwf	IIC_SendByte@txd
  1737     0037  0877               	movf	??_GXHT30_write_cmd+1,w
  1738     0038  00F1               	movwf	IIC_SendByte@txd+1
  1739     0039  318C  2460  3180   	fcall	_IIC_SendByte
  1740     003C                     l2465:
  1741                           
  1742                           ;GXHT30.c: 228:  _delay((unsigned long)((1)*(8000000/4000.0)));
  1743     003C  3003               	movlw	3
  1744     003D  00F6               	movwf	??_GXHT30_write_cmd
  1745     003E  3098               	movlw	152
  1746     003F                     u3557:
  1747     003F  0B89               	decfsz	9,f
  1748     0040  283F               	goto	u3557
  1749     0041  0BF6               	decfsz	??_GXHT30_write_cmd,f
  1750     0042  283F               	goto	u3557
  1751                           
  1752                           ;GXHT30.c: 229:  IIC_WAck();
  1753     0043  318C  241A  3180   	fcall	_IIC_WAck
  1754     0046                     l2467:
  1755                           
  1756                           ;GXHT30.c: 230:  _delay((unsigned long)((1)*(8000000/4000.0)));
  1757     0046  3003               	movlw	3
  1758     0047  00F6               	movwf	??_GXHT30_write_cmd
  1759     0048  3098               	movlw	152
  1760     0049                     u3567:
  1761     0049  0B89               	decfsz	9,f
  1762     004A  2849               	goto	u3567
  1763     004B  0BF6               	decfsz	??_GXHT30_write_cmd,f
  1764     004C  2849               	goto	u3567
  1765     004D                     l2469:
  1766                           
  1767                           ;GXHT30.c: 231:  IIC_SendByte(LSB);
  1768     004D  0875               	movf	GXHT30_write_cmd@LSB,w
  1769     004E  00F6               	movwf	??_GXHT30_write_cmd
  1770     004F  01F7               	clrf	??_GXHT30_write_cmd+1
  1771     0050  0876               	movf	??_GXHT30_write_cmd,w
  1772     0051  00F0               	movwf	IIC_SendByte@txd
  1773     0052  0877               	movf	??_GXHT30_write_cmd+1,w
  1774     0053  00F1               	movwf	IIC_SendByte@txd+1
  1775     0054  318C  2460  3180   	fcall	_IIC_SendByte
  1776                           
  1777                           ;GXHT30.c: 232:  _delay((unsigned long)((1)*(8000000/4000.0)));
  1778     0057  3003               	movlw	3
  1779     0058  00F6               	movwf	??_GXHT30_write_cmd
  1780     0059  3098               	movlw	152
  1781     005A                     u3577:
  1782     005A  0B89               	decfsz	9,f
  1783     005B  285A               	goto	u3577
  1784     005C  0BF6               	decfsz	??_GXHT30_write_cmd,f
  1785     005D  285A               	goto	u3577
  1786     005E                     l2471:
  1787                           
  1788                           ;GXHT30.c: 233:  IIC_WAck();
  1789     005E  318C  241A  3180   	fcall	_IIC_WAck
  1790     0061                     l2473:
  1791                           
  1792                           ;GXHT30.c: 234:  _delay((unsigned long)((1)*(8000000/4000.0)));
  1793     0061  3003               	movlw	3
  1794     0062  00F6               	movwf	??_GXHT30_write_cmd
  1795     0063  3098               	movlw	152
  1796     0064                     u3587:
  1797     0064  0B89               	decfsz	9,f
  1798     0065  2864               	goto	u3587
  1799     0066  0BF6               	decfsz	??_GXHT30_write_cmd,f
  1800     0067  2864               	goto	u3587
  1801     0068                     l2475:
  1802                           
  1803                           ;GXHT30.c: 235:  IIC_Stop();
  1804     0068  318B  23F5  3180   	fcall	_IIC_Stop
  1805                           
  1806                           ;GXHT30.c: 236:  _delay((unsigned long)((1)*(8000000/4000.0)));
  1807     006B  3003               	movlw	3
  1808     006C  00F6               	movwf	??_GXHT30_write_cmd
  1809     006D  3098               	movlw	152
  1810     006E                     u3597:
  1811     006E  0B89               	decfsz	9,f
  1812     006F  286E               	goto	u3597
  1813     0070  0BF6               	decfsz	??_GXHT30_write_cmd,f
  1814     0071  286E               	goto	u3597
  1815     0072                     l177:
  1816     0072  0008               	return
  1817     0073                     __end_of_GXHT30_write_cmd:
  1818                           
  1819                           	psect	text4
  1820     0073                     __ptext4:	
  1821 ;; *************** function _GXHT30_read_result *****************
  1822 ;; Defined at:
  1823 ;;		line 183 in file "GXHT30.c"
  1824 ;; Parameters:    Size  Location     Type
  1825 ;;  addr            1    wreg     unsigned char 
  1826 ;; Auto vars:     Size  Location     Type
  1827 ;;  addr            1    4[BANK1 ] unsigned char 
  1828 ;;  buff           12    9[BANK1 ] unsigned int [6]
  1829 ;;  hum             2    7[BANK1 ] unsigned int 
  1830 ;;  tem             2    5[BANK1 ] unsigned int 
  1831 ;; Return value:  Size  Location     Type
  1832 ;;                  1    wreg      void 
  1833 ;; Registers used:
  1834 ;;		wreg, status,2, status,0, pclath, cstack
  1835 ;; Tracked objects:
  1836 ;;		On entry : 0/0
  1837 ;;		On exit  : 0/0
  1838 ;;		Unchanged: 0/0
  1839 ;; Data sizes:     COMMON   BANK0   BANK1   BANK2
  1840 ;;      Params:         0       0       0       0
  1841 ;;      Locals:         0       0      21       0
  1842 ;;      Temps:          0       0       2       0
  1843 ;;      Totals:         0       0      23       0
  1844 ;;Total ram usage:       23 bytes
  1845 ;; Hardware stack levels used: 1
  1846 ;; Hardware stack levels required when called: 2
  1847 ;; This function calls:
  1848 ;;		_IIC_ReadByte
  1849 ;;		_IIC_SendByte
  1850 ;;		_IIC_Start
  1851 ;;		_IIC_Stop
  1852 ;;		_IIC_WAck
  1853 ;;		___fladd
  1854 ;;		___fldiv
  1855 ;;		___flmul
  1856 ;;		___fltol
  1857 ;;		___xxtofl
  1858 ;; This function is called by:
  1859 ;;		_main
  1860 ;; This function uses a non-reentrant model
  1861 ;;
  1862                           
  1863     0073                     _GXHT30_read_result:	
  1864                           ;psect for function _GXHT30_read_result
  1865                           
  1866                           
  1867                           ;incstack = 0
  1868                           ; Regs used in _GXHT30_read_result: [wreg+status,2+status,0+pclath+cstack]
  1869                           ;GXHT30_read_result@addr stored from wreg
  1870     0073  0021               	movlb	1	; select bank1
  1871     0074  00A4               	movwf	GXHT30_read_result@addr^(0+128)
  1872     0075                     l2477:
  1873                           
  1874                           ;GXHT30.c: 183: void GXHT30_read_result(unsigned char addr);GXHT30.c: 184: {;GXHT30.c: 1
      +                          85:  unsigned int tem,hum;;GXHT30.c: 186:  unsigned int buff[6];;GXHT30.c: 187:  Tempera
      +                          ture = 0;
  1875     0075  01C1               	clrf	_Temperature^(0+128)
  1876     0076  01C2               	clrf	(_Temperature+1)^(0+128)
  1877                           
  1878                           ;GXHT30.c: 188:  Humidity = 0;
  1879     0077  01BF               	clrf	_Humidity^(0+128)
  1880     0078  01C0               	clrf	(_Humidity+1)^(0+128)
  1881     0079                     l2479:
  1882                           
  1883                           ;GXHT30.c: 190:  IIC_Start();
  1884     0079  318B  23E6  3180   	fcall	_IIC_Start
  1885     007C                     l2481:
  1886                           
  1887                           ;GXHT30.c: 191:  _delay((unsigned long)((1)*(8000000/4000.0)));
  1888     007C  3003               	movlw	3
  1889     007D  0021               	movlb	1	; select bank1
  1890     007E  00A2               	movwf	??_GXHT30_read_result^(0+128)
  1891     007F  3097               	movlw	151
  1892     0080                     u3607:
  1893     0080  0B89               	decfsz	9,f
  1894     0081  2880               	goto	u3607
  1895     0082  0BA2               	decfsz	??_GXHT30_read_result^(0+128),f
  1896     0083  2880               	goto	u3607
  1897     0084  3200               	nop2
  1898     0085                     l2483:
  1899                           
  1900                           ;GXHT30.c: 192:  IIC_SendByte(addr | 0x01);
  1901     0085  3001               	movlw	1
  1902     0086  0021               	movlb	1	; select bank1
  1903     0087  0424               	iorwf	GXHT30_read_result@addr^(0+128),w
  1904     0088  00F0               	movwf	IIC_SendByte@txd
  1905     0089  3000               	movlw	0
  1906     008A  00F1               	movwf	IIC_SendByte@txd+1
  1907     008B  318C  2460  3180   	fcall	_IIC_SendByte
  1908     008E                     l2485:
  1909                           
  1910                           ;GXHT30.c: 193:  _delay((unsigned long)((1)*(8000000/4000.0)));
  1911     008E  3003               	movlw	3
  1912     008F  0021               	movlb	1	; select bank1
  1913     0090  00A2               	movwf	??_GXHT30_read_result^(0+128)
  1914     0091  3097               	movlw	151
  1915     0092                     u3617:
  1916     0092  0B89               	decfsz	9,f
  1917     0093  2892               	goto	u3617
  1918     0094  0BA2               	decfsz	??_GXHT30_read_result^(0+128),f
  1919     0095  2892               	goto	u3617
  1920     0096  3200               	nop2
  1921     0097                     l2487:
  1922                           
  1923                           ;GXHT30.c: 194:  if(IIC_WAck() == 0)
  1924     0097  318C  241A  3180   	fcall	_IIC_WAck
  1925     009A  3A00               	xorlw	0
  1926     009B  1D03               	skipz
  1927     009C  289E               	goto	u3271
  1928     009D  289F               	goto	u3270
  1929     009E                     u3271:
  1930     009E  28F7               	goto	l173
  1931     009F                     u3270:
  1932     009F                     l2489:
  1933                           
  1934                           ;GXHT30.c: 195:  {;GXHT30.c: 196:   TRISAbits.TRISA5 = 1;;
  1935     009F  0021               	movlb	1	; select bank1
  1936     00A0  168C               	bsf	12,5	;volatile
  1937     00A1                     l2491:
  1938                           
  1939                           ;GXHT30.c: 197:   buff[0] = IIC_ReadByte(1);
  1940     00A1  3001               	movlw	1
  1941     00A2  00F0               	movwf	IIC_ReadByte@ack
  1942     00A3  3000               	movlw	0
  1943     00A4  00F1               	movwf	IIC_ReadByte@ack+1
  1944     00A5  318C  2489  3180   	fcall	_IIC_ReadByte
  1945     00A8  0021               	movlb	1	; select bank1
  1946     00A9  00A2               	movwf	??_GXHT30_read_result^(0+128)
  1947     00AA  01A3               	clrf	(??_GXHT30_read_result^(0+128)+1)
  1948     00AB  0822               	movf	??_GXHT30_read_result^(0+128),w
  1949     00AC  00A9               	movwf	GXHT30_read_result@buff^(0+128)
  1950     00AD  0823               	movf	(??_GXHT30_read_result+1)^(0+128),w
  1951     00AE  00AA               	movwf	(GXHT30_read_result@buff+1)^(0+128)
  1952                           
  1953                           ;GXHT30.c: 198:   buff[1] = IIC_ReadByte(1);
  1954     00AF  3001               	movlw	1
  1955     00B0  00F0               	movwf	IIC_ReadByte@ack
  1956     00B1  3000               	movlw	0
  1957     00B2  00F1               	movwf	IIC_ReadByte@ack+1
  1958     00B3  318C  2489  3180   	fcall	_IIC_ReadByte
  1959     00B6  0021               	movlb	1	; select bank1
  1960     00B7  00A2               	movwf	??_GXHT30_read_result^(0+128)
  1961     00B8  01A3               	clrf	(??_GXHT30_read_result^(0+128)+1)
  1962     00B9  0822               	movf	??_GXHT30_read_result^(0+128),w
  1963     00BA  00AB               	movwf	(GXHT30_read_result@buff^(0+128)+2)
  1964     00BB  0823               	movf	(??_GXHT30_read_result+1)^(0+128),w
  1965     00BC  00AC               	movwf	((GXHT30_read_result@buff+1)^(0+128)+2)
  1966                           
  1967                           ;GXHT30.c: 199:   buff[2] = IIC_ReadByte(1);
  1968     00BD  3001               	movlw	1
  1969     00BE  00F0               	movwf	IIC_ReadByte@ack
  1970     00BF  3000               	movlw	0
  1971     00C0  00F1               	movwf	IIC_ReadByte@ack+1
  1972     00C1  318C  2489  3180   	fcall	_IIC_ReadByte
  1973     00C4  0021               	movlb	1	; select bank1
  1974     00C5  00A2               	movwf	??_GXHT30_read_result^(0+128)
  1975     00C6  01A3               	clrf	(??_GXHT30_read_result^(0+128)+1)
  1976     00C7  0822               	movf	??_GXHT30_read_result^(0+128),w
  1977     00C8  00AD               	movwf	(GXHT30_read_result@buff^(0+128)+4)
  1978     00C9  0823               	movf	(??_GXHT30_read_result+1)^(0+128),w
  1979     00CA  00AE               	movwf	((GXHT30_read_result@buff+1)^(0+128)+4)
  1980                           
  1981                           ;GXHT30.c: 200:   buff[3] = IIC_ReadByte(1);
  1982     00CB  3001               	movlw	1
  1983     00CC  00F0               	movwf	IIC_ReadByte@ack
  1984     00CD  3000               	movlw	0
  1985     00CE  00F1               	movwf	IIC_ReadByte@ack+1
  1986     00CF  318C  2489  3180   	fcall	_IIC_ReadByte
  1987     00D2  0021               	movlb	1	; select bank1
  1988     00D3  00A2               	movwf	??_GXHT30_read_result^(0+128)
  1989     00D4  01A3               	clrf	(??_GXHT30_read_result^(0+128)+1)
  1990     00D5  0822               	movf	??_GXHT30_read_result^(0+128),w
  1991     00D6  00AF               	movwf	(GXHT30_read_result@buff^(0+128)+6)
  1992     00D7  0823               	movf	(??_GXHT30_read_result+1)^(0+128),w
  1993     00D8  00B0               	movwf	((GXHT30_read_result@buff+1)^(0+128)+6)
  1994                           
  1995                           ;GXHT30.c: 201:   buff[4] = IIC_ReadByte(1);
  1996     00D9  3001               	movlw	1
  1997     00DA  00F0               	movwf	IIC_ReadByte@ack
  1998     00DB  3000               	movlw	0
  1999     00DC  00F1               	movwf	IIC_ReadByte@ack+1
  2000     00DD  318C  2489  3180   	fcall	_IIC_ReadByte
  2001     00E0  0021               	movlb	1	; select bank1
  2002     00E1  00A2               	movwf	??_GXHT30_read_result^(0+128)
  2003     00E2  01A3               	clrf	(??_GXHT30_read_result^(0+128)+1)
  2004     00E3  0822               	movf	??_GXHT30_read_result^(0+128),w
  2005     00E4  00B1               	movwf	(GXHT30_read_result@buff^(0+128)+8)
  2006     00E5  0823               	movf	(??_GXHT30_read_result+1)^(0+128),w
  2007     00E6  00B2               	movwf	((GXHT30_read_result@buff+1)^(0+128)+8)
  2008                           
  2009                           ;GXHT30.c: 202:   buff[5] = IIC_ReadByte(0);
  2010     00E7  3000               	movlw	0
  2011     00E8  00F0               	movwf	IIC_ReadByte@ack
  2012     00E9  00F1               	movwf	IIC_ReadByte@ack+1
  2013     00EA  318C  2489  3180   	fcall	_IIC_ReadByte
  2014     00ED  0021               	movlb	1	; select bank1
  2015     00EE  00A2               	movwf	??_GXHT30_read_result^(0+128)
  2016     00EF  01A3               	clrf	(??_GXHT30_read_result^(0+128)+1)
  2017     00F0  0822               	movf	??_GXHT30_read_result^(0+128),w
  2018     00F1  00B3               	movwf	(GXHT30_read_result@buff^(0+128)+10)
  2019     00F2  0823               	movf	(??_GXHT30_read_result+1)^(0+128),w
  2020     00F3  00B4               	movwf	((GXHT30_read_result@buff+1)^(0+128)+10)
  2021     00F4                     l2493:
  2022                           
  2023                           ;GXHT30.c: 203:   IIC_Stop();
  2024     00F4  318B  23F5  3180   	fcall	_IIC_Stop
  2025     00F7                     l173:	
  2026                           ;GXHT30.c: 204:  }
  2027                           
  2028                           
  2029                           ;GXHT30.c: 206:  tem = ((buff[0] << 8) | buff[1]);
  2030     00F7  0021               	movlb	1	; select bank1
  2031     00F8  0829               	movf	GXHT30_read_result@buff^(0+128),w
  2032     00F9  00A3               	movwf	(??_GXHT30_read_result^(0+128)+1)
  2033     00FA  01A2               	clrf	??_GXHT30_read_result^(0+128)
  2034     00FB  082B               	movf	(GXHT30_read_result@buff^(0+128)+2),w
  2035     00FC  0422               	iorwf	??_GXHT30_read_result^(0+128),w
  2036     00FD  00A5               	movwf	GXHT30_read_result@tem^(0+128)
  2037     00FE  082C               	movf	((GXHT30_read_result@buff+1)^(0+128)+2),w
  2038     00FF  0423               	iorwf	(??_GXHT30_read_result+1)^(0+128),w
  2039     0100  00A6               	movwf	(GXHT30_read_result@tem+1)^(0+128)
  2040                           
  2041                           ;GXHT30.c: 207:  hum = ((buff[3] << 8) | buff[4]);
  2042     0101  082F               	movf	(GXHT30_read_result@buff^(0+128)+6),w
  2043     0102  00A3               	movwf	(??_GXHT30_read_result^(0+128)+1)
  2044     0103  01A2               	clrf	??_GXHT30_read_result^(0+128)
  2045     0104  0831               	movf	(GXHT30_read_result@buff^(0+128)+8),w
  2046     0105  0422               	iorwf	??_GXHT30_read_result^(0+128),w
  2047     0106  00A7               	movwf	GXHT30_read_result@hum^(0+128)
  2048     0107  0832               	movf	((GXHT30_read_result@buff+1)^(0+128)+8),w
  2049     0108  0423               	iorwf	(??_GXHT30_read_result+1)^(0+128),w
  2050     0109  00A8               	movwf	(GXHT30_read_result@hum+1)^(0+128)
  2051     010A                     l2495:
  2052                           
  2053                           ;GXHT30.c: 209:  Temperature = (int)((175.0 * (float)tem / 65535.0 - 45.0) * 10);
  2054     010A  0825               	movf	GXHT30_read_result@tem^(0+128),w
  2055     010B  00F0               	movwf	___xxtofl@val
  2056     010C  0826               	movf	(GXHT30_read_result@tem+1)^(0+128),w
  2057     010D  00F1               	movwf	___xxtofl@val+1
  2058     010E  01F2               	clrf	___xxtofl@val+2
  2059     010F  01F3               	clrf	___xxtofl@val+3
  2060     0110  3000               	movlw	0
  2061     0111  318E  2638  3180   	fcall	___xxtofl
  2062     0114  0873               	movf	?___xxtofl+3,w
  2063     0115  0020               	movlb	0	; select bank0
  2064     0116  00A7               	movwf	___flmul@a+3
  2065     0117  0872               	movf	?___xxtofl+2,w
  2066     0118  00A6               	movwf	___flmul@a+2
  2067     0119  0871               	movf	?___xxtofl+1,w
  2068     011A  00A5               	movwf	___flmul@a+1
  2069     011B  0870               	movf	?___xxtofl,w
  2070     011C  00A4               	movwf	___flmul@a
  2071     011D  3043               	movlw	67
  2072     011E  00A3               	movwf	___flmul@b+3
  2073     011F  302F               	movlw	47
  2074     0120  00A2               	movwf	___flmul@b+2
  2075     0121  3000               	movlw	0
  2076     0122  00A1               	movwf	___flmul@b+1
  2077     0123  3000               	movlw	0
  2078     0124  00A0               	movwf	___flmul@b
  2079     0125  3185  25BA  3180   	fcall	___flmul
  2080     0128  0020               	movlb	0	; select bank0
  2081     0129  0823               	movf	?___flmul+3,w
  2082     012A  00C1               	movwf	___fldiv@b+3
  2083     012B  0822               	movf	?___flmul+2,w
  2084     012C  00C0               	movwf	___fldiv@b+2
  2085     012D  0821               	movf	?___flmul+1,w
  2086     012E  00BF               	movwf	___fldiv@b+1
  2087     012F  0820               	movf	?___flmul,w
  2088     0130  00BE               	movwf	___fldiv@b
  2089     0131  3047               	movlw	71
  2090     0132  00BD               	movwf	___fldiv@a+3
  2091     0133  307F               	movlw	127
  2092     0134  00BC               	movwf	___fldiv@a+2
  2093     0135  30FF               	movlw	255
  2094     0136  00BB               	movwf	___fldiv@a+1
  2095     0137  3000               	movlw	0
  2096     0138  00BA               	movwf	___fldiv@a
  2097     0139  3182  2208  3180   	fcall	___fldiv
  2098     013C  0020               	movlb	0	; select bank0
  2099     013D  083D               	movf	?___fldiv+3,w
  2100     013E  00DB               	movwf	___fladd@a+3
  2101     013F  083C               	movf	?___fldiv+2,w
  2102     0140  00DA               	movwf	___fladd@a+2
  2103     0141  083B               	movf	?___fldiv+1,w
  2104     0142  00D9               	movwf	___fladd@a+1
  2105     0143  083A               	movf	?___fldiv,w
  2106     0144  00D8               	movwf	___fladd@a
  2107     0145  30C2               	movlw	194
  2108     0146  00D7               	movwf	___fladd@b+3
  2109     0147  3034               	movlw	52
  2110     0148  00D6               	movwf	___fladd@b+2
  2111     0149  3000               	movlw	0
  2112     014A  00D5               	movwf	___fladd@b+1
  2113     014B  3000               	movlw	0
  2114     014C  00D4               	movwf	___fladd@b
  2115     014D  3183  23B2  3180   	fcall	___fladd
  2116     0150  0020               	movlb	0	; select bank0
  2117     0151  0857               	movf	?___fladd+3,w
  2118     0152  0021               	movlb	1	; select bank1
  2119     0153  00B8               	movwf	(_GXHT30_read_result$953+3)^(0+128)
  2120     0154  0020               	movlb	0	; select bank0
  2121     0155  0856               	movf	?___fladd+2,w
  2122     0156  0021               	movlb	1	; select bank1
  2123     0157  00B7               	movwf	(_GXHT30_read_result$953+2)^(0+128)
  2124     0158  0020               	movlb	0	; select bank0
  2125     0159  0855               	movf	?___fladd+1,w
  2126     015A  0021               	movlb	1	; select bank1
  2127     015B  00B6               	movwf	(_GXHT30_read_result$953+1)^(0+128)
  2128     015C  0020               	movlb	0	; select bank0
  2129     015D  0854               	movf	?___fladd,w
  2130     015E  0021               	movlb	1	; select bank1
  2131     015F  00B5               	movwf	_GXHT30_read_result$953^(0+128)
  2132     0160                     l2497:
  2133                           
  2134                           ;GXHT30.c: 209:  Temperature = (int)((175.0 * (float)tem / 65535.0 - 45.0) * 10);
  2135     0160  0838               	movf	(_GXHT30_read_result$953+3)^(0+128),w
  2136     0161  0020               	movlb	0	; select bank0
  2137     0162  00A7               	movwf	___flmul@a+3
  2138     0163  0021               	movlb	1	; select bank1
  2139     0164  0837               	movf	(_GXHT30_read_result$953+2)^(0+128),w
  2140     0165  0020               	movlb	0	; select bank0
  2141     0166  00A6               	movwf	___flmul@a+2
  2142     0167  0021               	movlb	1	; select bank1
  2143     0168  0836               	movf	(_GXHT30_read_result$953+1)^(0+128),w
  2144     0169  0020               	movlb	0	; select bank0
  2145     016A  00A5               	movwf	___flmul@a+1
  2146     016B  0021               	movlb	1	; select bank1
  2147     016C  0835               	movf	_GXHT30_read_result$953^(0+128),w
  2148     016D  0020               	movlb	0	; select bank0
  2149     016E  00A4               	movwf	___flmul@a
  2150     016F  3041               	movlw	65
  2151     0170  00A3               	movwf	___flmul@b+3
  2152     0171  3020               	movlw	32
  2153     0172  00A2               	movwf	___flmul@b+2
  2154     0173  3000               	movlw	0
  2155     0174  00A1               	movwf	___flmul@b+1
  2156     0175  3000               	movlw	0
  2157     0176  00A0               	movwf	___flmul@b
  2158     0177  3185  25BA  3180   	fcall	___flmul
  2159     017A  0020               	movlb	0	; select bank0
  2160     017B  0823               	movf	?___flmul+3,w
  2161     017C  00EB               	movwf	___fltol@f1+3
  2162     017D  0822               	movf	?___flmul+2,w
  2163     017E  00EA               	movwf	___fltol@f1+2
  2164     017F  0821               	movf	?___flmul+1,w
  2165     0180  00E9               	movwf	___fltol@f1+1
  2166     0181  0820               	movf	?___flmul,w
  2167     0182  00E8               	movwf	___fltol@f1
  2168     0183  318D  25BC  3180   	fcall	___fltol
  2169     0186  0020               	movlb	0	; select bank0
  2170     0187  0869               	movf	?___fltol+1,w
  2171     0188  0021               	movlb	1	; select bank1
  2172     0189  00C2               	movwf	(_Temperature+1)^(0+128)
  2173     018A  0020               	movlb	0	; select bank0
  2174     018B  0868               	movf	?___fltol,w
  2175     018C  0021               	movlb	1	; select bank1
  2176     018D  00C1               	movwf	_Temperature^(0+128)
  2177     018E                     l2499:
  2178                           
  2179                           ;GXHT30.c: 210:  Humidity = (int)((100.0 * (float)hum /65535.0) * 10);
  2180     018E  0827               	movf	GXHT30_read_result@hum^(0+128),w
  2181     018F  00F0               	movwf	___xxtofl@val
  2182     0190  0828               	movf	(GXHT30_read_result@hum+1)^(0+128),w
  2183     0191  00F1               	movwf	___xxtofl@val+1
  2184     0192  01F2               	clrf	___xxtofl@val+2
  2185     0193  01F3               	clrf	___xxtofl@val+3
  2186     0194  3000               	movlw	0
  2187     0195  318E  2638  3180   	fcall	___xxtofl
  2188     0198  0873               	movf	?___xxtofl+3,w
  2189     0199  0020               	movlb	0	; select bank0
  2190     019A  00A7               	movwf	___flmul@a+3
  2191     019B  0872               	movf	?___xxtofl+2,w
  2192     019C  00A6               	movwf	___flmul@a+2
  2193     019D  0871               	movf	?___xxtofl+1,w
  2194     019E  00A5               	movwf	___flmul@a+1
  2195     019F  0870               	movf	?___xxtofl,w
  2196     01A0  00A4               	movwf	___flmul@a
  2197     01A1  3042               	movlw	66
  2198     01A2  00A3               	movwf	___flmul@b+3
  2199     01A3  30C8               	movlw	200
  2200     01A4  00A2               	movwf	___flmul@b+2
  2201     01A5  3000               	movlw	0
  2202     01A6  00A1               	movwf	___flmul@b+1
  2203     01A7  3000               	movlw	0
  2204     01A8  00A0               	movwf	___flmul@b
  2205     01A9  3185  25BA  3180   	fcall	___flmul
  2206     01AC  0020               	movlb	0	; select bank0
  2207     01AD  0823               	movf	?___flmul+3,w
  2208     01AE  00C1               	movwf	___fldiv@b+3
  2209     01AF  0822               	movf	?___flmul+2,w
  2210     01B0  00C0               	movwf	___fldiv@b+2
  2211     01B1  0821               	movf	?___flmul+1,w
  2212     01B2  00BF               	movwf	___fldiv@b+1
  2213     01B3  0820               	movf	?___flmul,w
  2214     01B4  00BE               	movwf	___fldiv@b
  2215     01B5  3047               	movlw	71
  2216     01B6  00BD               	movwf	___fldiv@a+3
  2217     01B7  307F               	movlw	127
  2218     01B8  00BC               	movwf	___fldiv@a+2
  2219     01B9  30FF               	movlw	255
  2220     01BA  00BB               	movwf	___fldiv@a+1
  2221     01BB  3000               	movlw	0
  2222     01BC  00BA               	movwf	___fldiv@a
  2223     01BD  3182  2208  3180   	fcall	___fldiv
  2224     01C0  0020               	movlb	0	; select bank0
  2225     01C1  083D               	movf	?___fldiv+3,w
  2226     01C2  0021               	movlb	1	; select bank1
  2227     01C3  00B8               	movwf	(_GXHT30_read_result$953+3)^(0+128)
  2228     01C4  0020               	movlb	0	; select bank0
  2229     01C5  083C               	movf	?___fldiv+2,w
  2230     01C6  0021               	movlb	1	; select bank1
  2231     01C7  00B7               	movwf	(_GXHT30_read_result$953+2)^(0+128)
  2232     01C8  0020               	movlb	0	; select bank0
  2233     01C9  083B               	movf	?___fldiv+1,w
  2234     01CA  0021               	movlb	1	; select bank1
  2235     01CB  00B6               	movwf	(_GXHT30_read_result$953+1)^(0+128)
  2236     01CC  0020               	movlb	0	; select bank0
  2237     01CD  083A               	movf	?___fldiv,w
  2238     01CE  0021               	movlb	1	; select bank1
  2239     01CF  00B5               	movwf	_GXHT30_read_result$953^(0+128)
  2240     01D0                     l2501:
  2241                           
  2242                           ;GXHT30.c: 210:  Humidity = (int)((100.0 * (float)hum /65535.0) * 10);
  2243     01D0  0838               	movf	(_GXHT30_read_result$953+3)^(0+128),w
  2244     01D1  0020               	movlb	0	; select bank0
  2245     01D2  00A7               	movwf	___flmul@a+3
  2246     01D3  0021               	movlb	1	; select bank1
  2247     01D4  0837               	movf	(_GXHT30_read_result$953+2)^(0+128),w
  2248     01D5  0020               	movlb	0	; select bank0
  2249     01D6  00A6               	movwf	___flmul@a+2
  2250     01D7  0021               	movlb	1	; select bank1
  2251     01D8  0836               	movf	(_GXHT30_read_result$953+1)^(0+128),w
  2252     01D9  0020               	movlb	0	; select bank0
  2253     01DA  00A5               	movwf	___flmul@a+1
  2254     01DB  0021               	movlb	1	; select bank1
  2255     01DC  0835               	movf	_GXHT30_read_result$953^(0+128),w
  2256     01DD  0020               	movlb	0	; select bank0
  2257     01DE  00A4               	movwf	___flmul@a
  2258     01DF  3041               	movlw	65
  2259     01E0  00A3               	movwf	___flmul@b+3
  2260     01E1  3020               	movlw	32
  2261     01E2  00A2               	movwf	___flmul@b+2
  2262     01E3  3000               	movlw	0
  2263     01E4  00A1               	movwf	___flmul@b+1
  2264     01E5  3000               	movlw	0
  2265     01E6  00A0               	movwf	___flmul@b
  2266     01E7  3185  25BA  3180   	fcall	___flmul
  2267     01EA  0020               	movlb	0	; select bank0
  2268     01EB  0823               	movf	?___flmul+3,w
  2269     01EC  00EB               	movwf	___fltol@f1+3
  2270     01ED  0822               	movf	?___flmul+2,w
  2271     01EE  00EA               	movwf	___fltol@f1+2
  2272     01EF  0821               	movf	?___flmul+1,w
  2273     01F0  00E9               	movwf	___fltol@f1+1
  2274     01F1  0820               	movf	?___flmul,w
  2275     01F2  00E8               	movwf	___fltol@f1
  2276     01F3  318D  25BC  3180   	fcall	___fltol
  2277     01F6  0020               	movlb	0	; select bank0
  2278     01F7  0869               	movf	?___fltol+1,w
  2279     01F8  0021               	movlb	1	; select bank1
  2280     01F9  00C0               	movwf	(_Humidity+1)^(0+128)
  2281     01FA  0020               	movlb	0	; select bank0
  2282     01FB  0868               	movf	?___fltol,w
  2283     01FC  0021               	movlb	1	; select bank1
  2284     01FD  00BF               	movwf	_Humidity^(0+128)
  2285     01FE                     l2503:
  2286     01FE                     l2505:
  2287                           
  2288                           ;GXHT30.c: 215:  _delay((unsigned long)((1)*(8000000/4000.0)));
  2289     01FE  3003               	movlw	3
  2290     01FF  0021               	movlb	1	; select bank1
  2291     0200  00A2               	movwf	??_GXHT30_read_result^(0+128)
  2292     0201  3097               	movlw	151
  2293     0202                     u3627:
  2294     0202  0B89               	decfsz	9,f
  2295     0203  2A02               	goto	u3627
  2296     0204  0BA2               	decfsz	??_GXHT30_read_result^(0+128),f
  2297     0205  2A02               	goto	u3627
  2298     0206  3200               	nop2
  2299     0207                     l174:
  2300     0207  0008               	return
  2301     0208                     __end_of_GXHT30_read_result:
  2302                           
  2303                           	psect	text5
  2304     0E38                     __ptext5:	
  2305 ;; *************** function ___xxtofl *****************
  2306 ;; Defined at:
  2307 ;;		line 10 in file "C:\XC8\pic\sources\c99\common\xxtofl.c"
  2308 ;; Parameters:    Size  Location     Type
  2309 ;;  sign            1    wreg     unsigned char 
  2310 ;;  val             4    0[COMMON] long 
  2311 ;; Auto vars:     Size  Location     Type
  2312 ;;  sign            1    8[COMMON] unsigned char 
  2313 ;;  arg             4   10[COMMON] unsigned long 
  2314 ;;  exp             1    9[COMMON] unsigned char 
  2315 ;; Return value:  Size  Location     Type
  2316 ;;                  4    0[COMMON] unsigned char 
  2317 ;; Registers used:
  2318 ;;		wreg, status,2, status,0
  2319 ;; Tracked objects:
  2320 ;;		On entry : 0/0
  2321 ;;		On exit  : 0/0
  2322 ;;		Unchanged: 0/0
  2323 ;; Data sizes:     COMMON   BANK0   BANK1   BANK2
  2324 ;;      Params:         4       0       0       0
  2325 ;;      Locals:         6       0       0       0
  2326 ;;      Temps:          4       0       0       0
  2327 ;;      Totals:        14       0       0       0
  2328 ;;Total ram usage:       14 bytes
  2329 ;; Hardware stack levels used: 1
  2330 ;; This function calls:
  2331 ;;		Nothing
  2332 ;; This function is called by:
  2333 ;;		_GXHT30_read_result
  2334 ;; This function uses a non-reentrant model
  2335 ;;
  2336                           
  2337     0E38                     ___xxtofl:	
  2338                           ;psect for function ___xxtofl
  2339                           
  2340                           
  2341                           ;incstack = 0
  2342                           ; Regs used in ___xxtofl: [wreg+status,2+status,0]
  2343                           ;___xxtofl@sign stored from wreg
  2344     0E38  00F8               	movwf	___xxtofl@sign
  2345     0E39                     l2389:
  2346     0E39  0878               	movf	___xxtofl@sign,w
  2347     0E3A  1903               	btfsc	3,2
  2348     0E3B  2E3D               	goto	u3131
  2349     0E3C  2E3E               	goto	u3130
  2350     0E3D                     u3131:
  2351     0E3D  2E52               	goto	l2395
  2352     0E3E                     u3130:
  2353     0E3E                     l2391:
  2354     0E3E  1FF3               	btfss	___xxtofl@val+3,7
  2355     0E3F  2E41               	goto	u3141
  2356     0E40  2E42               	goto	u3140
  2357     0E41                     u3141:
  2358     0E41  2E52               	goto	l2395
  2359     0E42                     u3140:
  2360     0E42                     l2393:
  2361     0E42  0970               	comf	___xxtofl@val,w
  2362     0E43  00FA               	movwf	___xxtofl@arg
  2363     0E44  0971               	comf	___xxtofl@val+1,w
  2364     0E45  00FB               	movwf	___xxtofl@arg+1
  2365     0E46  0972               	comf	___xxtofl@val+2,w
  2366     0E47  00FC               	movwf	___xxtofl@arg+2
  2367     0E48  0973               	comf	___xxtofl@val+3,w
  2368     0E49  00FD               	movwf	___xxtofl@arg+3
  2369     0E4A  0AFA               	incf	___xxtofl@arg,f
  2370     0E4B  1903               	skipnz
  2371     0E4C  0AFB               	incf	___xxtofl@arg+1,f
  2372     0E4D  1903               	skipnz
  2373     0E4E  0AFC               	incf	___xxtofl@arg+2,f
  2374     0E4F  1903               	skipnz
  2375     0E50  0AFD               	incf	___xxtofl@arg+3,f
  2376     0E51  2E5A               	goto	l768
  2377     0E52                     l2395:
  2378     0E52  0873               	movf	___xxtofl@val+3,w
  2379     0E53  00FD               	movwf	___xxtofl@arg+3
  2380     0E54  0872               	movf	___xxtofl@val+2,w
  2381     0E55  00FC               	movwf	___xxtofl@arg+2
  2382     0E56  0871               	movf	___xxtofl@val+1,w
  2383     0E57  00FB               	movwf	___xxtofl@arg+1
  2384     0E58  0870               	movf	___xxtofl@val,w
  2385     0E59  00FA               	movwf	___xxtofl@arg
  2386     0E5A                     l768:
  2387     0E5A  0873               	movf	___xxtofl@val+3,w
  2388     0E5B  0472               	iorwf	___xxtofl@val+2,w
  2389     0E5C  0471               	iorwf	___xxtofl@val+1,w
  2390     0E5D  0470               	iorwf	___xxtofl@val,w
  2391     0E5E  1D03               	skipz
  2392     0E5F  2E61               	goto	u3151
  2393     0E60  2E62               	goto	u3150
  2394     0E61                     u3151:
  2395     0E61  2E6B               	goto	l2401
  2396     0E62                     u3150:
  2397     0E62                     l2397:
  2398     0E62  3000               	movlw	0
  2399     0E63  00F3               	movwf	?___xxtofl+3
  2400     0E64  3000               	movlw	0
  2401     0E65  00F2               	movwf	?___xxtofl+2
  2402     0E66  3000               	movlw	0
  2403     0E67  00F1               	movwf	?___xxtofl+1
  2404     0E68  3000               	movlw	0
  2405     0E69  00F0               	movwf	?___xxtofl
  2406     0E6A  2EE1               	goto	l770
  2407     0E6B                     l2401:
  2408     0E6B  3096               	movlw	150
  2409     0E6C  00F9               	movwf	___xxtofl@exp
  2410     0E6D  2E79               	goto	l2405
  2411     0E6E                     l2403:
  2412     0E6E  3001               	movlw	1
  2413     0E6F  00F4               	movwf	??___xxtofl
  2414     0E70  0874               	movf	??___xxtofl,w
  2415     0E71  07F9               	addwf	___xxtofl@exp,f
  2416     0E72  3001               	movlw	1
  2417     0E73                     u3165:
  2418     0E73  36FD               	lsrf	___xxtofl@arg+3,f
  2419     0E74  0CFC               	rrf	___xxtofl@arg+2,f
  2420     0E75  0CFB               	rrf	___xxtofl@arg+1,f
  2421     0E76  0CFA               	rrf	___xxtofl@arg,f
  2422     0E77  0B89               	decfsz	9,f
  2423     0E78  2E73               	goto	u3165
  2424     0E79                     l2405:
  2425     0E79  30FE               	movlw	254
  2426     0E7A  057D               	andwf	___xxtofl@arg+3,w
  2427     0E7B  1D03               	btfss	3,2
  2428     0E7C  2E7E               	goto	u3171
  2429     0E7D  2E7F               	goto	u3170
  2430     0E7E                     u3171:
  2431     0E7E  2E6E               	goto	l2403
  2432     0E7F                     u3170:
  2433     0E7F  2E93               	goto	l774
  2434     0E80                     l2407:
  2435     0E80  3001               	movlw	1
  2436     0E81  00F4               	movwf	??___xxtofl
  2437     0E82  0874               	movf	??___xxtofl,w
  2438     0E83  07F9               	addwf	___xxtofl@exp,f
  2439     0E84                     l2409:
  2440     0E84  3001               	movlw	1
  2441     0E85  07FA               	addwf	___xxtofl@arg,f
  2442     0E86  3000               	movlw	0
  2443     0E87  3DFB               	addwfc	___xxtofl@arg+1,f
  2444     0E88  3000               	movlw	0
  2445     0E89  3DFC               	addwfc	___xxtofl@arg+2,f
  2446     0E8A  3000               	movlw	0
  2447     0E8B  3DFD               	addwfc	___xxtofl@arg+3,f
  2448     0E8C                     l2411:
  2449     0E8C  3001               	movlw	1
  2450     0E8D                     u3185:
  2451     0E8D  36FD               	lsrf	___xxtofl@arg+3,f
  2452     0E8E  0CFC               	rrf	___xxtofl@arg+2,f
  2453     0E8F  0CFB               	rrf	___xxtofl@arg+1,f
  2454     0E90  0CFA               	rrf	___xxtofl@arg,f
  2455     0E91  0B89               	decfsz	9,f
  2456     0E92  2E8D               	goto	u3185
  2457     0E93                     l774:
  2458     0E93  30FF               	movlw	255
  2459     0E94  057D               	andwf	___xxtofl@arg+3,w
  2460     0E95  1D03               	btfss	3,2
  2461     0E96  2E98               	goto	u3191
  2462     0E97  2E99               	goto	u3190
  2463     0E98                     u3191:
  2464     0E98  2E80               	goto	l2407
  2465     0E99                     u3190:
  2466     0E99  2EA3               	goto	l2415
  2467     0E9A                     l2413:
  2468     0E9A  3001               	movlw	1
  2469     0E9B  02F9               	subwf	___xxtofl@exp,f
  2470     0E9C  3001               	movlw	1
  2471     0E9D                     u3205:
  2472     0E9D  35FA               	lslf	___xxtofl@arg,f
  2473     0E9E  0DFB               	rlf	___xxtofl@arg+1,f
  2474     0E9F  0DFC               	rlf	___xxtofl@arg+2,f
  2475     0EA0  0DFD               	rlf	___xxtofl@arg+3,f
  2476     0EA1  0B89               	decfsz	9,f
  2477     0EA2  2E9D               	goto	u3205
  2478     0EA3                     l2415:
  2479     0EA3  1BFC               	btfsc	___xxtofl@arg+2,7
  2480     0EA4  2EA6               	goto	u3211
  2481     0EA5  2EA7               	goto	u3210
  2482     0EA6                     u3211:
  2483     0EA6  2EAD               	goto	l781
  2484     0EA7                     u3210:
  2485     0EA7                     l2417:
  2486     0EA7  3002               	movlw	2
  2487     0EA8  0279               	subwf	___xxtofl@exp,w
  2488     0EA9  1803               	skipnc
  2489     0EAA  2EAC               	goto	u3221
  2490     0EAB  2EAD               	goto	u3220
  2491     0EAC                     u3221:
  2492     0EAC  2E9A               	goto	l2413
  2493     0EAD                     u3220:
  2494     0EAD                     l781:
  2495     0EAD  1879               	btfsc	___xxtofl@exp,0
  2496     0EAE  2EB0               	goto	u3231
  2497     0EAF  2EB1               	goto	u3230
  2498     0EB0                     u3231:
  2499     0EB0  2EB9               	goto	l782
  2500     0EB1                     u3230:
  2501     0EB1                     l2419:
  2502     0EB1  30FF               	movlw	255
  2503     0EB2  05FA               	andwf	___xxtofl@arg,f
  2504     0EB3  30FF               	movlw	255
  2505     0EB4  05FB               	andwf	___xxtofl@arg+1,f
  2506     0EB5  307F               	movlw	127
  2507     0EB6  05FC               	andwf	___xxtofl@arg+2,f
  2508     0EB7  30FF               	movlw	255
  2509     0EB8  05FD               	andwf	___xxtofl@arg+3,f
  2510     0EB9                     l782:
  2511     0EB9  1003               	clrc
  2512     0EBA  0CF9               	rrf	___xxtofl@exp,f
  2513     0EBB                     l2421:
  2514     0EBB  0879               	movf	___xxtofl@exp,w
  2515     0EBC  00F4               	movwf	??___xxtofl
  2516     0EBD  01F5               	clrf	??___xxtofl+1
  2517     0EBE  01F6               	clrf	??___xxtofl+2
  2518     0EBF  01F7               	clrf	??___xxtofl+3
  2519     0EC0  3018               	movlw	24
  2520     0EC1                     u3245:
  2521     0EC1  35F4               	lslf	??___xxtofl,f
  2522     0EC2  0DF5               	rlf	??___xxtofl+1,f
  2523     0EC3  0DF6               	rlf	??___xxtofl+2,f
  2524     0EC4  0DF7               	rlf	??___xxtofl+3,f
  2525     0EC5                     u3240:
  2526     0EC5  0B89               	decfsz	9,f
  2527     0EC6  2EC1               	goto	u3245
  2528     0EC7  0874               	movf	??___xxtofl,w
  2529     0EC8  04FA               	iorwf	___xxtofl@arg,f
  2530     0EC9  0875               	movf	??___xxtofl+1,w
  2531     0ECA  04FB               	iorwf	___xxtofl@arg+1,f
  2532     0ECB  0876               	movf	??___xxtofl+2,w
  2533     0ECC  04FC               	iorwf	___xxtofl@arg+2,f
  2534     0ECD  0877               	movf	??___xxtofl+3,w
  2535     0ECE  04FD               	iorwf	___xxtofl@arg+3,f
  2536     0ECF                     l2423:
  2537     0ECF  0878               	movf	___xxtofl@sign,w
  2538     0ED0  1903               	btfsc	3,2
  2539     0ED1  2ED3               	goto	u3251
  2540     0ED2  2ED4               	goto	u3250
  2541     0ED3                     u3251:
  2542     0ED3  2ED9               	goto	l2429
  2543     0ED4                     u3250:
  2544     0ED4                     l2425:
  2545     0ED4  1FF3               	btfss	___xxtofl@val+3,7
  2546     0ED5  2ED7               	goto	u3261
  2547     0ED6  2ED8               	goto	u3260
  2548     0ED7                     u3261:
  2549     0ED7  2ED9               	goto	l2429
  2550     0ED8                     u3260:
  2551     0ED8                     l2427:
  2552     0ED8  17FD               	bsf	___xxtofl@arg+3,7
  2553     0ED9                     l2429:
  2554     0ED9  087D               	movf	___xxtofl@arg+3,w
  2555     0EDA  00F3               	movwf	?___xxtofl+3
  2556     0EDB  087C               	movf	___xxtofl@arg+2,w
  2557     0EDC  00F2               	movwf	?___xxtofl+2
  2558     0EDD  087B               	movf	___xxtofl@arg+1,w
  2559     0EDE  00F1               	movwf	?___xxtofl+1
  2560     0EDF  087A               	movf	___xxtofl@arg,w
  2561     0EE0  00F0               	movwf	?___xxtofl
  2562     0EE1                     l770:
  2563     0EE1  0008               	return
  2564     0EE2                     __end_of___xxtofl:
  2565                           
  2566                           	psect	text6
  2567     0DBC                     __ptext6:	
  2568 ;; *************** function ___fltol *****************
  2569 ;; Defined at:
  2570 ;;		line 43 in file "C:\XC8\pic\sources\c99\common\fltol.c"
  2571 ;; Parameters:    Size  Location     Type
  2572 ;;  f1              4   72[BANK0 ] unsigned char 
  2573 ;; Auto vars:     Size  Location     Type
  2574 ;;  exp1            1    1[BANK1 ] unsigned char 
  2575 ;;  sign1           1    0[BANK1 ] unsigned char 
  2576 ;; Return value:  Size  Location     Type
  2577 ;;                  4   72[BANK0 ] long 
  2578 ;; Registers used:
  2579 ;;		wreg, status,2, status,0
  2580 ;; Tracked objects:
  2581 ;;		On entry : 0/0
  2582 ;;		On exit  : 0/0
  2583 ;;		Unchanged: 0/0
  2584 ;; Data sizes:     COMMON   BANK0   BANK1   BANK2
  2585 ;;      Params:         0       4       0       0
  2586 ;;      Locals:         0       0       2       0
  2587 ;;      Temps:          0       4       0       0
  2588 ;;      Totals:         0       8       2       0
  2589 ;;Total ram usage:       10 bytes
  2590 ;; Hardware stack levels used: 1
  2591 ;; This function calls:
  2592 ;;		Nothing
  2593 ;; This function is called by:
  2594 ;;		_GXHT30_read_result
  2595 ;; This function uses a non-reentrant model
  2596 ;;
  2597                           
  2598     0DBC                     ___fltol:	
  2599                           ;psect for function ___fltol
  2600                           
  2601     0DBC                     l1879:	
  2602                           ;incstack = 0
  2603                           ; Regs used in ___fltol: [wreg+status,2+status,0]
  2604                           
  2605     0DBC  1003               	clrc
  2606     0DBD  0020               	movlb	0	; select bank0
  2607     0DBE  0D6A               	rlf	___fltol@f1+2,w
  2608     0DBF  0D6B               	rlf	___fltol@f1+3,w
  2609     0DC0  0021               	movlb	1	; select bank1
  2610     0DC1  00A1               	movwf	___fltol@exp1^(0+128)
  2611     0DC2  0821               	movf	___fltol@exp1^(0+128),w
  2612     0DC3  1D03               	btfss	3,2
  2613     0DC4  2DC6               	goto	u2051
  2614     0DC5  2DC7               	goto	u2050
  2615     0DC6                     u2051:
  2616     0DC6  2DD1               	goto	l1885
  2617     0DC7                     u2050:
  2618     0DC7                     l1881:
  2619     0DC7  3000               	movlw	0
  2620     0DC8  0020               	movlb	0	; select bank0
  2621     0DC9  00EB               	movwf	?___fltol+3
  2622     0DCA  3000               	movlw	0
  2623     0DCB  00EA               	movwf	?___fltol+2
  2624     0DCC  3000               	movlw	0
  2625     0DCD  00E9               	movwf	?___fltol+1
  2626     0DCE  3000               	movlw	0
  2627     0DCF  00E8               	movwf	?___fltol
  2628     0DD0  2E37               	goto	l521
  2629     0DD1                     l1885:
  2630     0DD1  0020               	movlb	0	; select bank0
  2631     0DD2  0868               	movf	___fltol@f1,w
  2632     0DD3  00EC               	movwf	??___fltol
  2633     0DD4  0869               	movf	___fltol@f1+1,w
  2634     0DD5  00ED               	movwf	??___fltol+1
  2635     0DD6  086A               	movf	___fltol@f1+2,w
  2636     0DD7  00EE               	movwf	??___fltol+2
  2637     0DD8  086B               	movf	___fltol@f1+3,w
  2638     0DD9  00EF               	movwf	??___fltol+3
  2639     0DDA  301F               	movlw	31
  2640     0DDB                     u2065:
  2641     0DDB  36EF               	lsrf	??___fltol+3,f
  2642     0DDC  0CEE               	rrf	??___fltol+2,f
  2643     0DDD  0CED               	rrf	??___fltol+1,f
  2644     0DDE  0CEC               	rrf	??___fltol,f
  2645     0DDF                     u2060:
  2646     0DDF  0B89               	decfsz	9,f
  2647     0DE0  2DDB               	goto	u2065
  2648     0DE1  086C               	movf	??___fltol,w
  2649     0DE2  0021               	movlb	1	; select bank1
  2650     0DE3  00A0               	movwf	___fltol@sign1^(0+128)
  2651     0DE4                     l1887:
  2652     0DE4  0020               	movlb	0	; select bank0
  2653     0DE5  17EA               	bsf	___fltol@f1+2,7
  2654     0DE6                     l1889:
  2655     0DE6  30FF               	movlw	255
  2656     0DE7  05E8               	andwf	___fltol@f1,f
  2657     0DE8  30FF               	movlw	255
  2658     0DE9  05E9               	andwf	___fltol@f1+1,f
  2659     0DEA  30FF               	movlw	255
  2660     0DEB  05EA               	andwf	___fltol@f1+2,f
  2661     0DEC  3000               	movlw	0
  2662     0DED  05EB               	andwf	___fltol@f1+3,f
  2663     0DEE                     l1891:
  2664     0DEE  3096               	movlw	150
  2665     0DEF  0021               	movlb	1	; select bank1
  2666     0DF0  02A1               	subwf	___fltol@exp1^(0+128),f
  2667     0DF1                     l1893:
  2668     0DF1  1FA1               	btfss	___fltol@exp1^(0+128),7
  2669     0DF2  2DF4               	goto	u2071
  2670     0DF3  2DF5               	goto	u2070
  2671     0DF4                     u2071:
  2672     0DF4  2E0F               	goto	l1903
  2673     0DF5                     u2070:
  2674     0DF5                     l1895:
  2675     0DF5  0821               	movf	___fltol@exp1^(0+128),w
  2676     0DF6  3A80               	xorlw	128
  2677     0DF7  3E97               	addlw	151
  2678     0DF8  1803               	skipnc
  2679     0DF9  2DFB               	goto	u2081
  2680     0DFA  2DFC               	goto	u2080
  2681     0DFB                     u2081:
  2682     0DFB  2DFD               	goto	l1901
  2683     0DFC                     u2080:
  2684     0DFC  2DC7               	goto	l1881
  2685     0DFD                     l1901:
  2686     0DFD  3001               	movlw	1
  2687     0DFE                     u2095:
  2688     0DFE  0020               	movlb	0	; select bank0
  2689     0DFF  36EB               	lsrf	___fltol@f1+3,f
  2690     0E00  0CEA               	rrf	___fltol@f1+2,f
  2691     0E01  0CE9               	rrf	___fltol@f1+1,f
  2692     0E02  0CE8               	rrf	___fltol@f1,f
  2693     0E03  0B89               	decfsz	9,f
  2694     0E04  2DFE               	goto	u2095
  2695     0E05  3001               	movlw	1
  2696     0E06  00EC               	movwf	??___fltol
  2697     0E07  086C               	movf	??___fltol,w
  2698     0E08  0021               	movlb	1	; select bank1
  2699     0E09  07A1               	addwf	___fltol@exp1^(0+128),f
  2700     0E0A  1D03               	btfss	3,2
  2701     0E0B  2E0D               	goto	u2101
  2702     0E0C  2E0E               	goto	u2100
  2703     0E0D                     u2101:
  2704     0E0D  2DFD               	goto	l1901
  2705     0E0E                     u2100:
  2706     0E0E  2E26               	goto	l1911
  2707     0E0F                     l1903:
  2708     0E0F  3020               	movlw	32
  2709     0E10  0221               	subwf	___fltol@exp1^(0+128),w
  2710     0E11  1C03               	skipc
  2711     0E12  2E14               	goto	u2111
  2712     0E13  2E15               	goto	u2110
  2713     0E14                     u2111:
  2714     0E14  2E21               	goto	l528
  2715     0E15                     u2110:
  2716     0E15  2DC7               	goto	l1881
  2717     0E16                     l1909:
  2718     0E16  3001               	movlw	1
  2719     0E17                     u2125:
  2720     0E17  0020               	movlb	0	; select bank0
  2721     0E18  35E8               	lslf	___fltol@f1,f
  2722     0E19  0DE9               	rlf	___fltol@f1+1,f
  2723     0E1A  0DEA               	rlf	___fltol@f1+2,f
  2724     0E1B  0DEB               	rlf	___fltol@f1+3,f
  2725     0E1C  0B89               	decfsz	9,f
  2726     0E1D  2E17               	goto	u2125
  2727     0E1E  3001               	movlw	1
  2728     0E1F  0021               	movlb	1	; select bank1
  2729     0E20  02A1               	subwf	___fltol@exp1^(0+128),f
  2730     0E21                     l528:
  2731     0E21  0821               	movf	___fltol@exp1^(0+128),w
  2732     0E22  1D03               	btfss	3,2
  2733     0E23  2E25               	goto	u2131
  2734     0E24  2E26               	goto	u2130
  2735     0E25                     u2131:
  2736     0E25  2E16               	goto	l1909
  2737     0E26                     u2130:
  2738     0E26                     l1911:
  2739     0E26  0820               	movf	___fltol@sign1^(0+128),w
  2740     0E27  1903               	btfsc	3,2
  2741     0E28  2E2A               	goto	u2141
  2742     0E29  2E2B               	goto	u2140
  2743     0E2A                     u2141:
  2744     0E2A  2E37               	goto	l531
  2745     0E2B                     u2140:
  2746     0E2B                     l1913:
  2747     0E2B  0020               	movlb	0	; select bank0
  2748     0E2C  09E8               	comf	___fltol@f1,f
  2749     0E2D  09E9               	comf	___fltol@f1+1,f
  2750     0E2E  09EA               	comf	___fltol@f1+2,f
  2751     0E2F  09EB               	comf	___fltol@f1+3,f
  2752     0E30  0AE8               	incf	___fltol@f1,f
  2753     0E31  1903               	skipnz
  2754     0E32  0AE9               	incf	___fltol@f1+1,f
  2755     0E33  1903               	skipnz
  2756     0E34  0AEA               	incf	___fltol@f1+2,f
  2757     0E35  1903               	skipnz
  2758     0E36  0AEB               	incf	___fltol@f1+3,f
  2759     0E37                     l531:
  2760     0E37                     l521:
  2761     0E37  0008               	return
  2762     0E38                     __end_of___fltol:
  2763                           
  2764                           	psect	text7
  2765     05BA                     __ptext7:	
  2766 ;; *************** function ___flmul *****************
  2767 ;; Defined at:
  2768 ;;		line 8 in file "C:\XC8\pic\sources\c99\common\sprcmul.c"
  2769 ;; Parameters:    Size  Location     Type
  2770 ;;  b               4    0[BANK0 ] long 
  2771 ;;  a               4    4[BANK0 ] long 
  2772 ;; Auto vars:     Size  Location     Type
  2773 ;;  prod            4   20[BANK0 ] struct .
  2774 ;;  grs             4   14[BANK0 ] unsigned long 
  2775 ;;  temp            2   24[BANK0 ] struct .
  2776 ;;  bexp            1   19[BANK0 ] unsigned char 
  2777 ;;  aexp            1   18[BANK0 ] unsigned char 
  2778 ;;  sign            1   13[BANK0 ] unsigned char 
  2779 ;; Return value:  Size  Location     Type
  2780 ;;                  4    0[BANK0 ] unsigned char 
  2781 ;; Registers used:
  2782 ;;		wreg, status,2, status,0, pclath, cstack
  2783 ;; Tracked objects:
  2784 ;;		On entry : 0/0
  2785 ;;		On exit  : 0/0
  2786 ;;		Unchanged: 0/0
  2787 ;; Data sizes:     COMMON   BANK0   BANK1   BANK2
  2788 ;;      Params:         0       8       0       0
  2789 ;;      Locals:         0      13       0       0
  2790 ;;      Temps:          0       5       0       0
  2791 ;;      Totals:         0      26       0       0
  2792 ;;Total ram usage:       26 bytes
  2793 ;; Hardware stack levels used: 1
  2794 ;; Hardware stack levels required when called: 1
  2795 ;; This function calls:
  2796 ;;		__Umul8_16
  2797 ;; This function is called by:
  2798 ;;		_GXHT30_read_result
  2799 ;; This function uses a non-reentrant model
  2800 ;;
  2801                           
  2802     05BA                     ___flmul:	
  2803                           ;psect for function ___flmul
  2804                           
  2805     05BA                     l2249:	
  2806                           ;incstack = 0
  2807                           ; Regs used in ___flmul: [wreg+status,2+status,0+pclath+cstack]
  2808                           
  2809     05BA  0020               	movlb	0	; select bank0
  2810     05BB  0823               	movf	___flmul@b+3,w
  2811     05BC  3980               	andlw	128
  2812     05BD  00AD               	movwf	___flmul@sign
  2813     05BE                     l2251:
  2814     05BE  3523               	lslf	___flmul@b+3,w
  2815     05BF  00B3               	movwf	___flmul@bexp
  2816     05C0                     l2253:
  2817     05C0  1FA2               	btfss	___flmul@b+2,7
  2818     05C1  2DC3               	goto	u2871
  2819     05C2  2DC4               	goto	u2870
  2820     05C3                     u2871:
  2821     05C3  2DC5               	goto	l2257
  2822     05C4                     u2870:
  2823     05C4                     l2255:
  2824     05C4  1433               	bsf	___flmul@bexp,0
  2825     05C5                     l2257:
  2826     05C5  0833               	movf	___flmul@bexp,w
  2827     05C6  1903               	btfsc	3,2
  2828     05C7  2DC9               	goto	u2881
  2829     05C8  2DCA               	goto	u2880
  2830     05C9                     u2881:
  2831     05C9  2DD9               	goto	l2265
  2832     05CA                     u2880:
  2833     05CA                     l2259:
  2834     05CA  0A33               	incf	___flmul@bexp,w
  2835     05CB  1D03               	btfss	3,2
  2836     05CC  2DCE               	goto	u2891
  2837     05CD  2DCF               	goto	u2890
  2838     05CE                     u2891:
  2839     05CE  2DD7               	goto	l2263
  2840     05CF                     u2890:
  2841     05CF                     l2261:
  2842     05CF  3000               	movlw	0
  2843     05D0  00A3               	movwf	___flmul@b+3
  2844     05D1  3000               	movlw	0
  2845     05D2  00A2               	movwf	___flmul@b+2
  2846     05D3  3000               	movlw	0
  2847     05D4  00A1               	movwf	___flmul@b+1
  2848     05D5  3000               	movlw	0
  2849     05D6  00A0               	movwf	___flmul@b
  2850     05D7                     l2263:
  2851     05D7  17A2               	bsf	___flmul@b+2,7
  2852     05D8  2DE1               	goto	l2267
  2853     05D9                     l2265:
  2854     05D9  3000               	movlw	0
  2855     05DA  00A3               	movwf	___flmul@b+3
  2856     05DB  3000               	movlw	0
  2857     05DC  00A2               	movwf	___flmul@b+2
  2858     05DD  3000               	movlw	0
  2859     05DE  00A1               	movwf	___flmul@b+1
  2860     05DF  3000               	movlw	0
  2861     05E0  00A0               	movwf	___flmul@b
  2862     05E1                     l2267:
  2863     05E1  0827               	movf	___flmul@a+3,w
  2864     05E2  3980               	andlw	128
  2865     05E3  00A8               	movwf	??___flmul
  2866     05E4  0828               	movf	??___flmul,w
  2867     05E5  06AD               	xorwf	___flmul@sign,f
  2868     05E6                     l2269:
  2869     05E6  3527               	lslf	___flmul@a+3,w
  2870     05E7  00B2               	movwf	___flmul@aexp
  2871     05E8                     l2271:
  2872     05E8  1FA6               	btfss	___flmul@a+2,7
  2873     05E9  2DEB               	goto	u2901
  2874     05EA  2DEC               	goto	u2900
  2875     05EB                     u2901:
  2876     05EB  2DED               	goto	l2275
  2877     05EC                     u2900:
  2878     05EC                     l2273:
  2879     05EC  1432               	bsf	___flmul@aexp,0
  2880     05ED                     l2275:
  2881     05ED  0832               	movf	___flmul@aexp,w
  2882     05EE  1903               	btfsc	3,2
  2883     05EF  2DF1               	goto	u2911
  2884     05F0  2DF2               	goto	u2910
  2885     05F1                     u2911:
  2886     05F1  2E01               	goto	l2283
  2887     05F2                     u2910:
  2888     05F2                     l2277:
  2889     05F2  0A32               	incf	___flmul@aexp,w
  2890     05F3  1D03               	btfss	3,2
  2891     05F4  2DF6               	goto	u2921
  2892     05F5  2DF7               	goto	u2920
  2893     05F6                     u2921:
  2894     05F6  2DFF               	goto	l2281
  2895     05F7                     u2920:
  2896     05F7                     l2279:
  2897     05F7  3000               	movlw	0
  2898     05F8  00A7               	movwf	___flmul@a+3
  2899     05F9  3000               	movlw	0
  2900     05FA  00A6               	movwf	___flmul@a+2
  2901     05FB  3000               	movlw	0
  2902     05FC  00A5               	movwf	___flmul@a+1
  2903     05FD  3000               	movlw	0
  2904     05FE  00A4               	movwf	___flmul@a
  2905     05FF                     l2281:
  2906     05FF  17A6               	bsf	___flmul@a+2,7
  2907     0600  2E09               	goto	l2285
  2908     0601                     l2283:
  2909     0601  3000               	movlw	0
  2910     0602  00A7               	movwf	___flmul@a+3
  2911     0603  3000               	movlw	0
  2912     0604  00A6               	movwf	___flmul@a+2
  2913     0605  3000               	movlw	0
  2914     0606  00A5               	movwf	___flmul@a+1
  2915     0607  3000               	movlw	0
  2916     0608  00A4               	movwf	___flmul@a
  2917     0609                     l2285:
  2918     0609  0832               	movf	___flmul@aexp,w
  2919     060A  1903               	btfsc	3,2
  2920     060B  2E0D               	goto	u2931
  2921     060C  2E0E               	goto	u2930
  2922     060D                     u2931:
  2923     060D  2E13               	goto	l2289
  2924     060E                     u2930:
  2925     060E                     l2287:
  2926     060E  0833               	movf	___flmul@bexp,w
  2927     060F  1D03               	btfss	3,2
  2928     0610  2E12               	goto	u2941
  2929     0611  2E13               	goto	u2940
  2930     0612                     u2941:
  2931     0612  2E1C               	goto	l2293
  2932     0613                     u2940:
  2933     0613                     l2289:
  2934     0613  3000               	movlw	0
  2935     0614  00A3               	movwf	?___flmul+3
  2936     0615  3000               	movlw	0
  2937     0616  00A2               	movwf	?___flmul+2
  2938     0617  3000               	movlw	0
  2939     0618  00A1               	movwf	?___flmul+1
  2940     0619  3000               	movlw	0
  2941     061A  00A0               	movwf	?___flmul
  2942     061B  2FF4               	goto	l724
  2943     061C                     l2293:
  2944     061C  0820               	movf	___flmul@b,w
  2945     061D  00F0               	movwf	__Umul8_16@multiplicand
  2946     061E  0826               	movf	___flmul@a+2,w
  2947     061F  318C  243D  3185   	fcall	__Umul8_16
  2948     0622  0871               	movf	?__Umul8_16+1,w
  2949     0623  0020               	movlb	0	; select bank0
  2950     0624  00B9               	movwf	___flmul@temp+1
  2951     0625  0870               	movf	?__Umul8_16,w
  2952     0626  00B8               	movwf	___flmul@temp
  2953     0627                     l2295:
  2954     0627  0838               	movf	___flmul@temp,w
  2955     0628  00A8               	movwf	??___flmul
  2956     0629  01A9               	clrf	??___flmul+1
  2957     062A  01AA               	clrf	??___flmul+2
  2958     062B  01AB               	clrf	??___flmul+3
  2959     062C  082B               	movf	??___flmul+3,w
  2960     062D  00B1               	movwf	___flmul@grs+3
  2961     062E  082A               	movf	??___flmul+2,w
  2962     062F  00B0               	movwf	___flmul@grs+2
  2963     0630  0829               	movf	??___flmul+1,w
  2964     0631  00AF               	movwf	___flmul@grs+1
  2965     0632  0828               	movf	??___flmul,w
  2966     0633  00AE               	movwf	___flmul@grs
  2967     0634                     l2297:
  2968     0634  0839               	movf	___flmul@temp+1,w
  2969     0635  00A8               	movwf	??___flmul
  2970     0636  01A9               	clrf	??___flmul+1
  2971     0637  01AA               	clrf	??___flmul+2
  2972     0638  01AB               	clrf	??___flmul+3
  2973     0639  082B               	movf	??___flmul+3,w
  2974     063A  00B7               	movwf	___flmul@prod+3
  2975     063B  082A               	movf	??___flmul+2,w
  2976     063C  00B6               	movwf	___flmul@prod+2
  2977     063D  0829               	movf	??___flmul+1,w
  2978     063E  00B5               	movwf	___flmul@prod+1
  2979     063F  0828               	movf	??___flmul,w
  2980     0640  00B4               	movwf	___flmul@prod
  2981     0641  0821               	movf	___flmul@b+1,w
  2982     0642  00F0               	movwf	__Umul8_16@multiplicand
  2983     0643  0825               	movf	___flmul@a+1,w
  2984     0644  318C  243D  3185   	fcall	__Umul8_16
  2985     0647  0871               	movf	?__Umul8_16+1,w
  2986     0648  0020               	movlb	0	; select bank0
  2987     0649  00B9               	movwf	___flmul@temp+1
  2988     064A  0870               	movf	?__Umul8_16,w
  2989     064B  00B8               	movwf	___flmul@temp
  2990     064C                     l2299:
  2991     064C  0838               	movf	___flmul@temp,w
  2992     064D  00A8               	movwf	??___flmul
  2993     064E  01A9               	clrf	??___flmul+1
  2994     064F  01AA               	clrf	??___flmul+2
  2995     0650  01AB               	clrf	??___flmul+3
  2996     0651  0828               	movf	??___flmul,w
  2997     0652  07AE               	addwf	___flmul@grs,f
  2998     0653  0829               	movf	??___flmul+1,w
  2999     0654  3DAF               	addwfc	___flmul@grs+1,f
  3000     0655  082A               	movf	??___flmul+2,w
  3001     0656  3DB0               	addwfc	___flmul@grs+2,f
  3002     0657  082B               	movf	??___flmul+3,w
  3003     0658  3DB1               	addwfc	___flmul@grs+3,f
  3004     0659                     l2301:
  3005     0659  0839               	movf	___flmul@temp+1,w
  3006     065A  00A8               	movwf	??___flmul
  3007     065B  01A9               	clrf	??___flmul+1
  3008     065C  01AA               	clrf	??___flmul+2
  3009     065D  01AB               	clrf	??___flmul+3
  3010     065E  0828               	movf	??___flmul,w
  3011     065F  07B4               	addwf	___flmul@prod,f
  3012     0660  0829               	movf	??___flmul+1,w
  3013     0661  3DB5               	addwfc	___flmul@prod+1,f
  3014     0662  082A               	movf	??___flmul+2,w
  3015     0663  3DB6               	addwfc	___flmul@prod+2,f
  3016     0664  082B               	movf	??___flmul+3,w
  3017     0665  3DB7               	addwfc	___flmul@prod+3,f
  3018     0666  0822               	movf	___flmul@b+2,w
  3019     0667  00F0               	movwf	__Umul8_16@multiplicand
  3020     0668  0824               	movf	___flmul@a,w
  3021     0669  318C  243D  3185   	fcall	__Umul8_16
  3022     066C  0871               	movf	?__Umul8_16+1,w
  3023     066D  0020               	movlb	0	; select bank0
  3024     066E  00B9               	movwf	___flmul@temp+1
  3025     066F  0870               	movf	?__Umul8_16,w
  3026     0670  00B8               	movwf	___flmul@temp
  3027     0671                     l2303:
  3028     0671  0838               	movf	___flmul@temp,w
  3029     0672  00A8               	movwf	??___flmul
  3030     0673  01A9               	clrf	??___flmul+1
  3031     0674  01AA               	clrf	??___flmul+2
  3032     0675  01AB               	clrf	??___flmul+3
  3033     0676  0828               	movf	??___flmul,w
  3034     0677  07AE               	addwf	___flmul@grs,f
  3035     0678  0829               	movf	??___flmul+1,w
  3036     0679  3DAF               	addwfc	___flmul@grs+1,f
  3037     067A  082A               	movf	??___flmul+2,w
  3038     067B  3DB0               	addwfc	___flmul@grs+2,f
  3039     067C  082B               	movf	??___flmul+3,w
  3040     067D  3DB1               	addwfc	___flmul@grs+3,f
  3041     067E                     l2305:
  3042     067E  0839               	movf	___flmul@temp+1,w
  3043     067F  00A8               	movwf	??___flmul
  3044     0680  01A9               	clrf	??___flmul+1
  3045     0681  01AA               	clrf	??___flmul+2
  3046     0682  01AB               	clrf	??___flmul+3
  3047     0683  0828               	movf	??___flmul,w
  3048     0684  07B4               	addwf	___flmul@prod,f
  3049     0685  0829               	movf	??___flmul+1,w
  3050     0686  3DB5               	addwfc	___flmul@prod+1,f
  3051     0687  082A               	movf	??___flmul+2,w
  3052     0688  3DB6               	addwfc	___flmul@prod+2,f
  3053     0689  082B               	movf	??___flmul+3,w
  3054     068A  3DB7               	addwfc	___flmul@prod+3,f
  3055     068B                     l2307:
  3056     068B  3008               	movlw	8
  3057     068C                     u2955:
  3058     068C  35AE               	lslf	___flmul@grs,f
  3059     068D  0DAF               	rlf	___flmul@grs+1,f
  3060     068E  0DB0               	rlf	___flmul@grs+2,f
  3061     068F  0DB1               	rlf	___flmul@grs+3,f
  3062     0690  0B89               	decfsz	9,f
  3063     0691  2E8C               	goto	u2955
  3064     0692                     l2309:
  3065     0692  0821               	movf	___flmul@b+1,w
  3066     0693  00F0               	movwf	__Umul8_16@multiplicand
  3067     0694  0824               	movf	___flmul@a,w
  3068     0695  318C  243D  3185   	fcall	__Umul8_16
  3069     0698  0871               	movf	?__Umul8_16+1,w
  3070     0699  0020               	movlb	0	; select bank0
  3071     069A  00B9               	movwf	___flmul@temp+1
  3072     069B  0870               	movf	?__Umul8_16,w
  3073     069C  00B8               	movwf	___flmul@temp
  3074     069D                     l2311:
  3075     069D  0838               	movf	___flmul@temp,w
  3076     069E  07AE               	addwf	___flmul@grs,f
  3077     069F  0839               	movf	___flmul@temp+1,w
  3078     06A0  3DAF               	addwfc	___flmul@grs+1,f
  3079     06A1  3000               	movlw	0
  3080     06A2  3DB0               	addwfc	___flmul@grs+2,f
  3081     06A3  3DB1               	addwfc	___flmul@grs+3,f
  3082     06A4                     l2313:
  3083     06A4  0820               	movf	___flmul@b,w
  3084     06A5  00F0               	movwf	__Umul8_16@multiplicand
  3085     06A6  0825               	movf	___flmul@a+1,w
  3086     06A7  318C  243D  3185   	fcall	__Umul8_16
  3087     06AA  0871               	movf	?__Umul8_16+1,w
  3088     06AB  0020               	movlb	0	; select bank0
  3089     06AC  00B9               	movwf	___flmul@temp+1
  3090     06AD  0870               	movf	?__Umul8_16,w
  3091     06AE  00B8               	movwf	___flmul@temp
  3092     06AF                     l2315:
  3093     06AF  0838               	movf	___flmul@temp,w
  3094     06B0  07AE               	addwf	___flmul@grs,f
  3095     06B1  0839               	movf	___flmul@temp+1,w
  3096     06B2  3DAF               	addwfc	___flmul@grs+1,f
  3097     06B3  3000               	movlw	0
  3098     06B4  3DB0               	addwfc	___flmul@grs+2,f
  3099     06B5  3DB1               	addwfc	___flmul@grs+3,f
  3100     06B6                     l2317:
  3101     06B6  3008               	movlw	8
  3102     06B7                     u2965:
  3103     06B7  35AE               	lslf	___flmul@grs,f
  3104     06B8  0DAF               	rlf	___flmul@grs+1,f
  3105     06B9  0DB0               	rlf	___flmul@grs+2,f
  3106     06BA  0DB1               	rlf	___flmul@grs+3,f
  3107     06BB  0B89               	decfsz	9,f
  3108     06BC  2EB7               	goto	u2965
  3109     06BD  0820               	movf	___flmul@b,w
  3110     06BE  00F0               	movwf	__Umul8_16@multiplicand
  3111     06BF  0824               	movf	___flmul@a,w
  3112     06C0  318C  243D  3185   	fcall	__Umul8_16
  3113     06C3  0871               	movf	?__Umul8_16+1,w
  3114     06C4  0020               	movlb	0	; select bank0
  3115     06C5  00B9               	movwf	___flmul@temp+1
  3116     06C6  0870               	movf	?__Umul8_16,w
  3117     06C7  00B8               	movwf	___flmul@temp
  3118     06C8                     l2319:
  3119     06C8  0838               	movf	___flmul@temp,w
  3120     06C9  07AE               	addwf	___flmul@grs,f
  3121     06CA  0839               	movf	___flmul@temp+1,w
  3122     06CB  3DAF               	addwfc	___flmul@grs+1,f
  3123     06CC  3000               	movlw	0
  3124     06CD  3DB0               	addwfc	___flmul@grs+2,f
  3125     06CE  3DB1               	addwfc	___flmul@grs+3,f
  3126     06CF                     l2321:
  3127     06CF  0821               	movf	___flmul@b+1,w
  3128     06D0  00F0               	movwf	__Umul8_16@multiplicand
  3129     06D1  0826               	movf	___flmul@a+2,w
  3130     06D2  318C  243D  3185   	fcall	__Umul8_16
  3131     06D5  0871               	movf	?__Umul8_16+1,w
  3132     06D6  0020               	movlb	0	; select bank0
  3133     06D7  00B9               	movwf	___flmul@temp+1
  3134     06D8  0870               	movf	?__Umul8_16,w
  3135     06D9  00B8               	movwf	___flmul@temp
  3136     06DA  0838               	movf	___flmul@temp,w
  3137     06DB  07B4               	addwf	___flmul@prod,f
  3138     06DC  0839               	movf	___flmul@temp+1,w
  3139     06DD  3DB5               	addwfc	___flmul@prod+1,f
  3140     06DE  3000               	movlw	0
  3141     06DF  3DB6               	addwfc	___flmul@prod+2,f
  3142     06E0  3DB7               	addwfc	___flmul@prod+3,f
  3143     06E1                     l2323:
  3144     06E1  0822               	movf	___flmul@b+2,w
  3145     06E2  00F0               	movwf	__Umul8_16@multiplicand
  3146     06E3  0825               	movf	___flmul@a+1,w
  3147     06E4  318C  243D  3185   	fcall	__Umul8_16
  3148     06E7  0871               	movf	?__Umul8_16+1,w
  3149     06E8  0020               	movlb	0	; select bank0
  3150     06E9  00B9               	movwf	___flmul@temp+1
  3151     06EA  0870               	movf	?__Umul8_16,w
  3152     06EB  00B8               	movwf	___flmul@temp
  3153     06EC                     l2325:
  3154     06EC  0838               	movf	___flmul@temp,w
  3155     06ED  07B4               	addwf	___flmul@prod,f
  3156     06EE  0839               	movf	___flmul@temp+1,w
  3157     06EF  3DB5               	addwfc	___flmul@prod+1,f
  3158     06F0  3000               	movlw	0
  3159     06F1  3DB6               	addwfc	___flmul@prod+2,f
  3160     06F2  3DB7               	addwfc	___flmul@prod+3,f
  3161     06F3  0822               	movf	___flmul@b+2,w
  3162     06F4  00F0               	movwf	__Umul8_16@multiplicand
  3163     06F5  0826               	movf	___flmul@a+2,w
  3164     06F6  318C  243D  3185   	fcall	__Umul8_16
  3165     06F9  0871               	movf	?__Umul8_16+1,w
  3166     06FA  0020               	movlb	0	; select bank0
  3167     06FB  00B9               	movwf	___flmul@temp+1
  3168     06FC  0870               	movf	?__Umul8_16,w
  3169     06FD  00B8               	movwf	___flmul@temp
  3170     06FE                     l2327:
  3171     06FE  0838               	movf	___flmul@temp,w
  3172     06FF  00A8               	movwf	??___flmul
  3173     0700  0839               	movf	___flmul@temp+1,w
  3174     0701  00A9               	movwf	??___flmul+1
  3175     0702  01AA               	clrf	??___flmul+2
  3176     0703  01AB               	clrf	??___flmul+3
  3177     0704  3008               	movlw	8
  3178     0705                     u2975:
  3179     0705  35A8               	lslf	??___flmul,f
  3180     0706  0DA9               	rlf	??___flmul+1,f
  3181     0707  0DAA               	rlf	??___flmul+2,f
  3182     0708  0DAB               	rlf	??___flmul+3,f
  3183     0709                     u2970:
  3184     0709  0B89               	decfsz	9,f
  3185     070A  2F05               	goto	u2975
  3186     070B  0828               	movf	??___flmul,w
  3187     070C  07B4               	addwf	___flmul@prod,f
  3188     070D  0829               	movf	??___flmul+1,w
  3189     070E  3DB5               	addwfc	___flmul@prod+1,f
  3190     070F  082A               	movf	??___flmul+2,w
  3191     0710  3DB6               	addwfc	___flmul@prod+2,f
  3192     0711  082B               	movf	??___flmul+3,w
  3193     0712  3DB7               	addwfc	___flmul@prod+3,f
  3194     0713                     l2329:
  3195     0713  082E               	movf	___flmul@grs,w
  3196     0714  00A8               	movwf	??___flmul
  3197     0715  082F               	movf	___flmul@grs+1,w
  3198     0716  00A9               	movwf	??___flmul+1
  3199     0717  0830               	movf	___flmul@grs+2,w
  3200     0718  00AA               	movwf	??___flmul+2
  3201     0719  0831               	movf	___flmul@grs+3,w
  3202     071A  00AB               	movwf	??___flmul+3
  3203     071B  3018               	movlw	24
  3204     071C                     u2985:
  3205     071C  36AB               	lsrf	??___flmul+3,f
  3206     071D  0CAA               	rrf	??___flmul+2,f
  3207     071E  0CA9               	rrf	??___flmul+1,f
  3208     071F  0CA8               	rrf	??___flmul,f
  3209     0720                     u2980:
  3210     0720  0B89               	decfsz	9,f
  3211     0721  2F1C               	goto	u2985
  3212     0722  0828               	movf	??___flmul,w
  3213     0723  07B4               	addwf	___flmul@prod,f
  3214     0724  0829               	movf	??___flmul+1,w
  3215     0725  3DB5               	addwfc	___flmul@prod+1,f
  3216     0726  082A               	movf	??___flmul+2,w
  3217     0727  3DB6               	addwfc	___flmul@prod+2,f
  3218     0728  082B               	movf	??___flmul+3,w
  3219     0729  3DB7               	addwfc	___flmul@prod+3,f
  3220     072A                     l2331:
  3221     072A  3008               	movlw	8
  3222     072B                     u2995:
  3223     072B  35AE               	lslf	___flmul@grs,f
  3224     072C  0DAF               	rlf	___flmul@grs+1,f
  3225     072D  0DB0               	rlf	___flmul@grs+2,f
  3226     072E  0DB1               	rlf	___flmul@grs+3,f
  3227     072F  0B89               	decfsz	9,f
  3228     0730  2F2B               	goto	u2995
  3229     0731                     l2333:
  3230     0731  0833               	movf	___flmul@bexp,w
  3231     0732  0732               	addwf	___flmul@aexp,w
  3232     0733  00A8               	movwf	??___flmul
  3233     0734  01A9               	clrf	??___flmul+1
  3234     0735  0DA9               	rlf	??___flmul+1,f
  3235     0736  0828               	movf	??___flmul,w
  3236     0737  3E82               	addlw	130
  3237     0738  00B8               	movwf	___flmul@temp
  3238     0739  30FF               	movlw	255
  3239     073A  3D29               	addwfc	??___flmul+1,w
  3240     073B  00B9               	movwf	___flmul@temp+1
  3241     073C  2F54               	goto	l2345
  3242     073D                     l2335:
  3243     073D  3001               	movlw	1
  3244     073E                     u3005:
  3245     073E  35B4               	lslf	___flmul@prod,f
  3246     073F  0DB5               	rlf	___flmul@prod+1,f
  3247     0740  0DB6               	rlf	___flmul@prod+2,f
  3248     0741  0DB7               	rlf	___flmul@prod+3,f
  3249     0742  0B89               	decfsz	9,f
  3250     0743  2F3E               	goto	u3005
  3251     0744                     l2337:
  3252     0744  1FB1               	btfss	___flmul@grs+3,7
  3253     0745  2F47               	goto	u3011
  3254     0746  2F48               	goto	u3010
  3255     0747                     u3011:
  3256     0747  2F49               	goto	l2341
  3257     0748                     u3010:
  3258     0748                     l2339:
  3259     0748  1434               	bsf	___flmul@prod,0
  3260     0749                     l2341:
  3261     0749  3001               	movlw	1
  3262     074A                     u3025:
  3263     074A  35AE               	lslf	___flmul@grs,f
  3264     074B  0DAF               	rlf	___flmul@grs+1,f
  3265     074C  0DB0               	rlf	___flmul@grs+2,f
  3266     074D  0DB1               	rlf	___flmul@grs+3,f
  3267     074E  0B89               	decfsz	9,f
  3268     074F  2F4A               	goto	u3025
  3269     0750                     l2343:
  3270     0750  30FF               	movlw	255
  3271     0751  07B8               	addwf	___flmul@temp,f
  3272     0752  30FF               	movlw	255
  3273     0753  3DB9               	addwfc	___flmul@temp+1,f
  3274     0754                     l2345:
  3275     0754  1FB6               	btfss	___flmul@prod+2,7
  3276     0755  2F57               	goto	u3031
  3277     0756  2F58               	goto	u3030
  3278     0757                     u3031:
  3279     0757  2F3D               	goto	l2335
  3280     0758                     u3030:
  3281     0758                     l2347:
  3282     0758  01B2               	clrf	___flmul@aexp
  3283     0759                     l2349:
  3284     0759  1FB1               	btfss	___flmul@grs+3,7
  3285     075A  2F5C               	goto	u3041
  3286     075B  2F5D               	goto	u3040
  3287     075C                     u3041:
  3288     075C  2F79               	goto	l2357
  3289     075D                     u3040:
  3290     075D                     l2351:
  3291     075D  30FF               	movlw	255
  3292     075E  052E               	andwf	___flmul@grs,w
  3293     075F  00A8               	movwf	??___flmul
  3294     0760  30FF               	movlw	255
  3295     0761  052F               	andwf	___flmul@grs+1,w
  3296     0762  00A9               	movwf	??___flmul+1
  3297     0763  30FF               	movlw	255
  3298     0764  0530               	andwf	___flmul@grs+2,w
  3299     0765  00AA               	movwf	??___flmul+2
  3300     0766  307F               	movlw	127
  3301     0767  0531               	andwf	___flmul@grs+3,w
  3302     0768  00AB               	movwf	??___flmul+3
  3303     0769  082B               	movf	??___flmul+3,w
  3304     076A  042A               	iorwf	??___flmul+2,w
  3305     076B  0429               	iorwf	??___flmul+1,w
  3306     076C  0428               	iorwf	??___flmul,w
  3307     076D  1903               	skipnz
  3308     076E  2F70               	goto	u3051
  3309     076F  2F71               	goto	u3050
  3310     0770                     u3051:
  3311     0770  2F74               	goto	l730
  3312     0771                     u3050:
  3313     0771                     l2353:
  3314     0771  01B2               	clrf	___flmul@aexp
  3315     0772  0AB2               	incf	___flmul@aexp,f
  3316     0773  2F79               	goto	l2357
  3317     0774                     l730:
  3318     0774  1C34               	btfss	___flmul@prod,0
  3319     0775  2F77               	goto	u3061
  3320     0776  2F78               	goto	u3060
  3321     0777                     u3061:
  3322     0777  2F79               	goto	l2357
  3323     0778                     u3060:
  3324     0778  2F71               	goto	l2353
  3325     0779                     l2357:
  3326     0779  0832               	movf	___flmul@aexp,w
  3327     077A  1903               	btfsc	3,2
  3328     077B  2F7D               	goto	u3071
  3329     077C  2F7E               	goto	u3070
  3330     077D                     u3071:
  3331     077D  2FA6               	goto	l2367
  3332     077E                     u3070:
  3333     077E                     l2359:
  3334     077E  3001               	movlw	1
  3335     077F  07B4               	addwf	___flmul@prod,f
  3336     0780  3000               	movlw	0
  3337     0781  3DB5               	addwfc	___flmul@prod+1,f
  3338     0782  3000               	movlw	0
  3339     0783  3DB6               	addwfc	___flmul@prod+2,f
  3340     0784  3000               	movlw	0
  3341     0785  3DB7               	addwfc	___flmul@prod+3,f
  3342     0786                     l2361:
  3343     0786  1C37               	btfss	___flmul@prod+3,0
  3344     0787  2F89               	goto	u3081
  3345     0788  2F8A               	goto	u3080
  3346     0789                     u3081:
  3347     0789  2FA6               	goto	l2367
  3348     078A                     u3080:
  3349     078A                     l2363:
  3350     078A  0834               	movf	___flmul@prod,w
  3351     078B  00A8               	movwf	??___flmul
  3352     078C  0835               	movf	___flmul@prod+1,w
  3353     078D  00A9               	movwf	??___flmul+1
  3354     078E  0836               	movf	___flmul@prod+2,w
  3355     078F  00AA               	movwf	??___flmul+2
  3356     0790  0837               	movf	___flmul@prod+3,w
  3357     0791  00AB               	movwf	??___flmul+3
  3358     0792  3001               	movlw	1
  3359     0793  00AC               	movwf	??___flmul+4
  3360     0794                     u3095:
  3361     0794  37AB               	asrf	??___flmul+3,f
  3362     0795  0CAA               	rrf	??___flmul+2,f
  3363     0796  0CA9               	rrf	??___flmul+1,f
  3364     0797  0CA8               	rrf	??___flmul,f
  3365     0798                     u3090:
  3366     0798  0BAC               	decfsz	??___flmul+4,f
  3367     0799  2F94               	goto	u3095
  3368     079A  082B               	movf	??___flmul+3,w
  3369     079B  00B7               	movwf	___flmul@prod+3
  3370     079C  082A               	movf	??___flmul+2,w
  3371     079D  00B6               	movwf	___flmul@prod+2
  3372     079E  0829               	movf	??___flmul+1,w
  3373     079F  00B5               	movwf	___flmul@prod+1
  3374     07A0  0828               	movf	??___flmul,w
  3375     07A1  00B4               	movwf	___flmul@prod
  3376     07A2                     l2365:
  3377     07A2  3001               	movlw	1
  3378     07A3  07B8               	addwf	___flmul@temp,f
  3379     07A4  3000               	movlw	0
  3380     07A5  3DB9               	addwfc	___flmul@temp+1,f
  3381     07A6                     l2367:
  3382     07A6  0839               	movf	___flmul@temp+1,w
  3383     07A7  3A80               	xorlw	128
  3384     07A8  00A8               	movwf	??___flmul
  3385     07A9  3080               	movlw	128
  3386     07AA  0228               	subwf	??___flmul,w
  3387     07AB  1D03               	skipz
  3388     07AC  2FAF               	goto	u3105
  3389     07AD  30FF               	movlw	255
  3390     07AE  0238               	subwf	___flmul@temp,w
  3391     07AF                     u3105:
  3392     07AF  1C03               	skipc
  3393     07B0  2FB2               	goto	u3101
  3394     07B1  2FB3               	goto	u3100
  3395     07B2                     u3101:
  3396     07B2  2FBD               	goto	l2371
  3397     07B3                     u3100:
  3398     07B3                     l2369:
  3399     07B3  307F               	movlw	127
  3400     07B4  0020               	movlb	0	; select bank0
  3401     07B5  00B7               	movwf	___flmul@prod+3
  3402     07B6  3080               	movlw	128
  3403     07B7  00B6               	movwf	___flmul@prod+2
  3404     07B8  3000               	movlw	0
  3405     07B9  00B5               	movwf	___flmul@prod+1
  3406     07BA  3000               	movlw	0
  3407     07BB  00B4               	movwf	___flmul@prod
  3408     07BC  2FE8               	goto	l736
  3409     07BD                     l2371:
  3410     07BD  0020               	movlb	0	; select bank0
  3411     07BE  0839               	movf	___flmul@temp+1,w
  3412     07BF  3A80               	xorlw	128
  3413     07C0  00A8               	movwf	??___flmul
  3414     07C1  3080               	movlw	128
  3415     07C2  0228               	subwf	??___flmul,w
  3416     07C3  1D03               	skipz
  3417     07C4  2FC7               	goto	u3115
  3418     07C5  3001               	movlw	1
  3419     07C6  0238               	subwf	___flmul@temp,w
  3420     07C7                     u3115:
  3421     07C7  1803               	skipnc
  3422     07C8  2FCA               	goto	u3111
  3423     07C9  2FCB               	goto	u3110
  3424     07CA                     u3111:
  3425     07CA  2FD6               	goto	l2377
  3426     07CB                     u3110:
  3427     07CB                     l2373:
  3428     07CB  3000               	movlw	0
  3429     07CC  0020               	movlb	0	; select bank0
  3430     07CD  00B7               	movwf	___flmul@prod+3
  3431     07CE  3000               	movlw	0
  3432     07CF  00B6               	movwf	___flmul@prod+2
  3433     07D0  3000               	movlw	0
  3434     07D1  00B5               	movwf	___flmul@prod+1
  3435     07D2  3000               	movlw	0
  3436     07D3  00B4               	movwf	___flmul@prod
  3437     07D4                     l2375:
  3438     07D4  01AD               	clrf	___flmul@sign
  3439     07D5  2FE8               	goto	l736
  3440     07D6                     l2377:
  3441     07D6  0020               	movlb	0	; select bank0
  3442     07D7  0838               	movf	___flmul@temp,w
  3443     07D8  00B3               	movwf	___flmul@bexp
  3444     07D9  30FF               	movlw	255
  3445     07DA  05B4               	andwf	___flmul@prod,f
  3446     07DB  30FF               	movlw	255
  3447     07DC  05B5               	andwf	___flmul@prod+1,f
  3448     07DD  307F               	movlw	127
  3449     07DE  05B6               	andwf	___flmul@prod+2,f
  3450     07DF  3000               	movlw	0
  3451     07E0  05B7               	andwf	___flmul@prod+3,f
  3452     07E1                     l2379:
  3453     07E1  1C33               	btfss	___flmul@bexp,0
  3454     07E2  2FE4               	goto	u3121
  3455     07E3  2FE5               	goto	u3120
  3456     07E4                     u3121:
  3457     07E4  2FE6               	goto	l2383
  3458     07E5                     u3120:
  3459     07E5                     l2381:
  3460     07E5  17B6               	bsf	___flmul@prod+2,7
  3461     07E6                     l2383:
  3462     07E6  3633               	lsrf	___flmul@bexp,w
  3463     07E7  00B7               	movwf	___flmul@prod+3
  3464     07E8                     l736:
  3465     07E8  082D               	movf	___flmul@sign,w
  3466     07E9  00A8               	movwf	??___flmul
  3467     07EA  0828               	movf	??___flmul,w
  3468     07EB  04B7               	iorwf	___flmul@prod+3,f
  3469     07EC                     l2385:
  3470     07EC  0837               	movf	___flmul@prod+3,w
  3471     07ED  00A3               	movwf	?___flmul+3
  3472     07EE  0836               	movf	___flmul@prod+2,w
  3473     07EF  00A2               	movwf	?___flmul+2
  3474     07F0  0835               	movf	___flmul@prod+1,w
  3475     07F1  00A1               	movwf	?___flmul+1
  3476     07F2  0834               	movf	___flmul@prod,w
  3477     07F3  00A0               	movwf	?___flmul
  3478     07F4                     l724:
  3479     07F4  0008               	return
  3480     07F5                     __end_of___flmul:
  3481                           
  3482                           	psect	text8
  3483     0C3D                     __ptext8:	
  3484 ;; *************** function __Umul8_16 *****************
  3485 ;; Defined at:
  3486 ;;		line 4 in file "C:\XC8\pic\sources\c99\common\Umul8_16.c"
  3487 ;; Parameters:    Size  Location     Type
  3488 ;;  multiplier      1    wreg     unsigned char 
  3489 ;;  multiplicand    1    0[COMMON] unsigned char 
  3490 ;; Auto vars:     Size  Location     Type
  3491 ;;  multiplier      1    8[COMMON] unsigned char 
  3492 ;;  word_mpld       2    6[COMMON] unsigned short 
  3493 ;;  product         2    4[COMMON] unsigned short 
  3494 ;; Return value:  Size  Location     Type
  3495 ;;                  2    0[COMMON] unsigned int 
  3496 ;; Registers used:
  3497 ;;		wreg, status,2, status,0
  3498 ;; Tracked objects:
  3499 ;;		On entry : 0/0
  3500 ;;		On exit  : 0/0
  3501 ;;		Unchanged: 0/0
  3502 ;; Data sizes:     COMMON   BANK0   BANK1   BANK2
  3503 ;;      Params:         2       0       0       0
  3504 ;;      Locals:         5       0       0       0
  3505 ;;      Temps:          2       0       0       0
  3506 ;;      Totals:         9       0       0       0
  3507 ;;Total ram usage:        9 bytes
  3508 ;; Hardware stack levels used: 1
  3509 ;; This function calls:
  3510 ;;		Nothing
  3511 ;; This function is called by:
  3512 ;;		___flmul
  3513 ;; This function uses a non-reentrant model
  3514 ;;
  3515                           
  3516     0C3D                     __Umul8_16:	
  3517                           ;psect for function __Umul8_16
  3518                           
  3519                           
  3520                           ;incstack = 0
  3521                           ; Regs used in __Umul8_16: [wreg+status,2+status,0]
  3522                           ;__Umul8_16@multiplier stored from wreg
  3523     0C3D  00F8               	movwf	__Umul8_16@multiplier
  3524     0C3E                     l1705:
  3525     0C3E  01F4               	clrf	__Umul8_16@product
  3526     0C3F  01F5               	clrf	__Umul8_16@product+1
  3527     0C40                     l1707:
  3528     0C40  0870               	movf	__Umul8_16@multiplicand,w
  3529     0C41  00F2               	movwf	??__Umul8_16
  3530     0C42  01F3               	clrf	??__Umul8_16+1
  3531     0C43  0872               	movf	??__Umul8_16,w
  3532     0C44  00F6               	movwf	__Umul8_16@word_mpld
  3533     0C45  0873               	movf	??__Umul8_16+1,w
  3534     0C46  00F7               	movwf	__Umul8_16@word_mpld+1
  3535     0C47                     l1709:
  3536     0C47  1C78               	btfss	__Umul8_16@multiplier,0
  3537     0C48  2C4A               	goto	u1741
  3538     0C49  2C4B               	goto	u1740
  3539     0C4A                     u1741:
  3540     0C4A  2C4F               	goto	l743
  3541     0C4B                     u1740:
  3542     0C4B                     l1711:
  3543     0C4B  0876               	movf	__Umul8_16@word_mpld,w
  3544     0C4C  07F4               	addwf	__Umul8_16@product,f
  3545     0C4D  0877               	movf	__Umul8_16@word_mpld+1,w
  3546     0C4E  3DF5               	addwfc	__Umul8_16@product+1,f
  3547     0C4F                     l743:
  3548     0C4F  3001               	movlw	1
  3549     0C50                     u1755:
  3550     0C50  35F6               	lslf	__Umul8_16@word_mpld,f
  3551     0C51  0DF7               	rlf	__Umul8_16@word_mpld+1,f
  3552     0C52  0B89               	decfsz	9,f
  3553     0C53  2C50               	goto	u1755
  3554     0C54  1003               	clrc
  3555     0C55  0CF8               	rrf	__Umul8_16@multiplier,f
  3556     0C56                     l1713:
  3557     0C56  0878               	movf	__Umul8_16@multiplier,w
  3558     0C57  1D03               	btfss	3,2
  3559     0C58  2C5A               	goto	u1761
  3560     0C59  2C5B               	goto	u1760
  3561     0C5A                     u1761:
  3562     0C5A  2C47               	goto	l1709
  3563     0C5B                     u1760:
  3564     0C5B                     l1715:
  3565     0C5B  0875               	movf	__Umul8_16@product+1,w
  3566     0C5C  00F1               	movwf	?__Umul8_16+1
  3567     0C5D  0874               	movf	__Umul8_16@product,w
  3568     0C5E  00F0               	movwf	?__Umul8_16
  3569     0C5F                     l745:
  3570     0C5F  0008               	return
  3571     0C60                     __end_of__Umul8_16:
  3572                           
  3573                           	psect	text9
  3574     0208                     __ptext9:	
  3575 ;; *************** function ___fldiv *****************
  3576 ;; Defined at:
  3577 ;;		line 8 in file "C:\XC8\pic\sources\c99\common\sprcdiv.c"
  3578 ;; Parameters:    Size  Location     Type
  3579 ;;  a               4   26[BANK0 ] unsigned int 
  3580 ;;  b               4   30[BANK0 ] unsigned int 
  3581 ;; Auto vars:     Size  Location     Type
  3582 ;;  grs             4   46[BANK0 ] unsigned long 
  3583 ;;  rem             4   39[BANK0 ] unsigned long 
  3584 ;;  new_exp         2   44[BANK0 ] short 
  3585 ;;  aexp            1   51[BANK0 ] unsigned char 
  3586 ;;  bexp            1   50[BANK0 ] unsigned char 
  3587 ;;  sign            1   43[BANK0 ] unsigned char 
  3588 ;; Return value:  Size  Location     Type
  3589 ;;                  4   26[BANK0 ] unsigned char 
  3590 ;; Registers used:
  3591 ;;		wreg, status,2, status,0
  3592 ;; Tracked objects:
  3593 ;;		On entry : 0/0
  3594 ;;		On exit  : 0/0
  3595 ;;		Unchanged: 0/0
  3596 ;; Data sizes:     COMMON   BANK0   BANK1   BANK2
  3597 ;;      Params:         0       8       0       0
  3598 ;;      Locals:         0      13       0       0
  3599 ;;      Temps:          0       5       0       0
  3600 ;;      Totals:         0      26       0       0
  3601 ;;Total ram usage:       26 bytes
  3602 ;; Hardware stack levels used: 1
  3603 ;; This function calls:
  3604 ;;		Nothing
  3605 ;; This function is called by:
  3606 ;;		_GXHT30_read_result
  3607 ;; This function uses a non-reentrant model
  3608 ;;
  3609                           
  3610     0208                     ___fldiv:	
  3611                           ;psect for function ___fldiv
  3612                           
  3613     0208                     l2109:	
  3614                           ;incstack = 0
  3615                           ; Regs used in ___fldiv: [wreg+status,2+status,0]
  3616                           
  3617     0208  0020               	movlb	0	; select bank0
  3618     0209  0841               	movf	___fldiv@b+3,w
  3619     020A  3980               	andlw	128
  3620     020B  00CB               	movwf	___fldiv@sign
  3621     020C                     l2111:
  3622     020C  3541               	lslf	___fldiv@b+3,w
  3623     020D  00D2               	movwf	___fldiv@bexp
  3624     020E                     l2113:
  3625     020E  1FC0               	btfss	___fldiv@b+2,7
  3626     020F  2A11               	goto	u2581
  3627     0210  2A12               	goto	u2580
  3628     0211                     u2581:
  3629     0211  2A13               	goto	l2117
  3630     0212                     u2580:
  3631     0212                     l2115:
  3632     0212  1452               	bsf	___fldiv@bexp,0
  3633     0213                     l2117:
  3634     0213  0852               	movf	___fldiv@bexp,w
  3635     0214  1903               	btfsc	3,2
  3636     0215  2A17               	goto	u2591
  3637     0216  2A18               	goto	u2590
  3638     0217                     u2591:
  3639     0217  2A28               	goto	l2127
  3640     0218                     u2590:
  3641     0218                     l2119:
  3642     0218  0A52               	incf	___fldiv@bexp,w
  3643     0219  1D03               	btfss	3,2
  3644     021A  2A1C               	goto	u2601
  3645     021B  2A1D               	goto	u2600
  3646     021C                     u2601:
  3647     021C  2A25               	goto	l2123
  3648     021D                     u2600:
  3649     021D                     l2121:
  3650     021D  3000               	movlw	0
  3651     021E  00C1               	movwf	___fldiv@b+3
  3652     021F  3000               	movlw	0
  3653     0220  00C0               	movwf	___fldiv@b+2
  3654     0221  3000               	movlw	0
  3655     0222  00BF               	movwf	___fldiv@b+1
  3656     0223  3000               	movlw	0
  3657     0224  00BE               	movwf	___fldiv@b
  3658     0225                     l2123:
  3659     0225  17C0               	bsf	___fldiv@b+2,7
  3660     0226                     l2125:
  3661     0226  01C1               	clrf	___fldiv@b+3
  3662     0227  2A30               	goto	l2129
  3663     0228                     l2127:
  3664     0228  3000               	movlw	0
  3665     0229  00C1               	movwf	___fldiv@b+3
  3666     022A  3000               	movlw	0
  3667     022B  00C0               	movwf	___fldiv@b+2
  3668     022C  3000               	movlw	0
  3669     022D  00BF               	movwf	___fldiv@b+1
  3670     022E  3000               	movlw	0
  3671     022F  00BE               	movwf	___fldiv@b
  3672     0230                     l2129:
  3673     0230  083D               	movf	___fldiv@a+3,w
  3674     0231  3980               	andlw	128
  3675     0232  00C2               	movwf	??___fldiv
  3676     0233  0842               	movf	??___fldiv,w
  3677     0234  06CB               	xorwf	___fldiv@sign,f
  3678     0235                     l2131:
  3679     0235  353D               	lslf	___fldiv@a+3,w
  3680     0236  00D3               	movwf	___fldiv@aexp
  3681     0237                     l2133:
  3682     0237  1FBC               	btfss	___fldiv@a+2,7
  3683     0238  2A3A               	goto	u2611
  3684     0239  2A3B               	goto	u2610
  3685     023A                     u2611:
  3686     023A  2A3C               	goto	l2137
  3687     023B                     u2610:
  3688     023B                     l2135:
  3689     023B  1453               	bsf	___fldiv@aexp,0
  3690     023C                     l2137:
  3691     023C  0853               	movf	___fldiv@aexp,w
  3692     023D  1903               	btfsc	3,2
  3693     023E  2A40               	goto	u2621
  3694     023F  2A41               	goto	u2620
  3695     0240                     u2621:
  3696     0240  2A51               	goto	l2147
  3697     0241                     u2620:
  3698     0241                     l2139:
  3699     0241  0A53               	incf	___fldiv@aexp,w
  3700     0242  1D03               	btfss	3,2
  3701     0243  2A45               	goto	u2631
  3702     0244  2A46               	goto	u2630
  3703     0245                     u2631:
  3704     0245  2A4E               	goto	l2143
  3705     0246                     u2630:
  3706     0246                     l2141:
  3707     0246  3000               	movlw	0
  3708     0247  00BD               	movwf	___fldiv@a+3
  3709     0248  3000               	movlw	0
  3710     0249  00BC               	movwf	___fldiv@a+2
  3711     024A  3000               	movlw	0
  3712     024B  00BB               	movwf	___fldiv@a+1
  3713     024C  3000               	movlw	0
  3714     024D  00BA               	movwf	___fldiv@a
  3715     024E                     l2143:
  3716     024E  17BC               	bsf	___fldiv@a+2,7
  3717     024F                     l2145:
  3718     024F  01BD               	clrf	___fldiv@a+3
  3719     0250  2A59               	goto	l684
  3720     0251                     l2147:
  3721     0251  3000               	movlw	0
  3722     0252  00BD               	movwf	___fldiv@a+3
  3723     0253  3000               	movlw	0
  3724     0254  00BC               	movwf	___fldiv@a+2
  3725     0255  3000               	movlw	0
  3726     0256  00BB               	movwf	___fldiv@a+1
  3727     0257  3000               	movlw	0
  3728     0258  00BA               	movwf	___fldiv@a
  3729     0259                     l684:
  3730     0259  083D               	movf	___fldiv@a+3,w
  3731     025A  043C               	iorwf	___fldiv@a+2,w
  3732     025B  043B               	iorwf	___fldiv@a+1,w
  3733     025C  043A               	iorwf	___fldiv@a,w
  3734     025D  1D03               	skipz
  3735     025E  2A60               	goto	u2641
  3736     025F  2A61               	goto	u2640
  3737     0260                     u2641:
  3738     0260  2A7A               	goto	l2157
  3739     0261                     u2640:
  3740     0261                     l2149:
  3741     0261  3000               	movlw	0
  3742     0262  00C1               	movwf	___fldiv@b+3
  3743     0263  3000               	movlw	0
  3744     0264  00C0               	movwf	___fldiv@b+2
  3745     0265  3000               	movlw	0
  3746     0266  00BF               	movwf	___fldiv@b+1
  3747     0267  3000               	movlw	0
  3748     0268  00BE               	movwf	___fldiv@b
  3749     0269  3080               	movlw	128
  3750     026A  04C0               	iorwf	___fldiv@b+2,f
  3751     026B  307F               	movlw	127
  3752     026C  04C1               	iorwf	___fldiv@b+3,f
  3753     026D                     l2151:
  3754     026D  084B               	movf	___fldiv@sign,w
  3755     026E  00C2               	movwf	??___fldiv
  3756     026F  0842               	movf	??___fldiv,w
  3757     0270  04C1               	iorwf	___fldiv@b+3,f
  3758     0271                     l2153:
  3759     0271  0841               	movf	___fldiv@b+3,w
  3760     0272  00BD               	movwf	?___fldiv+3
  3761     0273  0840               	movf	___fldiv@b+2,w
  3762     0274  00BC               	movwf	?___fldiv+2
  3763     0275  083F               	movf	___fldiv@b+1,w
  3764     0276  00BB               	movwf	?___fldiv+1
  3765     0277  083E               	movf	___fldiv@b,w
  3766     0278  00BA               	movwf	?___fldiv
  3767     0279  2BB1               	goto	l686
  3768     027A                     l2157:
  3769     027A  0852               	movf	___fldiv@bexp,w
  3770     027B  1D03               	btfss	3,2
  3771     027C  2A7E               	goto	u2651
  3772     027D  2A7F               	goto	u2650
  3773     027E                     u2651:
  3774     027E  2A88               	goto	l2163
  3775     027F                     u2650:
  3776     027F                     l2159:
  3777     027F  3000               	movlw	0
  3778     0280  00BD               	movwf	?___fldiv+3
  3779     0281  3000               	movlw	0
  3780     0282  00BC               	movwf	?___fldiv+2
  3781     0283  3000               	movlw	0
  3782     0284  00BB               	movwf	?___fldiv+1
  3783     0285  3000               	movlw	0
  3784     0286  00BA               	movwf	?___fldiv
  3785     0287  2BB1               	goto	l686
  3786     0288                     l2163:
  3787     0288  0852               	movf	___fldiv@bexp,w
  3788     0289  00C2               	movwf	??___fldiv
  3789     028A  01C3               	clrf	??___fldiv+1
  3790     028B  0843               	movf	??___fldiv+1,w
  3791     028C  00C5               	movwf	??___fldiv+3
  3792     028D  0853               	movf	___fldiv@aexp,w
  3793     028E  0242               	subwf	??___fldiv,w
  3794     028F  00C4               	movwf	??___fldiv+2
  3795     0290  1C03               	skipc
  3796     0291  03C5               	decf	??___fldiv+3,f
  3797     0292  0844               	movf	??___fldiv+2,w
  3798     0293  3E7F               	addlw	127
  3799     0294  00CC               	movwf	___fldiv@new_exp
  3800     0295  3000               	movlw	0
  3801     0296  3D45               	addwfc	??___fldiv+3,w
  3802     0297  00CD               	movwf	___fldiv@new_exp+1
  3803     0298                     l2165:
  3804     0298  0841               	movf	___fldiv@b+3,w
  3805     0299  00CA               	movwf	___fldiv@rem+3
  3806     029A  0840               	movf	___fldiv@b+2,w
  3807     029B  00C9               	movwf	___fldiv@rem+2
  3808     029C  083F               	movf	___fldiv@b+1,w
  3809     029D  00C8               	movwf	___fldiv@rem+1
  3810     029E  083E               	movf	___fldiv@b,w
  3811     029F  00C7               	movwf	___fldiv@rem
  3812     02A0                     l2167:
  3813     02A0  3000               	movlw	0
  3814     02A1  00C1               	movwf	___fldiv@b+3
  3815     02A2  3000               	movlw	0
  3816     02A3  00C0               	movwf	___fldiv@b+2
  3817     02A4  3000               	movlw	0
  3818     02A5  00BF               	movwf	___fldiv@b+1
  3819     02A6  3000               	movlw	0
  3820     02A7  00BE               	movwf	___fldiv@b
  3821     02A8                     l2169:
  3822     02A8  3000               	movlw	0
  3823     02A9  00D1               	movwf	___fldiv@grs+3
  3824     02AA  3000               	movlw	0
  3825     02AB  00D0               	movwf	___fldiv@grs+2
  3826     02AC  3000               	movlw	0
  3827     02AD  00CF               	movwf	___fldiv@grs+1
  3828     02AE  3000               	movlw	0
  3829     02AF  00CE               	movwf	___fldiv@grs
  3830     02B0                     l2171:
  3831     02B0  01D3               	clrf	___fldiv@aexp
  3832     02B1  2AF0               	goto	l2191
  3833     02B2                     l2173:
  3834     02B2  0853               	movf	___fldiv@aexp,w
  3835     02B3  1903               	btfsc	3,2
  3836     02B4  2AB6               	goto	u2661
  3837     02B5  2AB7               	goto	u2660
  3838     02B6                     u2661:
  3839     02B6  2AD1               	goto	l2183
  3840     02B7                     u2660:
  3841     02B7                     l2175:
  3842     02B7  3001               	movlw	1
  3843     02B8                     u2675:
  3844     02B8  35C7               	lslf	___fldiv@rem,f
  3845     02B9  0DC8               	rlf	___fldiv@rem+1,f
  3846     02BA  0DC9               	rlf	___fldiv@rem+2,f
  3847     02BB  0DCA               	rlf	___fldiv@rem+3,f
  3848     02BC  0B89               	decfsz	9,f
  3849     02BD  2AB8               	goto	u2675
  3850     02BE  3001               	movlw	1
  3851     02BF                     u2685:
  3852     02BF  35BE               	lslf	___fldiv@b,f
  3853     02C0  0DBF               	rlf	___fldiv@b+1,f
  3854     02C1  0DC0               	rlf	___fldiv@b+2,f
  3855     02C2  0DC1               	rlf	___fldiv@b+3,f
  3856     02C3  0B89               	decfsz	9,f
  3857     02C4  2ABF               	goto	u2685
  3858     02C5                     l2177:
  3859     02C5  1FD1               	btfss	___fldiv@grs+3,7
  3860     02C6  2AC8               	goto	u2691
  3861     02C7  2AC9               	goto	u2690
  3862     02C8                     u2691:
  3863     02C8  2ACA               	goto	l2181
  3864     02C9                     u2690:
  3865     02C9                     l2179:
  3866     02C9  143E               	bsf	___fldiv@b,0
  3867     02CA                     l2181:
  3868     02CA  3001               	movlw	1
  3869     02CB                     u2705:
  3870     02CB  35CE               	lslf	___fldiv@grs,f
  3871     02CC  0DCF               	rlf	___fldiv@grs+1,f
  3872     02CD  0DD0               	rlf	___fldiv@grs+2,f
  3873     02CE  0DD1               	rlf	___fldiv@grs+3,f
  3874     02CF  0B89               	decfsz	9,f
  3875     02D0  2ACB               	goto	u2705
  3876     02D1                     l2183:
  3877     02D1  083D               	movf	___fldiv@a+3,w
  3878     02D2  024A               	subwf	___fldiv@rem+3,w
  3879     02D3  1D03               	skipz
  3880     02D4  2ADF               	goto	u2715
  3881     02D5  083C               	movf	___fldiv@a+2,w
  3882     02D6  0249               	subwf	___fldiv@rem+2,w
  3883     02D7  1D03               	skipz
  3884     02D8  2ADF               	goto	u2715
  3885     02D9  083B               	movf	___fldiv@a+1,w
  3886     02DA  0248               	subwf	___fldiv@rem+1,w
  3887     02DB  1D03               	skipz
  3888     02DC  2ADF               	goto	u2715
  3889     02DD  083A               	movf	___fldiv@a,w
  3890     02DE  0247               	subwf	___fldiv@rem,w
  3891     02DF                     u2715:
  3892     02DF  1C03               	skipc
  3893     02E0  2AE2               	goto	u2711
  3894     02E1  2AE3               	goto	u2710
  3895     02E2                     u2711:
  3896     02E2  2AEC               	goto	l2189
  3897     02E3                     u2710:
  3898     02E3                     l2185:
  3899     02E3  1751               	bsf	___fldiv@grs+3,6
  3900     02E4                     l2187:
  3901     02E4  083A               	movf	___fldiv@a,w
  3902     02E5  02C7               	subwf	___fldiv@rem,f
  3903     02E6  083B               	movf	___fldiv@a+1,w
  3904     02E7  3BC8               	subwfb	___fldiv@rem+1,f
  3905     02E8  083C               	movf	___fldiv@a+2,w
  3906     02E9  3BC9               	subwfb	___fldiv@rem+2,f
  3907     02EA  083D               	movf	___fldiv@a+3,w
  3908     02EB  3BCA               	subwfb	___fldiv@rem+3,f
  3909     02EC                     l2189:
  3910     02EC  3001               	movlw	1
  3911     02ED  00C2               	movwf	??___fldiv
  3912     02EE  0842               	movf	??___fldiv,w
  3913     02EF  07D3               	addwf	___fldiv@aexp,f
  3914     02F0                     l2191:
  3915     02F0  301A               	movlw	26
  3916     02F1  0253               	subwf	___fldiv@aexp,w
  3917     02F2  1C03               	skipc
  3918     02F3  2AF5               	goto	u2721
  3919     02F4  2AF6               	goto	u2720
  3920     02F5                     u2721:
  3921     02F5  2AB2               	goto	l2173
  3922     02F6                     u2720:
  3923     02F6                     l2193:
  3924     02F6  084A               	movf	___fldiv@rem+3,w
  3925     02F7  0449               	iorwf	___fldiv@rem+2,w
  3926     02F8  0448               	iorwf	___fldiv@rem+1,w
  3927     02F9  0447               	iorwf	___fldiv@rem,w
  3928     02FA  1903               	skipnz
  3929     02FB  2AFD               	goto	u2731
  3930     02FC  2AFE               	goto	u2730
  3931     02FD                     u2731:
  3932     02FD  2B17               	goto	l2207
  3933     02FE                     u2730:
  3934     02FE                     l2195:
  3935     02FE  144E               	bsf	___fldiv@grs,0
  3936     02FF  2B17               	goto	l2207
  3937     0300                     l2197:
  3938     0300  3001               	movlw	1
  3939     0301                     u2745:
  3940     0301  35BE               	lslf	___fldiv@b,f
  3941     0302  0DBF               	rlf	___fldiv@b+1,f
  3942     0303  0DC0               	rlf	___fldiv@b+2,f
  3943     0304  0DC1               	rlf	___fldiv@b+3,f
  3944     0305  0B89               	decfsz	9,f
  3945     0306  2B01               	goto	u2745
  3946     0307                     l2199:
  3947     0307  1FD1               	btfss	___fldiv@grs+3,7
  3948     0308  2B0A               	goto	u2751
  3949     0309  2B0B               	goto	u2750
  3950     030A                     u2751:
  3951     030A  2B0C               	goto	l2203
  3952     030B                     u2750:
  3953     030B                     l2201:
  3954     030B  143E               	bsf	___fldiv@b,0
  3955     030C                     l2203:
  3956     030C  3001               	movlw	1
  3957     030D                     u2765:
  3958     030D  35CE               	lslf	___fldiv@grs,f
  3959     030E  0DCF               	rlf	___fldiv@grs+1,f
  3960     030F  0DD0               	rlf	___fldiv@grs+2,f
  3961     0310  0DD1               	rlf	___fldiv@grs+3,f
  3962     0311  0B89               	decfsz	9,f
  3963     0312  2B0D               	goto	u2765
  3964     0313                     l2205:
  3965     0313  30FF               	movlw	255
  3966     0314  07CC               	addwf	___fldiv@new_exp,f
  3967     0315  30FF               	movlw	255
  3968     0316  3DCD               	addwfc	___fldiv@new_exp+1,f
  3969     0317                     l2207:
  3970     0317  1FC0               	btfss	___fldiv@b+2,7
  3971     0318  2B1A               	goto	u2771
  3972     0319  2B1B               	goto	u2770
  3973     031A                     u2771:
  3974     031A  2B00               	goto	l2197
  3975     031B                     u2770:
  3976     031B                     l2209:
  3977     031B  01D3               	clrf	___fldiv@aexp
  3978     031C                     l2211:
  3979     031C  1FD1               	btfss	___fldiv@grs+3,7
  3980     031D  2B1F               	goto	u2781
  3981     031E  2B20               	goto	u2780
  3982     031F                     u2781:
  3983     031F  2B3C               	goto	l2219
  3984     0320                     u2780:
  3985     0320                     l2213:
  3986     0320  30FF               	movlw	255
  3987     0321  054E               	andwf	___fldiv@grs,w
  3988     0322  00C2               	movwf	??___fldiv
  3989     0323  30FF               	movlw	255
  3990     0324  054F               	andwf	___fldiv@grs+1,w
  3991     0325  00C3               	movwf	??___fldiv+1
  3992     0326  30FF               	movlw	255
  3993     0327  0550               	andwf	___fldiv@grs+2,w
  3994     0328  00C4               	movwf	??___fldiv+2
  3995     0329  307F               	movlw	127
  3996     032A  0551               	andwf	___fldiv@grs+3,w
  3997     032B  00C5               	movwf	??___fldiv+3
  3998     032C  0845               	movf	??___fldiv+3,w
  3999     032D  0444               	iorwf	??___fldiv+2,w
  4000     032E  0443               	iorwf	??___fldiv+1,w
  4001     032F  0442               	iorwf	??___fldiv,w
  4002     0330  1903               	skipnz
  4003     0331  2B33               	goto	u2791
  4004     0332  2B34               	goto	u2790
  4005     0333                     u2791:
  4006     0333  2B37               	goto	l700
  4007     0334                     u2790:
  4008     0334                     l2215:
  4009     0334  01D3               	clrf	___fldiv@aexp
  4010     0335  0AD3               	incf	___fldiv@aexp,f
  4011     0336  2B3C               	goto	l2219
  4012     0337                     l700:
  4013     0337  1C3E               	btfss	___fldiv@b,0
  4014     0338  2B3A               	goto	u2801
  4015     0339  2B3B               	goto	u2800
  4016     033A                     u2801:
  4017     033A  2B3C               	goto	l2219
  4018     033B                     u2800:
  4019     033B  2B34               	goto	l2215
  4020     033C                     l2219:
  4021     033C  0853               	movf	___fldiv@aexp,w
  4022     033D  1903               	btfsc	3,2
  4023     033E  2B40               	goto	u2811
  4024     033F  2B41               	goto	u2810
  4025     0340                     u2811:
  4026     0340  2B69               	goto	l2229
  4027     0341                     u2810:
  4028     0341                     l2221:
  4029     0341  3001               	movlw	1
  4030     0342  07BE               	addwf	___fldiv@b,f
  4031     0343  3000               	movlw	0
  4032     0344  3DBF               	addwfc	___fldiv@b+1,f
  4033     0345  3000               	movlw	0
  4034     0346  3DC0               	addwfc	___fldiv@b+2,f
  4035     0347  3000               	movlw	0
  4036     0348  3DC1               	addwfc	___fldiv@b+3,f
  4037     0349                     l2223:
  4038     0349  1C41               	btfss	___fldiv@b+3,0
  4039     034A  2B4C               	goto	u2821
  4040     034B  2B4D               	goto	u2820
  4041     034C                     u2821:
  4042     034C  2B69               	goto	l2229
  4043     034D                     u2820:
  4044     034D                     l2225:
  4045     034D  083E               	movf	___fldiv@b,w
  4046     034E  00C2               	movwf	??___fldiv
  4047     034F  083F               	movf	___fldiv@b+1,w
  4048     0350  00C3               	movwf	??___fldiv+1
  4049     0351  0840               	movf	___fldiv@b+2,w
  4050     0352  00C4               	movwf	??___fldiv+2
  4051     0353  0841               	movf	___fldiv@b+3,w
  4052     0354  00C5               	movwf	??___fldiv+3
  4053     0355  3001               	movlw	1
  4054     0356  00C6               	movwf	??___fldiv+4
  4055     0357                     u2835:
  4056     0357  37C5               	asrf	??___fldiv+3,f
  4057     0358  0CC4               	rrf	??___fldiv+2,f
  4058     0359  0CC3               	rrf	??___fldiv+1,f
  4059     035A  0CC2               	rrf	??___fldiv,f
  4060     035B                     u2830:
  4061     035B  0BC6               	decfsz	??___fldiv+4,f
  4062     035C  2B57               	goto	u2835
  4063     035D  0845               	movf	??___fldiv+3,w
  4064     035E  00C1               	movwf	___fldiv@b+3
  4065     035F  0844               	movf	??___fldiv+2,w
  4066     0360  00C0               	movwf	___fldiv@b+2
  4067     0361  0843               	movf	??___fldiv+1,w
  4068     0362  00BF               	movwf	___fldiv@b+1
  4069     0363  0842               	movf	??___fldiv,w
  4070     0364  00BE               	movwf	___fldiv@b
  4071     0365                     l2227:
  4072     0365  3001               	movlw	1
  4073     0366  07CC               	addwf	___fldiv@new_exp,f
  4074     0367  3000               	movlw	0
  4075     0368  3DCD               	addwfc	___fldiv@new_exp+1,f
  4076     0369                     l2229:
  4077     0369  084D               	movf	___fldiv@new_exp+1,w
  4078     036A  3A80               	xorlw	128
  4079     036B  00C2               	movwf	??___fldiv
  4080     036C  3080               	movlw	128
  4081     036D  0242               	subwf	??___fldiv,w
  4082     036E  1D03               	skipz
  4083     036F  2B72               	goto	u2845
  4084     0370  30FF               	movlw	255
  4085     0371  024C               	subwf	___fldiv@new_exp,w
  4086     0372                     u2845:
  4087     0372  1C03               	skipc
  4088     0373  2B75               	goto	u2841
  4089     0374  2B76               	goto	u2840
  4090     0375                     u2841:
  4091     0375  2B83               	goto	l705
  4092     0376                     u2840:
  4093     0376                     l2231:
  4094     0376  30FF               	movlw	255
  4095     0377  0020               	movlb	0	; select bank0
  4096     0378  00CC               	movwf	___fldiv@new_exp
  4097     0379  3000               	movlw	0
  4098     037A  00CD               	movwf	___fldiv@new_exp+1
  4099     037B  3000               	movlw	0
  4100     037C  00C1               	movwf	___fldiv@b+3
  4101     037D  3000               	movlw	0
  4102     037E  00C0               	movwf	___fldiv@b+2
  4103     037F  3000               	movlw	0
  4104     0380  00BF               	movwf	___fldiv@b+1
  4105     0381  3000               	movlw	0
  4106     0382  00BE               	movwf	___fldiv@b
  4107     0383                     l705:
  4108     0383  0020               	movlb	0	; select bank0
  4109     0384  084D               	movf	___fldiv@new_exp+1,w
  4110     0385  3A80               	xorlw	128
  4111     0386  00C2               	movwf	??___fldiv
  4112     0387  3080               	movlw	128
  4113     0388  0242               	subwf	??___fldiv,w
  4114     0389  1D03               	skipz
  4115     038A  2B8D               	goto	u2855
  4116     038B  3001               	movlw	1
  4117     038C  024C               	subwf	___fldiv@new_exp,w
  4118     038D                     u2855:
  4119     038D  1803               	skipnc
  4120     038E  2B90               	goto	u2851
  4121     038F  2B91               	goto	u2850
  4122     0390                     u2851:
  4123     0390  2B9D               	goto	l706
  4124     0391                     u2850:
  4125     0391                     l2233:
  4126     0391  0020               	movlb	0	; select bank0
  4127     0392  01CC               	clrf	___fldiv@new_exp
  4128     0393  01CD               	clrf	___fldiv@new_exp+1
  4129     0394                     l2235:
  4130     0394  3000               	movlw	0
  4131     0395  00C1               	movwf	___fldiv@b+3
  4132     0396  3000               	movlw	0
  4133     0397  00C0               	movwf	___fldiv@b+2
  4134     0398  3000               	movlw	0
  4135     0399  00BF               	movwf	___fldiv@b+1
  4136     039A  3000               	movlw	0
  4137     039B  00BE               	movwf	___fldiv@b
  4138     039C                     l2237:
  4139     039C  01CB               	clrf	___fldiv@sign
  4140     039D                     l706:
  4141     039D  0020               	movlb	0	; select bank0
  4142     039E  084C               	movf	___fldiv@new_exp,w
  4143     039F  00D2               	movwf	___fldiv@bexp
  4144     03A0                     l2239:
  4145     03A0  1C52               	btfss	___fldiv@bexp,0
  4146     03A1  2BA3               	goto	u2861
  4147     03A2  2BA4               	goto	u2860
  4148     03A3                     u2861:
  4149     03A3  2BA6               	goto	l2243
  4150     03A4                     u2860:
  4151     03A4                     l2241:
  4152     03A4  17C0               	bsf	___fldiv@b+2,7
  4153     03A5  2BAA               	goto	l708
  4154     03A6                     l2243:
  4155     03A6  307F               	movlw	127
  4156     03A7  00C2               	movwf	??___fldiv
  4157     03A8  0842               	movf	??___fldiv,w
  4158     03A9  05C0               	andwf	___fldiv@b+2,f
  4159     03AA                     l708:
  4160     03AA  3652               	lsrf	___fldiv@bexp,w
  4161     03AB  00C1               	movwf	___fldiv@b+3
  4162     03AC  084B               	movf	___fldiv@sign,w
  4163     03AD  00C2               	movwf	??___fldiv
  4164     03AE  0842               	movf	??___fldiv,w
  4165     03AF  04C1               	iorwf	___fldiv@b+3,f
  4166     03B0  2A71               	goto	l2153
  4167     03B1                     l686:
  4168     03B1  0008               	return
  4169     03B2                     __end_of___fldiv:
  4170                           
  4171                           	psect	text10
  4172     03B2                     __ptext10:	
  4173 ;; *************** function ___fladd *****************
  4174 ;; Defined at:
  4175 ;;		line 10 in file "C:\XC8\pic\sources\c99\common\sprcadd.c"
  4176 ;; Parameters:    Size  Location     Type
  4177 ;;  b               4   52[BANK0 ] unsigned char 
  4178 ;;  a               4   56[BANK0 ] unsigned char 
  4179 ;; Auto vars:     Size  Location     Type
  4180 ;;  grs             1   71[BANK0 ] unsigned char 
  4181 ;;  bexp            1   70[BANK0 ] unsigned char 
  4182 ;;  aexp            1   69[BANK0 ] unsigned char 
  4183 ;;  signs           1   68[BANK0 ] unsigned char 
  4184 ;; Return value:  Size  Location     Type
  4185 ;;                  4   52[BANK0 ] unsigned char 
  4186 ;; Registers used:
  4187 ;;		wreg, status,2, status,0
  4188 ;; Tracked objects:
  4189 ;;		On entry : 0/0
  4190 ;;		On exit  : 0/0
  4191 ;;		Unchanged: 0/0
  4192 ;; Data sizes:     COMMON   BANK0   BANK1   BANK2
  4193 ;;      Params:         0       8       0       0
  4194 ;;      Locals:         0       4       0       0
  4195 ;;      Temps:          0       8       0       0
  4196 ;;      Totals:         0      20       0       0
  4197 ;;Total ram usage:       20 bytes
  4198 ;; Hardware stack levels used: 1
  4199 ;; This function calls:
  4200 ;;		Nothing
  4201 ;; This function is called by:
  4202 ;;		_GXHT30_read_result
  4203 ;; This function uses a non-reentrant model
  4204 ;;
  4205                           
  4206     03B2                     ___fladd:	
  4207                           ;psect for function ___fladd
  4208                           
  4209     03B2                     l1915:	
  4210                           ;incstack = 0
  4211                           ; Regs used in ___fladd: [wreg+status,2+status,0]
  4212                           
  4213     03B2  0020               	movlb	0	; select bank0
  4214     03B3  0857               	movf	___fladd@b+3,w
  4215     03B4  3980               	andlw	128
  4216     03B5  00E4               	movwf	___fladd@signs
  4217     03B6                     l1917:
  4218     03B6  3557               	lslf	___fladd@b+3,w
  4219     03B7  00E6               	movwf	___fladd@bexp
  4220     03B8                     l1919:
  4221     03B8  1FD6               	btfss	___fladd@b+2,7
  4222     03B9  2BBB               	goto	u2151
  4223     03BA  2BBC               	goto	u2150
  4224     03BB                     u2151:
  4225     03BB  2BBD               	goto	l1923
  4226     03BC                     u2150:
  4227     03BC                     l1921:
  4228     03BC  1466               	bsf	___fladd@bexp,0
  4229     03BD                     l1923:
  4230     03BD  0866               	movf	___fladd@bexp,w
  4231     03BE  1903               	btfsc	3,2
  4232     03BF  2BC1               	goto	u2161
  4233     03C0  2BC2               	goto	u2160
  4234     03C1                     u2161:
  4235     03C1  2BD2               	goto	l1933
  4236     03C2                     u2160:
  4237     03C2                     l1925:
  4238     03C2  0A66               	incf	___fladd@bexp,w
  4239     03C3  1D03               	btfss	3,2
  4240     03C4  2BC6               	goto	u2171
  4241     03C5  2BC7               	goto	u2170
  4242     03C6                     u2171:
  4243     03C6  2BCF               	goto	l1929
  4244     03C7                     u2170:
  4245     03C7                     l1927:
  4246     03C7  3000               	movlw	0
  4247     03C8  00D7               	movwf	___fladd@b+3
  4248     03C9  3000               	movlw	0
  4249     03CA  00D6               	movwf	___fladd@b+2
  4250     03CB  3000               	movlw	0
  4251     03CC  00D5               	movwf	___fladd@b+1
  4252     03CD  3000               	movlw	0
  4253     03CE  00D4               	movwf	___fladd@b
  4254     03CF                     l1929:
  4255     03CF  17D6               	bsf	___fladd@b+2,7
  4256     03D0                     l1931:
  4257     03D0  01D7               	clrf	___fladd@b+3
  4258     03D1  2BDA               	goto	l1935
  4259     03D2                     l1933:
  4260     03D2  3000               	movlw	0
  4261     03D3  00D7               	movwf	___fladd@b+3
  4262     03D4  3000               	movlw	0
  4263     03D5  00D6               	movwf	___fladd@b+2
  4264     03D6  3000               	movlw	0
  4265     03D7  00D5               	movwf	___fladd@b+1
  4266     03D8  3000               	movlw	0
  4267     03D9  00D4               	movwf	___fladd@b
  4268     03DA                     l1935:
  4269     03DA  085B               	movf	___fladd@a+3,w
  4270     03DB  3980               	andlw	128
  4271     03DC  00E5               	movwf	___fladd@aexp
  4272     03DD                     l1937:
  4273     03DD  0865               	movf	___fladd@aexp,w
  4274     03DE  0664               	xorwf	___fladd@signs,w
  4275     03DF  1903               	skipnz
  4276     03E0  2BE2               	goto	u2181
  4277     03E1  2BE3               	goto	u2180
  4278     03E2                     u2181:
  4279     03E2  2BE4               	goto	l1941
  4280     03E3                     u2180:
  4281     03E3                     l1939:
  4282     03E3  1764               	bsf	___fladd@signs,6
  4283     03E4                     l1941:
  4284     03E4  355B               	lslf	___fladd@a+3,w
  4285     03E5  00E5               	movwf	___fladd@aexp
  4286     03E6                     l1943:
  4287     03E6  1FDA               	btfss	___fladd@a+2,7
  4288     03E7  2BE9               	goto	u2191
  4289     03E8  2BEA               	goto	u2190
  4290     03E9                     u2191:
  4291     03E9  2BEB               	goto	l1947
  4292     03EA                     u2190:
  4293     03EA                     l1945:
  4294     03EA  1465               	bsf	___fladd@aexp,0
  4295     03EB                     l1947:
  4296     03EB  0865               	movf	___fladd@aexp,w
  4297     03EC  1903               	btfsc	3,2
  4298     03ED  2BEF               	goto	u2201
  4299     03EE  2BF0               	goto	u2200
  4300     03EF                     u2201:
  4301     03EF  2C00               	goto	l1957
  4302     03F0                     u2200:
  4303     03F0                     l1949:
  4304     03F0  0A65               	incf	___fladd@aexp,w
  4305     03F1  1D03               	btfss	3,2
  4306     03F2  2BF4               	goto	u2211
  4307     03F3  2BF5               	goto	u2210
  4308     03F4                     u2211:
  4309     03F4  2BFD               	goto	l1953
  4310     03F5                     u2210:
  4311     03F5                     l1951:
  4312     03F5  3000               	movlw	0
  4313     03F6  00DB               	movwf	___fladd@a+3
  4314     03F7  3000               	movlw	0
  4315     03F8  00DA               	movwf	___fladd@a+2
  4316     03F9  3000               	movlw	0
  4317     03FA  00D9               	movwf	___fladd@a+1
  4318     03FB  3000               	movlw	0
  4319     03FC  00D8               	movwf	___fladd@a
  4320     03FD                     l1953:
  4321     03FD  17DA               	bsf	___fladd@a+2,7
  4322     03FE                     l1955:
  4323     03FE  01DB               	clrf	___fladd@a+3
  4324     03FF  2C08               	goto	l628
  4325     0400                     l1957:
  4326     0400  3000               	movlw	0
  4327     0401  00DB               	movwf	___fladd@a+3
  4328     0402  3000               	movlw	0
  4329     0403  00DA               	movwf	___fladd@a+2
  4330     0404  3000               	movlw	0
  4331     0405  00D9               	movwf	___fladd@a+1
  4332     0406  3000               	movlw	0
  4333     0407  00D8               	movwf	___fladd@a
  4334     0408                     l628:
  4335     0408  0866               	movf	___fladd@bexp,w
  4336     0409  0265               	subwf	___fladd@aexp,w
  4337     040A  1803               	skipnc
  4338     040B  2C0D               	goto	u2221
  4339     040C  2C0E               	goto	u2220
  4340     040D                     u2221:
  4341     040D  2C34               	goto	l1993
  4342     040E                     u2220:
  4343     040E                     l1959:
  4344     040E  1F64               	btfss	___fladd@signs,6
  4345     040F  2C11               	goto	u2231
  4346     0410  2C12               	goto	u2230
  4347     0411                     u2231:
  4348     0411  2C16               	goto	l1963
  4349     0412                     u2230:
  4350     0412                     l1961:
  4351     0412  3080               	movlw	128
  4352     0413  00DC               	movwf	??___fladd
  4353     0414  085C               	movf	??___fladd,w
  4354     0415  06E4               	xorwf	___fladd@signs,f
  4355     0416                     l1963:
  4356     0416  0866               	movf	___fladd@bexp,w
  4357     0417  00E7               	movwf	___fladd@grs
  4358     0418                     l1965:
  4359     0418  0865               	movf	___fladd@aexp,w
  4360     0419  00E6               	movwf	___fladd@bexp
  4361     041A                     l1967:
  4362     041A  0867               	movf	___fladd@grs,w
  4363     041B  00E5               	movwf	___fladd@aexp
  4364     041C                     l1969:
  4365     041C  0854               	movf	___fladd@b,w
  4366     041D  00E7               	movwf	___fladd@grs
  4367     041E                     l1971:
  4368     041E  0858               	movf	___fladd@a,w
  4369     041F  00D4               	movwf	___fladd@b
  4370     0420                     l1973:
  4371     0420  0867               	movf	___fladd@grs,w
  4372     0421  00D8               	movwf	___fladd@a
  4373     0422                     l1975:
  4374     0422  0855               	movf	___fladd@b+1,w
  4375     0423  00E7               	movwf	___fladd@grs
  4376     0424                     l1977:
  4377     0424  0859               	movf	___fladd@a+1,w
  4378     0425  00D5               	movwf	___fladd@b+1
  4379     0426                     l1979:
  4380     0426  0867               	movf	___fladd@grs,w
  4381     0427  00D9               	movwf	___fladd@a+1
  4382     0428                     l1981:
  4383     0428  0856               	movf	___fladd@b+2,w
  4384     0429  00E7               	movwf	___fladd@grs
  4385     042A                     l1983:
  4386     042A  085A               	movf	___fladd@a+2,w
  4387     042B  00D6               	movwf	___fladd@b+2
  4388     042C                     l1985:
  4389     042C  0867               	movf	___fladd@grs,w
  4390     042D  00DA               	movwf	___fladd@a+2
  4391     042E                     l1987:
  4392     042E  0857               	movf	___fladd@b+3,w
  4393     042F  00E7               	movwf	___fladd@grs
  4394     0430                     l1989:
  4395     0430  085B               	movf	___fladd@a+3,w
  4396     0431  00D7               	movwf	___fladd@b+3
  4397     0432                     l1991:
  4398     0432  0867               	movf	___fladd@grs,w
  4399     0433  00DB               	movwf	___fladd@a+3
  4400     0434                     l1993:
  4401     0434  01E7               	clrf	___fladd@grs
  4402     0435                     l1995:
  4403     0435  0865               	movf	___fladd@aexp,w
  4404     0436  00DC               	movwf	??___fladd
  4405     0437  01DD               	clrf	??___fladd+1
  4406     0438  085D               	movf	??___fladd+1,w
  4407     0439  00DF               	movwf	??___fladd+3
  4408     043A  0866               	movf	___fladd@bexp,w
  4409     043B  025C               	subwf	??___fladd,w
  4410     043C  00DE               	movwf	??___fladd+2
  4411     043D  1C03               	skipc
  4412     043E  03DF               	decf	??___fladd+3,f
  4413     043F  085F               	movf	??___fladd+3,w
  4414     0440  3A80               	xorlw	128
  4415     0441  00E0               	movwf	??___fladd+4
  4416     0442  3080               	movlw	128
  4417     0443  0260               	subwf	??___fladd+4,w
  4418     0444  1D03               	skipz
  4419     0445  2C48               	goto	u2245
  4420     0446  301A               	movlw	26
  4421     0447  025E               	subwf	??___fladd+2,w
  4422     0448                     u2245:
  4423     0448  1C03               	skipc
  4424     0449  2C4B               	goto	u2241
  4425     044A  2C4C               	goto	u2240
  4426     044B                     u2241:
  4427     044B  2C7E               	goto	l2011
  4428     044C                     u2240:
  4429     044C                     l1997:
  4430     044C  0020               	movlb	0	; select bank0
  4431     044D  0857               	movf	___fladd@b+3,w
  4432     044E  0456               	iorwf	___fladd@b+2,w
  4433     044F  0455               	iorwf	___fladd@b+1,w
  4434     0450  0454               	iorwf	___fladd@b,w
  4435     0451  1D03               	skipz
  4436     0452  2C54               	goto	u2251
  4437     0453  2C56               	goto	u2250
  4438     0454                     u2251:
  4439     0454  3001               	movlw	1
  4440     0455  2C57               	goto	u2260
  4441     0456                     u2250:
  4442     0456  3000               	movlw	0
  4443     0457                     u2260:
  4444     0457  00E7               	movwf	___fladd@grs
  4445     0458  3000               	movlw	0
  4446     0459  00D7               	movwf	___fladd@b+3
  4447     045A  3000               	movlw	0
  4448     045B  00D6               	movwf	___fladd@b+2
  4449     045C  3000               	movlw	0
  4450     045D  00D5               	movwf	___fladd@b+1
  4451     045E  3000               	movlw	0
  4452     045F  00D4               	movwf	___fladd@b
  4453     0460  0865               	movf	___fladd@aexp,w
  4454     0461  00E6               	movwf	___fladd@bexp
  4455     0462  2C85               	goto	l632
  4456     0463                     l634:
  4457     0463  1C67               	btfss	___fladd@grs,0
  4458     0464  2C66               	goto	u2271
  4459     0465  2C67               	goto	u2270
  4460     0466                     u2271:
  4461     0466  2C6B               	goto	l2001
  4462     0467                     u2270:
  4463     0467                     l1999:
  4464     0467  3667               	lsrf	___fladd@grs,w
  4465     0468  3801               	iorlw	1
  4466     0469  00E7               	movwf	___fladd@grs
  4467     046A  2C6D               	goto	l2003
  4468     046B                     l2001:
  4469     046B  1003               	clrc
  4470     046C  0CE7               	rrf	___fladd@grs,f
  4471     046D                     l2003:
  4472     046D  1C54               	btfss	___fladd@b,0
  4473     046E  2C70               	goto	u2281
  4474     046F  2C71               	goto	u2280
  4475     0470                     u2281:
  4476     0470  2C72               	goto	l2007
  4477     0471                     u2280:
  4478     0471                     l2005:
  4479     0471  17E7               	bsf	___fladd@grs,7
  4480     0472                     l2007:
  4481     0472  3001               	movlw	1
  4482     0473  00DC               	movwf	??___fladd
  4483     0474                     u2295:
  4484     0474  37D7               	asrf	___fladd@b+3,f
  4485     0475  0CD6               	rrf	___fladd@b+2,f
  4486     0476  0CD5               	rrf	___fladd@b+1,f
  4487     0477  0CD4               	rrf	___fladd@b,f
  4488     0478  0BDC               	decfsz	??___fladd& (0+127),f
  4489     0479  2C74               	goto	u2295
  4490     047A                     l2009:
  4491     047A  3001               	movlw	1
  4492     047B  00DC               	movwf	??___fladd
  4493     047C  085C               	movf	??___fladd,w
  4494     047D  07E6               	addwf	___fladd@bexp,f
  4495     047E                     l2011:
  4496     047E  0020               	movlb	0	; select bank0
  4497     047F  0865               	movf	___fladd@aexp,w
  4498     0480  0266               	subwf	___fladd@bexp,w
  4499     0481  1C03               	skipc
  4500     0482  2C84               	goto	u2301
  4501     0483  2C85               	goto	u2300
  4502     0484                     u2301:
  4503     0484  2C63               	goto	l634
  4504     0485                     u2300:
  4505     0485                     l632:
  4506     0485  1B64               	btfsc	___fladd@signs,6
  4507     0486  2C88               	goto	u2311
  4508     0487  2C89               	goto	u2310
  4509     0488                     u2311:
  4510     0488  2CBF               	goto	l2037
  4511     0489                     u2310:
  4512     0489                     l2013:
  4513     0489  0866               	movf	___fladd@bexp,w
  4514     048A  1D03               	btfss	3,2
  4515     048B  2C8D               	goto	u2321
  4516     048C  2C8E               	goto	u2320
  4517     048D                     u2321:
  4518     048D  2C97               	goto	l2019
  4519     048E                     u2320:
  4520     048E                     l2015:
  4521     048E  3000               	movlw	0
  4522     048F  00D7               	movwf	?___fladd+3
  4523     0490  3000               	movlw	0
  4524     0491  00D6               	movwf	?___fladd+2
  4525     0492  3000               	movlw	0
  4526     0493  00D5               	movwf	?___fladd+1
  4527     0494  3000               	movlw	0
  4528     0495  00D4               	movwf	?___fladd
  4529     0496  2DB9               	goto	l641
  4530     0497                     l2019:
  4531     0497  0858               	movf	___fladd@a,w
  4532     0498  07D4               	addwf	___fladd@b,f
  4533     0499  0859               	movf	___fladd@a+1,w
  4534     049A  3DD5               	addwfc	___fladd@b+1,f
  4535     049B  085A               	movf	___fladd@a+2,w
  4536     049C  3DD6               	addwfc	___fladd@b+2,f
  4537     049D  085B               	movf	___fladd@a+3,w
  4538     049E  3DD7               	addwfc	___fladd@b+3,f
  4539     049F                     l2021:
  4540     049F  1C57               	btfss	___fladd@b+3,0
  4541     04A0  2CA2               	goto	u2331
  4542     04A1  2CA3               	goto	u2330
  4543     04A2                     u2331:
  4544     04A2  2D4B               	goto	l2071
  4545     04A3                     u2330:
  4546     04A3                     l2023:
  4547     04A3  1C67               	btfss	___fladd@grs,0
  4548     04A4  2CA6               	goto	u2341
  4549     04A5  2CA7               	goto	u2340
  4550     04A6                     u2341:
  4551     04A6  2CAB               	goto	l2027
  4552     04A7                     u2340:
  4553     04A7                     l2025:
  4554     04A7  3667               	lsrf	___fladd@grs,w
  4555     04A8  3801               	iorlw	1
  4556     04A9  00E7               	movwf	___fladd@grs
  4557     04AA  2CAD               	goto	l2029
  4558     04AB                     l2027:
  4559     04AB  1003               	clrc
  4560     04AC  0CE7               	rrf	___fladd@grs,f
  4561     04AD                     l2029:
  4562     04AD  1C54               	btfss	___fladd@b,0
  4563     04AE  2CB0               	goto	u2351
  4564     04AF  2CB1               	goto	u2350
  4565     04B0                     u2351:
  4566     04B0  2CB2               	goto	l2033
  4567     04B1                     u2350:
  4568     04B1                     l2031:
  4569     04B1  17E7               	bsf	___fladd@grs,7
  4570     04B2                     l2033:
  4571     04B2  3001               	movlw	1
  4572     04B3  00DC               	movwf	??___fladd
  4573     04B4                     u2365:
  4574     04B4  37D7               	asrf	___fladd@b+3,f
  4575     04B5  0CD6               	rrf	___fladd@b+2,f
  4576     04B6  0CD5               	rrf	___fladd@b+1,f
  4577     04B7  0CD4               	rrf	___fladd@b,f
  4578     04B8  0BDC               	decfsz	??___fladd& (0+127),f
  4579     04B9  2CB4               	goto	u2365
  4580     04BA                     l2035:
  4581     04BA  3001               	movlw	1
  4582     04BB  00DC               	movwf	??___fladd
  4583     04BC  085C               	movf	??___fladd,w
  4584     04BD  07E6               	addwf	___fladd@bexp,f
  4585     04BE  2D4B               	goto	l2071
  4586     04BF                     l2037:
  4587     04BF  0857               	movf	___fladd@b+3,w
  4588     04C0  3A80               	xorlw	128
  4589     04C1  00DC               	movwf	??___fladd
  4590     04C2  085B               	movf	___fladd@a+3,w
  4591     04C3  3A80               	xorlw	128
  4592     04C4  025C               	subwf	??___fladd,w
  4593     04C5  1D03               	skipz
  4594     04C6  2CD1               	goto	u2373
  4595     04C7  085A               	movf	___fladd@a+2,w
  4596     04C8  0256               	subwf	___fladd@b+2,w
  4597     04C9  1D03               	skipz
  4598     04CA  2CD1               	goto	u2373
  4599     04CB  0859               	movf	___fladd@a+1,w
  4600     04CC  0255               	subwf	___fladd@b+1,w
  4601     04CD  1D03               	skipz
  4602     04CE  2CD1               	goto	u2373
  4603     04CF  0858               	movf	___fladd@a,w
  4604     04D0  0254               	subwf	___fladd@b,w
  4605     04D1                     u2373:
  4606     04D1  1803               	skipnc
  4607     04D2  2CD4               	goto	u2371
  4608     04D3  2CD5               	goto	u2370
  4609     04D4                     u2371:
  4610     04D4  2D0D               	goto	l2047
  4611     04D5                     u2370:
  4612     04D5                     l2039:
  4613     04D5  30FF               	movlw	255
  4614     04D6  00DC               	movwf	??___fladd
  4615     04D7  30FF               	movlw	255
  4616     04D8  00DD               	movwf	??___fladd+1
  4617     04D9  30FF               	movlw	255
  4618     04DA  00DE               	movwf	??___fladd+2
  4619     04DB  30FF               	movlw	255
  4620     04DC  00DF               	movwf	??___fladd+3
  4621     04DD  0854               	movf	___fladd@b,w
  4622     04DE  0258               	subwf	___fladd@a,w
  4623     04DF  00E0               	movwf	??___fladd+4
  4624     04E0  0855               	movf	___fladd@b+1,w
  4625     04E1  3B59               	subwfb	___fladd@a+1,w
  4626     04E2  00E1               	movwf	??___fladd+5
  4627     04E3  0856               	movf	___fladd@b+2,w
  4628     04E4  3B5A               	subwfb	___fladd@a+2,w
  4629     04E5  00E2               	movwf	??___fladd+6
  4630     04E6  0857               	movf	___fladd@b+3,w
  4631     04E7  3B5B               	subwfb	___fladd@a+3,w
  4632     04E8  00E3               	movwf	??___fladd+7
  4633     04E9  0860               	movf	??___fladd+4,w
  4634     04EA  07DC               	addwf	??___fladd,f
  4635     04EB  0861               	movf	??___fladd+5,w
  4636     04EC  3DDD               	addwfc	??___fladd+1,f
  4637     04ED  0862               	movf	??___fladd+6,w
  4638     04EE  3DDE               	addwfc	??___fladd+2,f
  4639     04EF  0863               	movf	??___fladd+7,w
  4640     04F0  3DDF               	addwfc	??___fladd+3,f
  4641     04F1  085F               	movf	??___fladd+3,w
  4642     04F2  00D7               	movwf	___fladd@b+3
  4643     04F3  085E               	movf	??___fladd+2,w
  4644     04F4  00D6               	movwf	___fladd@b+2
  4645     04F5  085D               	movf	??___fladd+1,w
  4646     04F6  00D5               	movwf	___fladd@b+1
  4647     04F7  085C               	movf	??___fladd,w
  4648     04F8  00D4               	movwf	___fladd@b
  4649     04F9                     l2041:
  4650     04F9  3080               	movlw	128
  4651     04FA  00DC               	movwf	??___fladd
  4652     04FB  085C               	movf	??___fladd,w
  4653     04FC  06E4               	xorwf	___fladd@signs,f
  4654     04FD  09E7               	comf	___fladd@grs,f
  4655     04FE  0AE7               	incf	___fladd@grs,f
  4656     04FF                     l2043:
  4657     04FF  0867               	movf	___fladd@grs,w
  4658     0500  1D03               	btfss	3,2
  4659     0501  2D03               	goto	u2381
  4660     0502  2D04               	goto	u2380
  4661     0503                     u2381:
  4662     0503  2D15               	goto	l649
  4663     0504                     u2380:
  4664     0504                     l2045:
  4665     0504  3001               	movlw	1
  4666     0505  07D4               	addwf	___fladd@b,f
  4667     0506  3000               	movlw	0
  4668     0507  3DD5               	addwfc	___fladd@b+1,f
  4669     0508  3000               	movlw	0
  4670     0509  3DD6               	addwfc	___fladd@b+2,f
  4671     050A  3000               	movlw	0
  4672     050B  3DD7               	addwfc	___fladd@b+3,f
  4673     050C  2D15               	goto	l649
  4674     050D                     l2047:
  4675     050D  0858               	movf	___fladd@a,w
  4676     050E  02D4               	subwf	___fladd@b,f
  4677     050F  0859               	movf	___fladd@a+1,w
  4678     0510  3BD5               	subwfb	___fladd@b+1,f
  4679     0511  085A               	movf	___fladd@a+2,w
  4680     0512  3BD6               	subwfb	___fladd@b+2,f
  4681     0513  085B               	movf	___fladd@a+3,w
  4682     0514  3BD7               	subwfb	___fladd@b+3,f
  4683     0515                     l649:
  4684     0515  0857               	movf	___fladd@b+3,w
  4685     0516  0456               	iorwf	___fladd@b+2,w
  4686     0517  0455               	iorwf	___fladd@b+1,w
  4687     0518  0454               	iorwf	___fladd@b,w
  4688     0519  1D03               	skipz
  4689     051A  2D1C               	goto	u2391
  4690     051B  2D1D               	goto	u2390
  4691     051C                     u2391:
  4692     051C  2D47               	goto	l2069
  4693     051D                     u2390:
  4694     051D                     l2049:
  4695     051D  0867               	movf	___fladd@grs,w
  4696     051E  1D03               	btfss	3,2
  4697     051F  2D21               	goto	u2401
  4698     0520  2D22               	goto	u2400
  4699     0521                     u2401:
  4700     0521  2D47               	goto	l2069
  4701     0522                     u2400:
  4702     0522                     l2051:
  4703     0522  3000               	movlw	0
  4704     0523  00D7               	movwf	?___fladd+3
  4705     0524  3000               	movlw	0
  4706     0525  00D6               	movwf	?___fladd+2
  4707     0526  3000               	movlw	0
  4708     0527  00D5               	movwf	?___fladd+1
  4709     0528  3000               	movlw	0
  4710     0529  00D4               	movwf	?___fladd
  4711     052A  2DB9               	goto	l641
  4712     052B                     l2055:
  4713     052B  3001               	movlw	1
  4714     052C                     u2415:
  4715     052C  35D4               	lslf	___fladd@b,f
  4716     052D  0DD5               	rlf	___fladd@b+1,f
  4717     052E  0DD6               	rlf	___fladd@b+2,f
  4718     052F  0DD7               	rlf	___fladd@b+3,f
  4719     0530  0B89               	decfsz	9,f
  4720     0531  2D2C               	goto	u2415
  4721     0532                     l2057:
  4722     0532  1FE7               	btfss	___fladd@grs,7
  4723     0533  2D35               	goto	u2421
  4724     0534  2D36               	goto	u2420
  4725     0535                     u2421:
  4726     0535  2D37               	goto	l653
  4727     0536                     u2420:
  4728     0536                     l2059:
  4729     0536  1454               	bsf	___fladd@b,0
  4730     0537                     l653:
  4731     0537  1C67               	btfss	___fladd@grs,0
  4732     0538  2D3A               	goto	u2431
  4733     0539  2D3B               	goto	u2430
  4734     053A                     u2431:
  4735     053A  2D3E               	goto	l2063
  4736     053B                     u2430:
  4737     053B                     l2061:
  4738     053B  1403               	setc
  4739     053C  0DE7               	rlf	___fladd@grs,f
  4740     053D  2D40               	goto	l2065
  4741     053E                     l2063:
  4742     053E  1003               	clrc
  4743     053F  0DE7               	rlf	___fladd@grs,f
  4744     0540                     l2065:
  4745     0540  0866               	movf	___fladd@bexp,w
  4746     0541  1903               	btfsc	3,2
  4747     0542  2D44               	goto	u2441
  4748     0543  2D45               	goto	u2440
  4749     0544                     u2441:
  4750     0544  2D47               	goto	l2069
  4751     0545                     u2440:
  4752     0545                     l2067:
  4753     0545  3001               	movlw	1
  4754     0546  02E6               	subwf	___fladd@bexp,f
  4755     0547                     l2069:
  4756     0547  1FD6               	btfss	___fladd@b+2,7
  4757     0548  2D4A               	goto	u2451
  4758     0549  2D4B               	goto	u2450
  4759     054A                     u2451:
  4760     054A  2D2B               	goto	l2055
  4761     054B                     u2450:
  4762     054B                     l2071:
  4763     054B  01E5               	clrf	___fladd@aexp
  4764     054C                     l2073:
  4765     054C  1FE7               	btfss	___fladd@grs,7
  4766     054D  2D4F               	goto	u2461
  4767     054E  2D50               	goto	u2460
  4768     054F                     u2461:
  4769     054F  2D5E               	goto	l2081
  4770     0550                     u2460:
  4771     0550                     l2075:
  4772     0550  0867               	movf	___fladd@grs,w
  4773     0551  397F               	andlw	127
  4774     0552  1903               	btfsc	3,2
  4775     0553  2D55               	goto	u2471
  4776     0554  2D56               	goto	u2470
  4777     0555                     u2471:
  4778     0555  2D59               	goto	l659
  4779     0556                     u2470:
  4780     0556                     l2077:
  4781     0556  01E5               	clrf	___fladd@aexp
  4782     0557  0AE5               	incf	___fladd@aexp,f
  4783     0558  2D5E               	goto	l2081
  4784     0559                     l659:
  4785     0559  1C54               	btfss	___fladd@b,0
  4786     055A  2D5C               	goto	u2481
  4787     055B  2D5D               	goto	u2480
  4788     055C                     u2481:
  4789     055C  2D5E               	goto	l2081
  4790     055D                     u2480:
  4791     055D  2D56               	goto	l2077
  4792     055E                     l2081:
  4793     055E  0865               	movf	___fladd@aexp,w
  4794     055F  1903               	btfsc	3,2
  4795     0560  2D62               	goto	u2491
  4796     0561  2D63               	goto	u2490
  4797     0562                     u2491:
  4798     0562  2D90               	goto	l662
  4799     0563                     u2490:
  4800     0563                     l2083:
  4801     0563  3001               	movlw	1
  4802     0564  07D4               	addwf	___fladd@b,f
  4803     0565  3000               	movlw	0
  4804     0566  3DD5               	addwfc	___fladd@b+1,f
  4805     0567  3000               	movlw	0
  4806     0568  3DD6               	addwfc	___fladd@b+2,f
  4807     0569  3000               	movlw	0
  4808     056A  3DD7               	addwfc	___fladd@b+3,f
  4809     056B                     l2085:
  4810     056B  1C57               	btfss	___fladd@b+3,0
  4811     056C  2D6E               	goto	u2501
  4812     056D  2D6F               	goto	u2500
  4813     056E                     u2501:
  4814     056E  2D90               	goto	l662
  4815     056F                     u2500:
  4816     056F                     l2087:
  4817     056F  0854               	movf	___fladd@b,w
  4818     0570  00DC               	movwf	??___fladd
  4819     0571  0855               	movf	___fladd@b+1,w
  4820     0572  00DD               	movwf	??___fladd+1
  4821     0573  0856               	movf	___fladd@b+2,w
  4822     0574  00DE               	movwf	??___fladd+2
  4823     0575  0857               	movf	___fladd@b+3,w
  4824     0576  00DF               	movwf	??___fladd+3
  4825     0577  3001               	movlw	1
  4826     0578  00E0               	movwf	??___fladd+4
  4827     0579                     u2515:
  4828     0579  37DF               	asrf	??___fladd+3,f
  4829     057A  0CDE               	rrf	??___fladd+2,f
  4830     057B  0CDD               	rrf	??___fladd+1,f
  4831     057C  0CDC               	rrf	??___fladd,f
  4832     057D                     u2510:
  4833     057D  0BE0               	decfsz	??___fladd+4,f
  4834     057E  2D79               	goto	u2515
  4835     057F  085F               	movf	??___fladd+3,w
  4836     0580  00D7               	movwf	___fladd@b+3
  4837     0581  085E               	movf	??___fladd+2,w
  4838     0582  00D6               	movwf	___fladd@b+2
  4839     0583  085D               	movf	??___fladd+1,w
  4840     0584  00D5               	movwf	___fladd@b+1
  4841     0585  085C               	movf	??___fladd,w
  4842     0586  00D4               	movwf	___fladd@b
  4843     0587  0A66               	incf	___fladd@bexp,w
  4844     0588  1903               	btfsc	3,2
  4845     0589  2D8B               	goto	u2521
  4846     058A  2D8C               	goto	u2520
  4847     058B                     u2521:
  4848     058B  2D90               	goto	l662
  4849     058C                     u2520:
  4850     058C                     l2089:
  4851     058C  3001               	movlw	1
  4852     058D  00DC               	movwf	??___fladd
  4853     058E  085C               	movf	??___fladd,w
  4854     058F  07E6               	addwf	___fladd@bexp,f
  4855     0590                     l662:
  4856     0590  0A66               	incf	___fladd@bexp,w
  4857     0591  1903               	btfsc	3,2
  4858     0592  2D94               	goto	u2531
  4859     0593  2D95               	goto	u2530
  4860     0594                     u2531:
  4861     0594  2D9A               	goto	l2093
  4862     0595                     u2530:
  4863     0595                     l2091:
  4864     0595  0866               	movf	___fladd@bexp,w
  4865     0596  1D03               	btfss	3,2
  4866     0597  2D99               	goto	u2541
  4867     0598  2D9A               	goto	u2540
  4868     0599                     u2541:
  4869     0599  2DA8               	goto	l2099
  4870     059A                     u2540:
  4871     059A                     l2093:
  4872     059A  3000               	movlw	0
  4873     059B  00D7               	movwf	___fladd@b+3
  4874     059C  3000               	movlw	0
  4875     059D  00D6               	movwf	___fladd@b+2
  4876     059E  3000               	movlw	0
  4877     059F  00D5               	movwf	___fladd@b+1
  4878     05A0  3000               	movlw	0
  4879     05A1  00D4               	movwf	___fladd@b
  4880     05A2                     l2095:
  4881     05A2  0866               	movf	___fladd@bexp,w
  4882     05A3  1D03               	btfss	3,2
  4883     05A4  2DA6               	goto	u2551
  4884     05A5  2DA7               	goto	u2550
  4885     05A6                     u2551:
  4886     05A6  2DA8               	goto	l2099
  4887     05A7                     u2550:
  4888     05A7                     l2097:
  4889     05A7  01E4               	clrf	___fladd@signs
  4890     05A8                     l2099:
  4891     05A8  1C66               	btfss	___fladd@bexp,0
  4892     05A9  2DAB               	goto	u2561
  4893     05AA  2DAC               	goto	u2560
  4894     05AB                     u2561:
  4895     05AB  2DAE               	goto	l2103
  4896     05AC                     u2560:
  4897     05AC                     l2101:
  4898     05AC  17D6               	bsf	___fladd@b+2,7
  4899     05AD  2DB2               	goto	l670
  4900     05AE                     l2103:
  4901     05AE  307F               	movlw	127
  4902     05AF  00DC               	movwf	??___fladd
  4903     05B0  085C               	movf	??___fladd,w
  4904     05B1  05D6               	andwf	___fladd@b+2,f
  4905     05B2                     l670:
  4906     05B2  3666               	lsrf	___fladd@bexp,w
  4907     05B3  00D7               	movwf	___fladd@b+3
  4908     05B4                     l2105:
  4909     05B4  1FE4               	btfss	___fladd@signs,7
  4910     05B5  2DB7               	goto	u2571
  4911     05B6  2DB8               	goto	u2570
  4912     05B7                     u2571:
  4913     05B7  2DB9               	goto	l671
  4914     05B8                     u2570:
  4915     05B8                     l2107:
  4916     05B8  17D7               	bsf	___fladd@b+3,7
  4917     05B9                     l671:
  4918     05B9                     l641:
  4919     05B9  0008               	return
  4920     05BA                     __end_of___fladd:
  4921                           
  4922                           	psect	text11
  4923     0C1A                     __ptext11:	
  4924 ;; *************** function _IIC_WAck *****************
  4925 ;; Defined at:
  4926 ;;		line 80 in file "GXHT30.c"
  4927 ;; Parameters:    Size  Location     Type
  4928 ;;		None
  4929 ;; Auto vars:     Size  Location     Type
  4930 ;;  i               1    1[COMMON] unsigned char 
  4931 ;; Return value:  Size  Location     Type
  4932 ;;                  1    wreg      unsigned char 
  4933 ;; Registers used:
  4934 ;;		wreg, status,2, status,0, pclath, cstack
  4935 ;; Tracked objects:
  4936 ;;		On entry : 0/0
  4937 ;;		On exit  : 0/0
  4938 ;;		Unchanged: 0/0
  4939 ;; Data sizes:     COMMON   BANK0   BANK1   BANK2
  4940 ;;      Params:         0       0       0       0
  4941 ;;      Locals:         1       0       0       0
  4942 ;;      Temps:          1       0       0       0
  4943 ;;      Totals:         2       0       0       0
  4944 ;;Total ram usage:        2 bytes
  4945 ;; Hardware stack levels used: 1
  4946 ;; Hardware stack levels required when called: 1
  4947 ;; This function calls:
  4948 ;;		_IIC_Stop
  4949 ;; This function is called by:
  4950 ;;		_GXHT30_read_result
  4951 ;;		_GXHT30_write_cmd
  4952 ;; This function uses a non-reentrant model
  4953 ;;
  4954                           
  4955     0C1A                     _IIC_WAck:	
  4956                           ;psect for function _IIC_WAck
  4957                           
  4958     0C1A                     l1721:	
  4959                           ;incstack = 0
  4960                           ; Regs used in _IIC_WAck: [wreg+status,2+status,0+pclath+cstack]
  4961                           
  4962                           
  4963                           ;GXHT30.c: 82:  unsigned char i = 0;
  4964     0C1A  01F1               	clrf	IIC_WAck@i
  4965     0C1B                     l1723:
  4966                           
  4967                           ;GXHT30.c: 83:  TRISAbits.TRISA5 = 1;;
  4968     0C1B  0021               	movlb	1	; select bank1
  4969     0C1C  168C               	bsf	12,5	;volatile
  4970     0C1D                     l1725:
  4971                           
  4972                           ;GXHT30.c: 84:  PORTAbits.RA5 = 1;;
  4973     0C1D  0020               	movlb	0	; select bank0
  4974     0C1E  168C               	bsf	12,5	;volatile
  4975     0C1F                     l1727:
  4976                           
  4977                           ;GXHT30.c: 85:  PORTAbits.RA4 = 1;;
  4978     0C1F  160C               	bsf	12,4	;volatile
  4979                           
  4980                           ;GXHT30.c: 87:  while(PORTAbits.RA5)
  4981     0C20  2C36               	goto	l1741
  4982     0C21                     l1729:
  4983                           
  4984                           ;GXHT30.c: 88:  {;GXHT30.c: 89:   if(i >= 255)
  4985     0C21  0A71               	incf	IIC_WAck@i,w
  4986     0C22  1D03               	btfss	3,2
  4987     0C23  2C25               	goto	u1771
  4988     0C24  2C26               	goto	u1770
  4989     0C25                     u1771:
  4990     0C25  2C32               	goto	l1739
  4991     0C26                     u1770:
  4992     0C26                     l1731:
  4993                           
  4994                           ;GXHT30.c: 90:   {;GXHT30.c: 91:    IIC_Stop();
  4995     0C26  318B  23F5  318C   	fcall	_IIC_Stop
  4996     0C29                     l1733:
  4997                           
  4998                           ;GXHT30.c: 92:    _delay((unsigned long)((1)*(8000000/4000.0)));
  4999     0C29  3003               	movlw	3
  5000     0C2A  00F0               	movwf	??_IIC_WAck
  5001     0C2B  3098               	movlw	152
  5002     0C2C                     u3637:
  5003     0C2C  0B89               	decfsz	9,f
  5004     0C2D  2C2C               	goto	u3637
  5005     0C2E  0BF0               	decfsz	??_IIC_WAck,f
  5006     0C2F  2C2C               	goto	u3637
  5007     0C30                     l1735:
  5008                           
  5009                           ;GXHT30.c: 93:    return 1;
  5010     0C30  3001               	movlw	1
  5011     0C31  2C3C               	goto	l151
  5012     0C32                     l1739:
  5013                           
  5014                           ;GXHT30.c: 95:   i++;
  5015     0C32  3001               	movlw	1
  5016     0C33  00F0               	movwf	??_IIC_WAck
  5017     0C34  0870               	movf	??_IIC_WAck,w
  5018     0C35  07F1               	addwf	IIC_WAck@i,f
  5019     0C36                     l1741:
  5020                           
  5021                           ;GXHT30.c: 87:  while(PORTAbits.RA5)
  5022     0C36  1A8C               	btfsc	12,5	;volatile
  5023     0C37  2C39               	goto	u1781
  5024     0C38  2C3A               	goto	u1780
  5025     0C39                     u1781:
  5026     0C39  2C21               	goto	l1729
  5027     0C3A                     u1780:
  5028     0C3A                     l152:
  5029                           
  5030                           ;GXHT30.c: 98:  PORTAbits.RA4 = 0;;
  5031     0C3A  120C               	bcf	12,4	;volatile
  5032     0C3B                     l1743:
  5033                           
  5034                           ;GXHT30.c: 99:  return 0;
  5035     0C3B  3000               	movlw	0
  5036     0C3C                     l151:
  5037     0C3C  0008               	return
  5038     0C3D                     __end_of_IIC_WAck:
  5039                           
  5040                           	psect	text12
  5041     0BF5                     __ptext12:	
  5042 ;; *************** function _IIC_Stop *****************
  5043 ;; Defined at:
  5044 ;;		line 36 in file "GXHT30.c"
  5045 ;; Parameters:    Size  Location     Type
  5046 ;;		None
  5047 ;; Auto vars:     Size  Location     Type
  5048 ;;		None
  5049 ;; Return value:  Size  Location     Type
  5050 ;;                  1    wreg      void 
  5051 ;; Registers used:
  5052 ;;		None
  5053 ;; Tracked objects:
  5054 ;;		On entry : 0/0
  5055 ;;		On exit  : 0/0
  5056 ;;		Unchanged: 0/0
  5057 ;; Data sizes:     COMMON   BANK0   BANK1   BANK2
  5058 ;;      Params:         0       0       0       0
  5059 ;;      Locals:         0       0       0       0
  5060 ;;      Temps:          0       0       0       0
  5061 ;;      Totals:         0       0       0       0
  5062 ;;Total ram usage:        0 bytes
  5063 ;; Hardware stack levels used: 1
  5064 ;; This function calls:
  5065 ;;		Nothing
  5066 ;; This function is called by:
  5067 ;;		_IIC_WAck
  5068 ;;		_GXHT30_read_result
  5069 ;;		_GXHT30_write_cmd
  5070 ;; This function uses a non-reentrant model
  5071 ;;
  5072                           
  5073     0BF5                     _IIC_Stop:	
  5074                           ;psect for function _IIC_Stop
  5075                           
  5076     0BF5                     l1699:	
  5077                           ;incstack = 0
  5078                           ; Regs used in _IIC_Stop: []
  5079                           
  5080                           
  5081                           ;GXHT30.c: 38:  TRISAbits.TRISA5 = 0;;
  5082     0BF5  0021               	movlb	1	; select bank1
  5083     0BF6  128C               	bcf	12,5	;volatile
  5084                           
  5085                           ;GXHT30.c: 39:  PORTAbits.RA4 = 0;;
  5086     0BF7  0020               	movlb	0	; select bank0
  5087     0BF8  120C               	bcf	12,4	;volatile
  5088                           
  5089                           ;GXHT30.c: 41:  PORTAbits.RA5 = 0;;
  5090     0BF9  128C               	bcf	12,5	;volatile
  5091                           
  5092                           ;GXHT30.c: 42:  _delay((unsigned long)((1)*(8000000/4000000.0)));
  5093     0BFA  3200               	nop2	;2 cycle nop
  5094                           
  5095                           ;GXHT30.c: 43:  PORTAbits.RA4 = 1;;
  5096     0BFB  0020               	movlb	0	; select bank0
  5097     0BFC  160C               	bsf	12,4	;volatile
  5098                           
  5099                           ;GXHT30.c: 44:  _delay((unsigned long)((1)*(8000000/4000000.0)));
  5100     0BFD  3200               	nop2	;2 cycle nop
  5101                           
  5102                           ;GXHT30.c: 45:  PORTAbits.RA5 = 1;;
  5103     0BFE  0020               	movlb	0	; select bank0
  5104     0BFF  168C               	bsf	12,5	;volatile
  5105                           
  5106                           ;GXHT30.c: 46:  _delay((unsigned long)((1)*(8000000/4000000.0)));
  5107     0C00  3200               	nop2	;2 cycle nop
  5108                           
  5109                           ;GXHT30.c: 47:  PORTAbits.RA4 = 0;;
  5110     0C01  0020               	movlb	0	; select bank0
  5111     0C02  120C               	bcf	12,4	;volatile
  5112     0C03                     l139:
  5113     0C03  0008               	return
  5114     0C04                     __end_of_IIC_Stop:
  5115                           
  5116                           	psect	text13
  5117     0BE6                     __ptext13:	
  5118 ;; *************** function _IIC_Start *****************
  5119 ;; Defined at:
  5120 ;;		line 20 in file "GXHT30.c"
  5121 ;; Parameters:    Size  Location     Type
  5122 ;;		None
  5123 ;; Auto vars:     Size  Location     Type
  5124 ;;		None
  5125 ;; Return value:  Size  Location     Type
  5126 ;;                  1    wreg      void 
  5127 ;; Registers used:
  5128 ;;		None
  5129 ;; Tracked objects:
  5130 ;;		On entry : 0/0
  5131 ;;		On exit  : 0/0
  5132 ;;		Unchanged: 0/0
  5133 ;; Data sizes:     COMMON   BANK0   BANK1   BANK2
  5134 ;;      Params:         0       0       0       0
  5135 ;;      Locals:         0       0       0       0
  5136 ;;      Temps:          0       0       0       0
  5137 ;;      Totals:         0       0       0       0
  5138 ;;Total ram usage:        0 bytes
  5139 ;; Hardware stack levels used: 1
  5140 ;; This function calls:
  5141 ;;		Nothing
  5142 ;; This function is called by:
  5143 ;;		_GXHT30_read_result
  5144 ;;		_GXHT30_write_cmd
  5145 ;; This function uses a non-reentrant model
  5146 ;;
  5147                           
  5148     0BE6                     _IIC_Start:	
  5149                           ;psect for function _IIC_Start
  5150                           
  5151     0BE6                     l1719:	
  5152                           ;incstack = 0
  5153                           ; Regs used in _IIC_Start: []
  5154                           
  5155                           
  5156                           ;GXHT30.c: 22:  TRISAbits.TRISA5 = 0;;
  5157     0BE6  0021               	movlb	1	; select bank1
  5158     0BE7  128C               	bcf	12,5	;volatile
  5159                           
  5160                           ;GXHT30.c: 23:  PORTAbits.RA4 = 0;;
  5161     0BE8  0020               	movlb	0	; select bank0
  5162     0BE9  120C               	bcf	12,4	;volatile
  5163                           
  5164                           ;GXHT30.c: 25:  PORTAbits.RA5 = 1;;
  5165     0BEA  168C               	bsf	12,5	;volatile
  5166                           
  5167                           ;GXHT30.c: 26:  _delay((unsigned long)((1)*(8000000/4000000.0)));
  5168     0BEB  3200               	nop2	;2 cycle nop
  5169                           
  5170                           ;GXHT30.c: 27:  PORTAbits.RA4 = 1;;
  5171     0BEC  0020               	movlb	0	; select bank0
  5172     0BED  160C               	bsf	12,4	;volatile
  5173                           
  5174                           ;GXHT30.c: 28:  _delay((unsigned long)((1)*(8000000/4000000.0)));
  5175     0BEE  3200               	nop2	;2 cycle nop
  5176                           
  5177                           ;GXHT30.c: 29:  PORTAbits.RA5 = 0;;
  5178     0BEF  0020               	movlb	0	; select bank0
  5179     0BF0  128C               	bcf	12,5	;volatile
  5180                           
  5181                           ;GXHT30.c: 30:  _delay((unsigned long)((1)*(8000000/4000000.0)));
  5182     0BF1  3200               	nop2	;2 cycle nop
  5183                           
  5184                           ;GXHT30.c: 31:  PORTAbits.RA4 = 0;;
  5185     0BF2  0020               	movlb	0	; select bank0
  5186     0BF3  120C               	bcf	12,4	;volatile
  5187     0BF4                     l136:
  5188     0BF4  0008               	return
  5189     0BF5                     __end_of_IIC_Start:
  5190                           
  5191                           	psect	text14
  5192     0C60                     __ptext14:	
  5193 ;; *************** function _IIC_SendByte *****************
  5194 ;; Defined at:
  5195 ;;		line 104 in file "GXHT30.c"
  5196 ;; Parameters:    Size  Location     Type
  5197 ;;  txd             2    0[COMMON] unsigned int 
  5198 ;; Auto vars:     Size  Location     Type
  5199 ;;  i               2    2[COMMON] unsigned int 
  5200 ;; Return value:  Size  Location     Type
  5201 ;;                  1    wreg      void 
  5202 ;; Registers used:
  5203 ;;		wreg, status,2
  5204 ;; Tracked objects:
  5205 ;;		On entry : 0/0
  5206 ;;		On exit  : 0/0
  5207 ;;		Unchanged: 0/0
  5208 ;; Data sizes:     COMMON   BANK0   BANK1   BANK2
  5209 ;;      Params:         2       0       0       0
  5210 ;;      Locals:         2       0       0       0
  5211 ;;      Temps:          0       0       0       0
  5212 ;;      Totals:         4       0       0       0
  5213 ;;Total ram usage:        4 bytes
  5214 ;; Hardware stack levels used: 1
  5215 ;; This function calls:
  5216 ;;		Nothing
  5217 ;; This function is called by:
  5218 ;;		_GXHT30_read_result
  5219 ;;		_GXHT30_write_cmd
  5220 ;; This function uses a non-reentrant model
  5221 ;;
  5222                           
  5223     0C60                     _IIC_SendByte:	
  5224                           ;psect for function _IIC_SendByte
  5225                           
  5226     0C60                     l1747:	
  5227                           ;incstack = 0
  5228                           ; Regs used in _IIC_SendByte: [wreg+status,2]
  5229                           
  5230     0C60                     l1749:
  5231                           
  5232                           ;GXHT30.c: 108:  TRISAbits.TRISA5 = 0;;
  5233     0C60  0021               	movlb	1	; select bank1
  5234     0C61  128C               	bcf	12,5	;volatile
  5235     0C62                     l1751:
  5236                           
  5237                           ;GXHT30.c: 109:  PORTAbits.RA4 = 0;;
  5238     0C62  0020               	movlb	0	; select bank0
  5239     0C63  120C               	bcf	12,4	;volatile
  5240                           
  5241                           ;GXHT30.c: 111:  for(i = 0; i < 8; i++)
  5242     0C64  01F2               	clrf	IIC_SendByte@i
  5243     0C65  01F3               	clrf	IIC_SendByte@i+1
  5244     0C66                     l155:
  5245                           
  5246                           ;GXHT30.c: 112:  {;GXHT30.c: 113:   if((txd & 0x80) > 0)
  5247     0C66  1FF0               	btfss	IIC_SendByte@txd,7
  5248     0C67  2C69               	goto	u1791
  5249     0C68  2C6A               	goto	u1790
  5250     0C69                     u1791:
  5251     0C69  2C6D               	goto	l157
  5252     0C6A                     u1790:
  5253     0C6A                     l1757:
  5254                           
  5255                           ;GXHT30.c: 114:   {;GXHT30.c: 115:    PORTAbits.RA5 = 1;;
  5256     0C6A  0020               	movlb	0	; select bank0
  5257     0C6B  168C               	bsf	12,5	;volatile
  5258                           
  5259                           ;GXHT30.c: 116:   }
  5260     0C6C  2C6F               	goto	l1759
  5261     0C6D                     l157:	
  5262                           ;GXHT30.c: 117:   else
  5263                           
  5264                           
  5265                           ;GXHT30.c: 118:   {;GXHT30.c: 119:    PORTAbits.RA5 = 0;;
  5266     0C6D  0020               	movlb	0	; select bank0
  5267     0C6E  128C               	bcf	12,5	;volatile
  5268     0C6F                     l1759:
  5269                           
  5270                           ;GXHT30.c: 122:   txd <<= 1;
  5271     0C6F  3001               	movlw	1
  5272     0C70                     u1805:
  5273     0C70  35F0               	lslf	IIC_SendByte@txd,f
  5274     0C71  0DF1               	rlf	IIC_SendByte@txd+1,f
  5275     0C72  0B89               	decfsz	9,f
  5276     0C73  2C70               	goto	u1805
  5277     0C74                     l1761:
  5278                           
  5279                           ;GXHT30.c: 123:   PORTAbits.RA4 = 1;;
  5280     0C74  160C               	bsf	12,4	;volatile
  5281     0C75                     l1763:
  5282                           
  5283                           ;GXHT30.c: 124:   _delay((unsigned long)((2)*(8000000/4000000.0)));
  5284     0C75  3200               	nop2	;2 cycle nop
  5285     0C76  3200               	nop2	;2 cycle nop
  5286     0C77                     l1765:
  5287                           
  5288                           ;GXHT30.c: 125:   PORTAbits.RA4 = 0;;
  5289     0C77  0020               	movlb	0	; select bank0
  5290     0C78  120C               	bcf	12,4	;volatile
  5291     0C79                     l1767:
  5292                           
  5293                           ;GXHT30.c: 126:   _delay((unsigned long)((2)*(8000000/4000000.0)));
  5294     0C79  3200               	nop2	;2 cycle nop
  5295     0C7A  3200               	nop2	;2 cycle nop
  5296                           
  5297                           ;GXHT30.c: 127:  }
  5298     0C7B  3001               	movlw	1
  5299     0C7C  07F2               	addwf	IIC_SendByte@i,f
  5300     0C7D  3000               	movlw	0
  5301     0C7E  3DF3               	addwfc	IIC_SendByte@i+1,f
  5302     0C7F  3000               	movlw	0
  5303     0C80  0273               	subwf	IIC_SendByte@i+1,w
  5304     0C81  3008               	movlw	8
  5305     0C82  1903               	skipnz
  5306     0C83  0272               	subwf	IIC_SendByte@i,w
  5307     0C84  1C03               	skipc
  5308     0C85  2C87               	goto	u1811
  5309     0C86  2C88               	goto	u1810
  5310     0C87                     u1811:
  5311     0C87  2C66               	goto	l155
  5312     0C88                     u1810:
  5313     0C88                     l159:
  5314     0C88  0008               	return
  5315     0C89                     __end_of_IIC_SendByte:
  5316                           
  5317                           	psect	text15
  5318     0C89                     __ptext15:	
  5319 ;; *************** function _IIC_ReadByte *****************
  5320 ;; Defined at:
  5321 ;;		line 132 in file "GXHT30.c"
  5322 ;; Parameters:    Size  Location     Type
  5323 ;;  ack             2    0[COMMON] unsigned int 
  5324 ;; Auto vars:     Size  Location     Type
  5325 ;;  i               1    4[COMMON] unsigned char 
  5326 ;;  receive         1    3[COMMON] unsigned char 
  5327 ;; Return value:  Size  Location     Type
  5328 ;;                  1    wreg      unsigned char 
  5329 ;; Registers used:
  5330 ;;		wreg, status,2, status,0, pclath, cstack
  5331 ;; Tracked objects:
  5332 ;;		On entry : 0/0
  5333 ;;		On exit  : 0/0
  5334 ;;		Unchanged: 0/0
  5335 ;; Data sizes:     COMMON   BANK0   BANK1   BANK2
  5336 ;;      Params:         2       0       0       0
  5337 ;;      Locals:         2       0       0       0
  5338 ;;      Temps:          1       0       0       0
  5339 ;;      Totals:         5       0       0       0
  5340 ;;Total ram usage:        5 bytes
  5341 ;; Hardware stack levels used: 1
  5342 ;; Hardware stack levels required when called: 1
  5343 ;; This function calls:
  5344 ;;		_IIC_Ack
  5345 ;;		_IIC_NAck
  5346 ;; This function is called by:
  5347 ;;		_GXHT30_read_result
  5348 ;; This function uses a non-reentrant model
  5349 ;;
  5350                           
  5351     0C89                     _IIC_ReadByte:	
  5352                           ;psect for function _IIC_ReadByte
  5353                           
  5354     0C89                     l1769:	
  5355                           ;incstack = 0
  5356                           ; Regs used in _IIC_ReadByte: [wreg+status,2+status,0+pclath+cstack]
  5357                           
  5358     0C89  01F3               	clrf	IIC_ReadByte@receive
  5359     0C8A                     l1771:
  5360                           
  5361                           ;GXHT30.c: 135:    TRISAbits.TRISA5 = 1;;
  5362     0C8A  0021               	movlb	1	; select bank1
  5363     0C8B  168C               	bsf	12,5	;volatile
  5364                           
  5365                           ;GXHT30.c: 136:    for(i = 0; i < 8; i++)
  5366     0C8C  01F4               	clrf	IIC_ReadByte@i
  5367     0C8D                     l162:
  5368                           
  5369                           ;GXHT30.c: 137:    {;GXHT30.c: 138:      PORTAbits.RA4 = 0;;
  5370     0C8D  0020               	movlb	0	; select bank0
  5371     0C8E  120C               	bcf	12,4	;volatile
  5372                           
  5373                           ;GXHT30.c: 139:   _delay((unsigned long)((1)*(8000000/4000000.0)));
  5374     0C8F  3200               	nop2	;2 cycle nop
  5375                           
  5376                           ;GXHT30.c: 140:   PORTAbits.RA4 = 1;;
  5377     0C90  0020               	movlb	0	; select bank0
  5378     0C91  160C               	bsf	12,4	;volatile
  5379     0C92                     l164:	
  5380                           ;GXHT30.c: 142:   while(!PORTAbits.RA4);
  5381                           
  5382     0C92  1E0C               	btfss	12,4	;volatile
  5383     0C93  2C95               	goto	u1821
  5384     0C94  2C96               	goto	u1820
  5385     0C95                     u1821:
  5386     0C95  2C92               	goto	l164
  5387     0C96                     u1820:
  5388     0C96                     l1777:
  5389                           
  5390                           ;GXHT30.c: 143:   receive <<= 1;
  5391     0C96  1003               	clrc
  5392     0C97  0DF3               	rlf	IIC_ReadByte@receive,f
  5393     0C98                     l1779:
  5394                           
  5395                           ;GXHT30.c: 144:   if(PORTAbits.RA5 == 1)
  5396     0C98  1E8C               	btfss	12,5	;volatile
  5397     0C99  2C9B               	goto	u1831
  5398     0C9A  2C9C               	goto	u1830
  5399     0C9B                     u1831:
  5400     0C9B  2CA0               	goto	l167
  5401     0C9C                     u1830:
  5402     0C9C                     l1781:
  5403                           
  5404                           ;GXHT30.c: 145:   {;GXHT30.c: 146:    receive++;
  5405     0C9C  3001               	movlw	1
  5406     0C9D  00F2               	movwf	??_IIC_ReadByte
  5407     0C9E  0872               	movf	??_IIC_ReadByte,w
  5408     0C9F  07F3               	addwf	IIC_ReadByte@receive,f
  5409     0CA0                     l167:	
  5410                           ;GXHT30.c: 147:   }
  5411                           
  5412                           
  5413                           ;GXHT30.c: 168:  }
  5414     0CA0  3001               	movlw	1
  5415     0CA1  00F2               	movwf	??_IIC_ReadByte
  5416     0CA2  0872               	movf	??_IIC_ReadByte,w
  5417     0CA3  07F4               	addwf	IIC_ReadByte@i,f
  5418     0CA4                     l1783:
  5419     0CA4  3008               	movlw	8
  5420     0CA5  0274               	subwf	IIC_ReadByte@i,w
  5421     0CA6  1C03               	skipc
  5422     0CA7  2CA9               	goto	u1841
  5423     0CA8  2CAA               	goto	u1840
  5424     0CA9                     u1841:
  5425     0CA9  2C8D               	goto	l162
  5426     0CAA                     u1840:
  5427     0CAA                     l1785:
  5428                           
  5429                           ;GXHT30.c: 169:  _delay((unsigned long)((1)*(8000000/4000.0)));
  5430     0CAA  3003               	movlw	3
  5431     0CAB  00F2               	movwf	??_IIC_ReadByte
  5432     0CAC  3098               	movlw	152
  5433     0CAD                     u3647:
  5434     0CAD  0B89               	decfsz	9,f
  5435     0CAE  2CAD               	goto	u3647
  5436     0CAF  0BF2               	decfsz	??_IIC_ReadByte,f
  5437     0CB0  2CAD               	goto	u3647
  5438     0CB1                     l1787:
  5439                           
  5440                           ;GXHT30.c: 170:     if(ack == 0)
  5441     0CB1  0870               	movf	IIC_ReadByte@ack,w
  5442     0CB2  0471               	iorwf	IIC_ReadByte@ack+1,w
  5443     0CB3  1D03               	btfss	3,2
  5444     0CB4  2CB6               	goto	u1851
  5445     0CB5  2CB7               	goto	u1850
  5446     0CB6                     u1851:
  5447     0CB6  2CBB               	goto	l1791
  5448     0CB7                     u1850:
  5449     0CB7                     l1789:
  5450                           
  5451                           ;GXHT30.c: 171:  {;GXHT30.c: 172:      IIC_NAck();
  5452     0CB7  318B  23DA  318C   	fcall	_IIC_NAck
  5453                           
  5454                           ;GXHT30.c: 173:  }
  5455     0CBA  2CBE               	goto	l1793
  5456     0CBB                     l1791:
  5457                           
  5458                           ;GXHT30.c: 175:  {;GXHT30.c: 176:   IIC_Ack();
  5459     0CBB  318B  23CE  318C   	fcall	_IIC_Ack
  5460     0CBE                     l1793:
  5461                           
  5462                           ;GXHT30.c: 178:  return receive;
  5463     0CBE  0873               	movf	IIC_ReadByte@receive,w
  5464     0CBF                     l170:
  5465     0CBF  0008               	return
  5466     0CC0                     __end_of_IIC_ReadByte:
  5467                           
  5468                           	psect	text16
  5469     0BDA                     __ptext16:	
  5470 ;; *************** function _IIC_NAck *****************
  5471 ;; Defined at:
  5472 ;;		line 66 in file "GXHT30.c"
  5473 ;; Parameters:    Size  Location     Type
  5474 ;;		None
  5475 ;; Auto vars:     Size  Location     Type
  5476 ;;		None
  5477 ;; Return value:  Size  Location     Type
  5478 ;;                  1    wreg      void 
  5479 ;; Registers used:
  5480 ;;		None
  5481 ;; Tracked objects:
  5482 ;;		On entry : 0/0
  5483 ;;		On exit  : 0/0
  5484 ;;		Unchanged: 0/0
  5485 ;; Data sizes:     COMMON   BANK0   BANK1   BANK2
  5486 ;;      Params:         0       0       0       0
  5487 ;;      Locals:         0       0       0       0
  5488 ;;      Temps:          0       0       0       0
  5489 ;;      Totals:         0       0       0       0
  5490 ;;Total ram usage:        0 bytes
  5491 ;; Hardware stack levels used: 1
  5492 ;; This function calls:
  5493 ;;		Nothing
  5494 ;; This function is called by:
  5495 ;;		_IIC_ReadByte
  5496 ;; This function uses a non-reentrant model
  5497 ;;
  5498                           
  5499     0BDA                     _IIC_NAck:	
  5500                           ;psect for function _IIC_NAck
  5501                           
  5502     0BDA                     l1703:	
  5503                           ;incstack = 0
  5504                           ; Regs used in _IIC_NAck: []
  5505                           
  5506                           
  5507                           ;GXHT30.c: 68:  TRISAbits.TRISA5 = 0;;
  5508     0BDA  0021               	movlb	1	; select bank1
  5509     0BDB  128C               	bcf	12,5	;volatile
  5510                           
  5511                           ;GXHT30.c: 69:  PORTAbits.RA4 = 0;;
  5512     0BDC  0020               	movlb	0	; select bank0
  5513     0BDD  120C               	bcf	12,4	;volatile
  5514                           
  5515                           ;GXHT30.c: 71:  PORTAbits.RA5 = 1;;
  5516     0BDE  168C               	bsf	12,5	;volatile
  5517                           
  5518                           ;GXHT30.c: 72:  _delay((unsigned long)((1)*(8000000/4000000.0)));
  5519     0BDF  3200               	nop2	;2 cycle nop
  5520                           
  5521                           ;GXHT30.c: 73:  PORTAbits.RA4 = 1;;
  5522     0BE0  0020               	movlb	0	; select bank0
  5523     0BE1  160C               	bsf	12,4	;volatile
  5524                           
  5525                           ;GXHT30.c: 74:  _delay((unsigned long)((1)*(8000000/4000000.0)));
  5526     0BE2  3200               	nop2	;2 cycle nop
  5527                           
  5528                           ;GXHT30.c: 75:  PORTAbits.RA4 = 0;;
  5529     0BE3  0020               	movlb	0	; select bank0
  5530     0BE4  120C               	bcf	12,4	;volatile
  5531     0BE5                     l145:
  5532     0BE5  0008               	return
  5533     0BE6                     __end_of_IIC_NAck:
  5534                           
  5535                           	psect	text17
  5536     0BCE                     __ptext17:	
  5537 ;; *************** function _IIC_Ack *****************
  5538 ;; Defined at:
  5539 ;;		line 52 in file "GXHT30.c"
  5540 ;; Parameters:    Size  Location     Type
  5541 ;;		None
  5542 ;; Auto vars:     Size  Location     Type
  5543 ;;		None
  5544 ;; Return value:  Size  Location     Type
  5545 ;;                  1    wreg      void 
  5546 ;; Registers used:
  5547 ;;		None
  5548 ;; Tracked objects:
  5549 ;;		On entry : 0/0
  5550 ;;		On exit  : 0/0
  5551 ;;		Unchanged: 0/0
  5552 ;; Data sizes:     COMMON   BANK0   BANK1   BANK2
  5553 ;;      Params:         0       0       0       0
  5554 ;;      Locals:         0       0       0       0
  5555 ;;      Temps:          0       0       0       0
  5556 ;;      Totals:         0       0       0       0
  5557 ;;Total ram usage:        0 bytes
  5558 ;; Hardware stack levels used: 1
  5559 ;; This function calls:
  5560 ;;		Nothing
  5561 ;; This function is called by:
  5562 ;;		_IIC_ReadByte
  5563 ;; This function uses a non-reentrant model
  5564 ;;
  5565                           
  5566     0BCE                     _IIC_Ack:	
  5567                           ;psect for function _IIC_Ack
  5568                           
  5569     0BCE                     l1701:	
  5570                           ;incstack = 0
  5571                           ; Regs used in _IIC_Ack: []
  5572                           
  5573                           
  5574                           ;GXHT30.c: 54:  TRISAbits.TRISA5 = 0;;
  5575     0BCE  0021               	movlb	1	; select bank1
  5576     0BCF  128C               	bcf	12,5	;volatile
  5577                           
  5578                           ;GXHT30.c: 55:  PORTAbits.RA4 = 0;;
  5579     0BD0  0020               	movlb	0	; select bank0
  5580     0BD1  120C               	bcf	12,4	;volatile
  5581                           
  5582                           ;GXHT30.c: 57:  PORTAbits.RA5 = 0;;
  5583     0BD2  128C               	bcf	12,5	;volatile
  5584                           
  5585                           ;GXHT30.c: 58:  _delay((unsigned long)((1)*(8000000/4000000.0)));
  5586     0BD3  3200               	nop2	;2 cycle nop
  5587                           
  5588                           ;GXHT30.c: 59:  PORTAbits.RA4 = 1;;
  5589     0BD4  0020               	movlb	0	; select bank0
  5590     0BD5  160C               	bsf	12,4	;volatile
  5591                           
  5592                           ;GXHT30.c: 60:  _delay((unsigned long)((1)*(8000000/4000000.0)));
  5593     0BD6  3200               	nop2	;2 cycle nop
  5594                           
  5595                           ;GXHT30.c: 61:  PORTAbits.RA4 = 0;;
  5596     0BD7  0020               	movlb	0	; select bank0
  5597     0BD8  120C               	bcf	12,4	;volatile
  5598     0BD9                     l142:
  5599     0BD9  0008               	return
  5600     0BDA                     __end_of_IIC_Ack:
  5601                           
  5602                           	psect	text18
  5603     0CC0                     __ptext18:	
  5604 ;; *************** function _ASCII_TH *****************
  5605 ;; Defined at:
  5606 ;;		line 87 in file "main.c"
  5607 ;; Parameters:    Size  Location     Type
  5608 ;;  Value           2    4[BANK0 ] int 
  5609 ;;  bit             1    6[BANK0 ] unsigned char 
  5610 ;; Auto vars:     Size  Location     Type
  5611 ;;		None
  5612 ;; Return value:  Size  Location     Type
  5613 ;;                  1    wreg      unsigned char 
  5614 ;; Registers used:
  5615 ;;		wreg, status,2, status,0, pclath, cstack
  5616 ;; Tracked objects:
  5617 ;;		On entry : 0/0
  5618 ;;		On exit  : 0/0
  5619 ;;		Unchanged: 0/0
  5620 ;; Data sizes:     COMMON   BANK0   BANK1   BANK2
  5621 ;;      Params:         0       3       0       0
  5622 ;;      Locals:         0       0       0       0
  5623 ;;      Temps:          0       0       0       0
  5624 ;;      Totals:         0       3       0       0
  5625 ;;Total ram usage:        3 bytes
  5626 ;; Hardware stack levels used: 1
  5627 ;; Hardware stack levels required when called: 1
  5628 ;; This function calls:
  5629 ;;		___awdiv
  5630 ;;		___awmod
  5631 ;; This function is called by:
  5632 ;;		_main
  5633 ;; This function uses a non-reentrant model
  5634 ;;
  5635                           
  5636     0CC0                     _ASCII_TH:	
  5637                           ;psect for function _ASCII_TH
  5638                           
  5639     0CC0                     l2507:	
  5640                           ;incstack = 0
  5641                           ; Regs used in _ASCII_TH: [wreg+status,2+status,0+pclath+cstack]
  5642                           
  5643                           
  5644                           ;main.c: 87: char ASCII_TH(int Value, char bit);main.c: 88: {;main.c: 89:  if(bit == 1)
  5645     0CC0  0020               	movlb	0	; select bank0
  5646     0CC1  0326               	decf	ASCII_TH@bit,w
  5647     0CC2  1D03               	btfss	3,2
  5648     0CC3  2CC5               	goto	u3281
  5649     0CC4  2CC6               	goto	u3280
  5650     0CC5                     u3281:
  5651     0CC5  2CD4               	goto	l2515
  5652     0CC6                     u3280:
  5653     0CC6                     l2509:
  5654                           
  5655                           ;main.c: 90:  {;main.c: 91:   return (char)(Value % 10) + '0';
  5656     0CC6  300A               	movlw	10
  5657     0CC7  00F0               	movwf	___awmod@divisor
  5658     0CC8  3000               	movlw	0
  5659     0CC9  00F1               	movwf	___awmod@divisor+1
  5660     0CCA  0825               	movf	ASCII_TH@Value+1,w
  5661     0CCB  00F3               	movwf	___awmod@dividend+1
  5662     0CCC  0824               	movf	ASCII_TH@Value,w
  5663     0CCD  00F2               	movwf	___awmod@dividend
  5664     0CCE  318D  2509  318C   	fcall	___awmod
  5665     0CD1  0870               	movf	?___awmod,w
  5666     0CD2  3E30               	addlw	48
  5667     0CD3  2D08               	goto	l94
  5668     0CD4                     l2515:
  5669     0CD4  3002               	movlw	2
  5670     0CD5  0626               	xorwf	ASCII_TH@bit,w
  5671     0CD6  1D03               	btfss	3,2
  5672     0CD7  2CD9               	goto	u3291
  5673     0CD8  2CDA               	goto	u3290
  5674     0CD9                     u3291:
  5675     0CD9  2CF3               	goto	l2523
  5676     0CDA                     u3290:
  5677     0CDA                     l2517:
  5678                           
  5679                           ;main.c: 94:  {;main.c: 95:   return (char)(Value % 100 / 10) + '0';
  5680     0CDA  300A               	movlw	10
  5681     0CDB  00F7               	movwf	___awdiv@divisor
  5682     0CDC  3000               	movlw	0
  5683     0CDD  00F8               	movwf	___awdiv@divisor+1
  5684     0CDE  0825               	movf	ASCII_TH@Value+1,w
  5685     0CDF  00F3               	movwf	___awmod@dividend+1
  5686     0CE0  0824               	movf	ASCII_TH@Value,w
  5687     0CE1  00F2               	movwf	___awmod@dividend
  5688     0CE2  3064               	movlw	100
  5689     0CE3  00F0               	movwf	___awmod@divisor
  5690     0CE4  3000               	movlw	0
  5691     0CE5  00F1               	movwf	___awmod@divisor+1
  5692     0CE6  318D  2509  318C   	fcall	___awmod
  5693     0CE9  0871               	movf	?___awmod+1,w
  5694     0CEA  00FA               	movwf	___awdiv@dividend+1
  5695     0CEB  0870               	movf	?___awmod,w
  5696     0CEC  00F9               	movwf	___awdiv@dividend
  5697     0CED  318D  255C  318C   	fcall	___awdiv
  5698     0CF0  0877               	movf	?___awdiv,w
  5699     0CF1  3E30               	addlw	48
  5700     0CF2  2D08               	goto	l94
  5701     0CF3                     l2523:
  5702     0CF3  3003               	movlw	3
  5703     0CF4  0626               	xorwf	ASCII_TH@bit,w
  5704     0CF5  1D03               	btfss	3,2
  5705     0CF6  2CF8               	goto	u3301
  5706     0CF7  2CF9               	goto	u3300
  5707     0CF8                     u3301:
  5708     0CF8  2D07               	goto	l2531
  5709     0CF9                     u3300:
  5710     0CF9                     l2525:
  5711                           
  5712                           ;main.c: 98:  {;main.c: 99:   return (char)(Value / 100) + '0';
  5713     0CF9  3064               	movlw	100
  5714     0CFA  00F7               	movwf	___awdiv@divisor
  5715     0CFB  3000               	movlw	0
  5716     0CFC  00F8               	movwf	___awdiv@divisor+1
  5717     0CFD  0825               	movf	ASCII_TH@Value+1,w
  5718     0CFE  00FA               	movwf	___awdiv@dividend+1
  5719     0CFF  0824               	movf	ASCII_TH@Value,w
  5720     0D00  00F9               	movwf	___awdiv@dividend
  5721     0D01  318D  255C  318C   	fcall	___awdiv
  5722     0D04  0877               	movf	?___awdiv,w
  5723     0D05  3E30               	addlw	48
  5724     0D06  2D08               	goto	l94
  5725     0D07                     l2531:
  5726                           
  5727                           ;main.c: 102:  {;main.c: 103:   return '?';
  5728     0D07  303F               	movlw	63
  5729     0D08                     l94:
  5730     0D08  0008               	return
  5731     0D09                     __end_of_ASCII_TH:
  5732                           
  5733                           	psect	text19
  5734     0D09                     __ptext19:	
  5735 ;; *************** function ___awmod *****************
  5736 ;; Defined at:
  5737 ;;		line 5 in file "C:\XC8\pic\sources\c99\common\awmod.c"
  5738 ;; Parameters:    Size  Location     Type
  5739 ;;  divisor         2    0[COMMON] int 
  5740 ;;  dividend        2    2[COMMON] int 
  5741 ;; Auto vars:     Size  Location     Type
  5742 ;;  sign            1    6[COMMON] unsigned char 
  5743 ;;  counter         1    5[COMMON] unsigned char 
  5744 ;; Return value:  Size  Location     Type
  5745 ;;                  2    0[COMMON] int 
  5746 ;; Registers used:
  5747 ;;		wreg, status,2, status,0
  5748 ;; Tracked objects:
  5749 ;;		On entry : 0/0
  5750 ;;		On exit  : 0/0
  5751 ;;		Unchanged: 0/0
  5752 ;; Data sizes:     COMMON   BANK0   BANK1   BANK2
  5753 ;;      Params:         4       0       0       0
  5754 ;;      Locals:         2       0       0       0
  5755 ;;      Temps:          1       0       0       0
  5756 ;;      Totals:         7       0       0       0
  5757 ;;Total ram usage:        7 bytes
  5758 ;; Hardware stack levels used: 1
  5759 ;; This function calls:
  5760 ;;		Nothing
  5761 ;; This function is called by:
  5762 ;;		_ASCII_TH
  5763 ;; This function uses a non-reentrant model
  5764 ;;
  5765                           
  5766     0D09                     ___awmod:	
  5767                           ;psect for function ___awmod
  5768                           
  5769     0D09                     l1841:	
  5770                           ;incstack = 0
  5771                           ; Regs used in ___awmod: [wreg+status,2+status,0]
  5772                           
  5773     0D09  01F6               	clrf	___awmod@sign
  5774     0D0A                     l1843:
  5775     0D0A  1FF3               	btfss	___awmod@dividend+1,7
  5776     0D0B  2D0D               	goto	u1961
  5777     0D0C  2D0E               	goto	u1960
  5778     0D0D                     u1961:
  5779     0D0D  2D15               	goto	l1849
  5780     0D0E                     u1960:
  5781     0D0E                     l1845:
  5782     0D0E  09F2               	comf	___awmod@dividend,f
  5783     0D0F  09F3               	comf	___awmod@dividend+1,f
  5784     0D10  0AF2               	incf	___awmod@dividend,f
  5785     0D11  1903               	skipnz
  5786     0D12  0AF3               	incf	___awmod@dividend+1,f
  5787     0D13                     l1847:
  5788     0D13  01F6               	clrf	___awmod@sign
  5789     0D14  0AF6               	incf	___awmod@sign,f
  5790     0D15                     l1849:
  5791     0D15  1FF1               	btfss	___awmod@divisor+1,7
  5792     0D16  2D18               	goto	u1971
  5793     0D17  2D19               	goto	u1970
  5794     0D18                     u1971:
  5795     0D18  2D1E               	goto	l1853
  5796     0D19                     u1970:
  5797     0D19                     l1851:
  5798     0D19  09F0               	comf	___awmod@divisor,f
  5799     0D1A  09F1               	comf	___awmod@divisor+1,f
  5800     0D1B  0AF0               	incf	___awmod@divisor,f
  5801     0D1C  1903               	skipnz
  5802     0D1D  0AF1               	incf	___awmod@divisor+1,f
  5803     0D1E                     l1853:
  5804     0D1E  0870               	movf	___awmod@divisor,w
  5805     0D1F  0471               	iorwf	___awmod@divisor+1,w
  5806     0D20  1903               	btfsc	3,2
  5807     0D21  2D23               	goto	u1981
  5808     0D22  2D24               	goto	u1980
  5809     0D23                     u1981:
  5810     0D23  2D4D               	goto	l1871
  5811     0D24                     u1980:
  5812     0D24                     l1855:
  5813     0D24  01F5               	clrf	___awmod@counter
  5814     0D25  0AF5               	incf	___awmod@counter,f
  5815     0D26  2D30               	goto	l1861
  5816     0D27                     l1857:
  5817     0D27  3001               	movlw	1
  5818     0D28                     u1995:
  5819     0D28  35F0               	lslf	___awmod@divisor,f
  5820     0D29  0DF1               	rlf	___awmod@divisor+1,f
  5821     0D2A  0B89               	decfsz	9,f
  5822     0D2B  2D28               	goto	u1995
  5823     0D2C                     l1859:
  5824     0D2C  3001               	movlw	1
  5825     0D2D  00F4               	movwf	??___awmod
  5826     0D2E  0874               	movf	??___awmod,w
  5827     0D2F  07F5               	addwf	___awmod@counter,f
  5828     0D30                     l1861:
  5829     0D30  1FF1               	btfss	___awmod@divisor+1,7
  5830     0D31  2D33               	goto	u2001
  5831     0D32  2D34               	goto	u2000
  5832     0D33                     u2001:
  5833     0D33  2D27               	goto	l1857
  5834     0D34                     u2000:
  5835     0D34                     l1863:
  5836     0D34  0871               	movf	___awmod@divisor+1,w
  5837     0D35  0273               	subwf	___awmod@dividend+1,w
  5838     0D36  1D03               	skipz
  5839     0D37  2D3A               	goto	u2015
  5840     0D38  0870               	movf	___awmod@divisor,w
  5841     0D39  0272               	subwf	___awmod@dividend,w
  5842     0D3A                     u2015:
  5843     0D3A  1C03               	skipc
  5844     0D3B  2D3D               	goto	u2011
  5845     0D3C  2D3E               	goto	u2010
  5846     0D3D                     u2011:
  5847     0D3D  2D42               	goto	l1867
  5848     0D3E                     u2010:
  5849     0D3E                     l1865:
  5850     0D3E  0870               	movf	___awmod@divisor,w
  5851     0D3F  02F2               	subwf	___awmod@dividend,f
  5852     0D40  0871               	movf	___awmod@divisor+1,w
  5853     0D41  3BF3               	subwfb	___awmod@dividend+1,f
  5854     0D42                     l1867:
  5855     0D42  3001               	movlw	1
  5856     0D43                     u2025:
  5857     0D43  36F1               	lsrf	___awmod@divisor+1,f
  5858     0D44  0CF0               	rrf	___awmod@divisor,f
  5859     0D45  0B89               	decfsz	9,f
  5860     0D46  2D43               	goto	u2025
  5861     0D47                     l1869:
  5862     0D47  3001               	movlw	1
  5863     0D48  02F5               	subwf	___awmod@counter,f
  5864     0D49  1D03               	btfss	3,2
  5865     0D4A  2D4C               	goto	u2031
  5866     0D4B  2D4D               	goto	u2030
  5867     0D4C                     u2031:
  5868     0D4C  2D34               	goto	l1863
  5869     0D4D                     u2030:
  5870     0D4D                     l1871:
  5871     0D4D  0876               	movf	___awmod@sign,w
  5872     0D4E  1903               	btfsc	3,2
  5873     0D4F  2D51               	goto	u2041
  5874     0D50  2D52               	goto	u2040
  5875     0D51                     u2041:
  5876     0D51  2D57               	goto	l1875
  5877     0D52                     u2040:
  5878     0D52                     l1873:
  5879     0D52  09F2               	comf	___awmod@dividend,f
  5880     0D53  09F3               	comf	___awmod@dividend+1,f
  5881     0D54  0AF2               	incf	___awmod@dividend,f
  5882     0D55  1903               	skipnz
  5883     0D56  0AF3               	incf	___awmod@dividend+1,f
  5884     0D57                     l1875:
  5885     0D57  0873               	movf	___awmod@dividend+1,w
  5886     0D58  00F1               	movwf	?___awmod+1
  5887     0D59  0872               	movf	___awmod@dividend,w
  5888     0D5A  00F0               	movwf	?___awmod
  5889     0D5B                     l493:
  5890     0D5B  0008               	return
  5891     0D5C                     __end_of___awmod:
  5892                           
  5893                           	psect	text20
  5894     0D5C                     __ptext20:	
  5895 ;; *************** function ___awdiv *****************
  5896 ;; Defined at:
  5897 ;;		line 5 in file "C:\XC8\pic\sources\c99\common\awdiv.c"
  5898 ;; Parameters:    Size  Location     Type
  5899 ;;  divisor         2    7[COMMON] int 
  5900 ;;  dividend        2    9[COMMON] int 
  5901 ;; Auto vars:     Size  Location     Type
  5902 ;;  quotient        2    2[BANK0 ] int 
  5903 ;;  sign            1    1[BANK0 ] unsigned char 
  5904 ;;  counter         1    0[BANK0 ] unsigned char 
  5905 ;; Return value:  Size  Location     Type
  5906 ;;                  2    7[COMMON] int 
  5907 ;; Registers used:
  5908 ;;		wreg, status,2, status,0
  5909 ;; Tracked objects:
  5910 ;;		On entry : 0/0
  5911 ;;		On exit  : 0/0
  5912 ;;		Unchanged: 0/0
  5913 ;; Data sizes:     COMMON   BANK0   BANK1   BANK2
  5914 ;;      Params:         4       0       0       0
  5915 ;;      Locals:         0       4       0       0
  5916 ;;      Temps:          1       0       0       0
  5917 ;;      Totals:         5       4       0       0
  5918 ;;Total ram usage:        9 bytes
  5919 ;; Hardware stack levels used: 1
  5920 ;; This function calls:
  5921 ;;		Nothing
  5922 ;; This function is called by:
  5923 ;;		_ASCII_TH
  5924 ;; This function uses a non-reentrant model
  5925 ;;
  5926                           
  5927     0D5C                     ___awdiv:	
  5928                           ;psect for function ___awdiv
  5929                           
  5930     0D5C                     l1797:	
  5931                           ;incstack = 0
  5932                           ; Regs used in ___awdiv: [wreg+status,2+status,0]
  5933                           
  5934     0D5C  0020               	movlb	0	; select bank0
  5935     0D5D  01A1               	clrf	___awdiv@sign
  5936     0D5E                     l1799:
  5937     0D5E  1FF8               	btfss	___awdiv@divisor+1,7
  5938     0D5F  2D61               	goto	u1861
  5939     0D60  2D62               	goto	u1860
  5940     0D61                     u1861:
  5941     0D61  2D69               	goto	l1805
  5942     0D62                     u1860:
  5943     0D62                     l1801:
  5944     0D62  09F7               	comf	___awdiv@divisor,f
  5945     0D63  09F8               	comf	___awdiv@divisor+1,f
  5946     0D64  0AF7               	incf	___awdiv@divisor,f
  5947     0D65  1903               	skipnz
  5948     0D66  0AF8               	incf	___awdiv@divisor+1,f
  5949     0D67                     l1803:
  5950     0D67  01A1               	clrf	___awdiv@sign
  5951     0D68  0AA1               	incf	___awdiv@sign,f
  5952     0D69                     l1805:
  5953     0D69  1FFA               	btfss	___awdiv@dividend+1,7
  5954     0D6A  2D6C               	goto	u1871
  5955     0D6B  2D6D               	goto	u1870
  5956     0D6C                     u1871:
  5957     0D6C  2D76               	goto	l1811
  5958     0D6D                     u1870:
  5959     0D6D                     l1807:
  5960     0D6D  09F9               	comf	___awdiv@dividend,f
  5961     0D6E  09FA               	comf	___awdiv@dividend+1,f
  5962     0D6F  0AF9               	incf	___awdiv@dividend,f
  5963     0D70  1903               	skipnz
  5964     0D71  0AFA               	incf	___awdiv@dividend+1,f
  5965     0D72                     l1809:
  5966     0D72  3001               	movlw	1
  5967     0D73  00FB               	movwf	??___awdiv
  5968     0D74  087B               	movf	??___awdiv,w
  5969     0D75  06A1               	xorwf	___awdiv@sign,f
  5970     0D76                     l1811:
  5971     0D76  01A2               	clrf	___awdiv@quotient
  5972     0D77  01A3               	clrf	___awdiv@quotient+1
  5973     0D78                     l1813:
  5974     0D78  0877               	movf	___awdiv@divisor,w
  5975     0D79  0478               	iorwf	___awdiv@divisor+1,w
  5976     0D7A  1903               	btfsc	3,2
  5977     0D7B  2D7D               	goto	u1881
  5978     0D7C  2D7E               	goto	u1880
  5979     0D7D                     u1881:
  5980     0D7D  2DAD               	goto	l1833
  5981     0D7E                     u1880:
  5982     0D7E                     l1815:
  5983     0D7E  01A0               	clrf	___awdiv@counter
  5984     0D7F  0AA0               	incf	___awdiv@counter,f
  5985     0D80  2D8A               	goto	l1821
  5986     0D81                     l1817:
  5987     0D81  3001               	movlw	1
  5988     0D82                     u1895:
  5989     0D82  35F7               	lslf	___awdiv@divisor,f
  5990     0D83  0DF8               	rlf	___awdiv@divisor+1,f
  5991     0D84  0B89               	decfsz	9,f
  5992     0D85  2D82               	goto	u1895
  5993     0D86                     l1819:
  5994     0D86  3001               	movlw	1
  5995     0D87  00FB               	movwf	??___awdiv
  5996     0D88  087B               	movf	??___awdiv,w
  5997     0D89  07A0               	addwf	___awdiv@counter,f
  5998     0D8A                     l1821:
  5999     0D8A  1FF8               	btfss	___awdiv@divisor+1,7
  6000     0D8B  2D8D               	goto	u1901
  6001     0D8C  2D8E               	goto	u1900
  6002     0D8D                     u1901:
  6003     0D8D  2D81               	goto	l1817
  6004     0D8E                     u1900:
  6005     0D8E                     l1823:
  6006     0D8E  3001               	movlw	1
  6007     0D8F                     u1915:
  6008     0D8F  35A2               	lslf	___awdiv@quotient,f
  6009     0D90  0DA3               	rlf	___awdiv@quotient+1,f
  6010     0D91  0B89               	decfsz	9,f
  6011     0D92  2D8F               	goto	u1915
  6012     0D93  0878               	movf	___awdiv@divisor+1,w
  6013     0D94  027A               	subwf	___awdiv@dividend+1,w
  6014     0D95  1D03               	skipz
  6015     0D96  2D99               	goto	u1925
  6016     0D97  0877               	movf	___awdiv@divisor,w
  6017     0D98  0279               	subwf	___awdiv@dividend,w
  6018     0D99                     u1925:
  6019     0D99  1C03               	skipc
  6020     0D9A  2D9C               	goto	u1921
  6021     0D9B  2D9D               	goto	u1920
  6022     0D9C                     u1921:
  6023     0D9C  2DA2               	goto	l1829
  6024     0D9D                     u1920:
  6025     0D9D                     l1825:
  6026     0D9D  0877               	movf	___awdiv@divisor,w
  6027     0D9E  02F9               	subwf	___awdiv@dividend,f
  6028     0D9F  0878               	movf	___awdiv@divisor+1,w
  6029     0DA0  3BFA               	subwfb	___awdiv@dividend+1,f
  6030     0DA1                     l1827:
  6031     0DA1  1422               	bsf	___awdiv@quotient,0
  6032     0DA2                     l1829:
  6033     0DA2  3001               	movlw	1
  6034     0DA3                     u1935:
  6035     0DA3  36F8               	lsrf	___awdiv@divisor+1,f
  6036     0DA4  0CF7               	rrf	___awdiv@divisor,f
  6037     0DA5  0B89               	decfsz	9,f
  6038     0DA6  2DA3               	goto	u1935
  6039     0DA7                     l1831:
  6040     0DA7  3001               	movlw	1
  6041     0DA8  02A0               	subwf	___awdiv@counter,f
  6042     0DA9  1D03               	btfss	3,2
  6043     0DAA  2DAC               	goto	u1941
  6044     0DAB  2DAD               	goto	u1940
  6045     0DAC                     u1941:
  6046     0DAC  2D8E               	goto	l1823
  6047     0DAD                     u1940:
  6048     0DAD                     l1833:
  6049     0DAD  0821               	movf	___awdiv@sign,w
  6050     0DAE  1903               	btfsc	3,2
  6051     0DAF  2DB1               	goto	u1951
  6052     0DB0  2DB2               	goto	u1950
  6053     0DB1                     u1951:
  6054     0DB1  2DB7               	goto	l1837
  6055     0DB2                     u1950:
  6056     0DB2                     l1835:
  6057     0DB2  09A2               	comf	___awdiv@quotient,f
  6058     0DB3  09A3               	comf	___awdiv@quotient+1,f
  6059     0DB4  0AA2               	incf	___awdiv@quotient,f
  6060     0DB5  1903               	skipnz
  6061     0DB6  0AA3               	incf	___awdiv@quotient+1,f
  6062     0DB7                     l1837:
  6063     0DB7  0823               	movf	___awdiv@quotient+1,w
  6064     0DB8  00F8               	movwf	?___awdiv+1
  6065     0DB9  0822               	movf	___awdiv@quotient,w
  6066     0DBA  00F7               	movwf	?___awdiv
  6067     0DBB                     l480:
  6068     0DBB  0008               	return
  6069     0DBC                     __end_of___awdiv:
  6070     007E                     btemp	set	126	;btemp
  6071     007E                     wtemp0	set	126
  6072                           
  6073                           	psect	config
  6074                           
  6075                           ;Config register CONFIG1 @ 0x8007
  6076                           ;	Oscillator Selection
  6077                           ;	FOSC = INTOSC, INTOSC oscillator: I/O function on CLKIN pin
  6078                           ;	Watchdog Timer Enable
  6079                           ;	WDTE = OFF, WDT disabled
  6080                           ;	Power-up Timer Enable
  6081                           ;	PWRTE = OFF, PWRT disabled
  6082                           ;	MCLR Pin Function Select
  6083                           ;	MCLRE = ON, MCLR/VPP pin function is MCLR
  6084                           ;	Flash Program Memory Code Protection
  6085                           ;	CP = OFF, Program memory code protection is disabled
  6086                           ;	Data Memory Code Protection
  6087                           ;	CPD = OFF, Data memory code protection is disabled
  6088                           ;	Brown-out Reset Enable
  6089                           ;	BOREN = OFF, Brown-out Reset disabled
  6090                           ;	Clock Out Enable
  6091                           ;	CLKOUTEN = OFF, CLKOUT function is disabled. I/O or oscillator function on the CLKOUT 
      +                          pin
  6092                           ;	Internal/External Switchover
  6093                           ;	IESO = ON, Internal/External Switchover mode is enabled
  6094                           ;	Fail-Safe Clock Monitor Enable
  6095                           ;	FCMEN = ON, Fail-Safe Clock Monitor is enabled
  6096     8007                     	org	32775
  6097     8007  39E4               	dw	14820
  6098                           
  6099                           ;Config register CONFIG2 @ 0x8008
  6100                           ;	Flash Memory Self-Write Protection
  6101                           ;	WRT = OFF, Write protection off
  6102                           ;	PLL Enable
  6103                           ;	PLLEN = OFF, 4x PLL disabled
  6104                           ;	Stack Overflow/Underflow Reset Enable
  6105                           ;	STVREN = ON, Stack Overflow or Underflow will cause a Reset
  6106                           ;	Brown-out Reset Voltage Selection
  6107                           ;	BORV = LO, Brown-out Reset Voltage (Vbor), low trip point selected.
  6108                           ;	In-Circuit Debugger Mode
  6109                           ;	DEBUG = OFF, In-Circuit Debugger disabled, ICSPCLK and ICSPDAT are general purpose I/O
      +                           pins
  6110                           ;	Low-Voltage Programming Enable
  6111                           ;	LVP = OFF, High-voltage on MCLR/VPP must be used for programming
  6112     8008                     	org	32776
  6113     8008  1EFF               	dw	7935

Data Sizes:
    Strings     0
    Constant    0
    Data        0
    BSS         14
    Persistent  32
    Stack       0

Auto Spaces:
    Space          Size  Autos    Used
    COMMON           14     14      14
    BANK0            80     80      80
    BANK1            80     27      41
    BANK2            80      0       0

Pointer List with Targets:

    None.

Critical Paths under _main in COMMON

    _GXHT30_write_cmd->_IIC_SendByte
    _GXHT30_read_result->___xxtofl
    ___fltol->___xxtofl
    ___flmul->___xxtofl
    ___fldiv->___xxtofl
    ___fladd->___xxtofl
    _ASCII_TH->___awdiv
    ___awdiv->___awmod

Critical Paths under _main in BANK0

    _GXHT30_read_result->___fltol
    ___fltol->___fladd
    ___fldiv->___flmul
    ___fladd->___fldiv
    _ASCII_TH->___awdiv

Critical Paths under _main in BANK1

    _main->_GXHT30_read_result
    _GXHT30_read_result->___fltol

Critical Paths under _main in BANK2

    None.

Call Graph Tables:

 ---------------------------------------------------------------------------------
 (Depth) Function   	        Calls       Base Space   Used Autos Params    Refs
 ---------------------------------------------------------------------------------
 (0) _main                                                 2     2      0   11555
                                             25 BANK1      2     2      0
                           _ASCII_TH
                 _GXHT30_read_result
                   _GXHT30_write_cmd
                           _IIC_init
                          _main_init
 ---------------------------------------------------------------------------------
 (1) _main_init                                            0     0      0       0
 ---------------------------------------------------------------------------------
 (1) _IIC_init                                             0     0      0       0
 ---------------------------------------------------------------------------------
 (1) _GXHT30_write_cmd                                     5     3      2     616
                                              4 COMMON     5     3      2
                       _IIC_SendByte
                          _IIC_Start
                           _IIC_Stop
                           _IIC_WAck
 ---------------------------------------------------------------------------------
 (1) _GXHT30_read_result                                  23    23      0    8691
                                              2 BANK1     23    23      0
                       _IIC_ReadByte
                       _IIC_SendByte
                          _IIC_Start
                           _IIC_Stop
                           _IIC_WAck
                            ___fladd
                            ___fldiv
                            ___flmul
                            ___fltol
                           ___xxtofl
 ---------------------------------------------------------------------------------
 (2) ___xxtofl                                            14    10      4     474
                                              0 COMMON    14    10      4
 ---------------------------------------------------------------------------------
 (2) ___fltol                                             10     6      4     381
                                             72 BANK0      8     4      4
                                              0 BANK1      2     2      0
                            ___fladd (ARG)
                            ___fldiv (ARG)
                            ___flmul (ARG)
                           ___xxtofl (ARG)
 ---------------------------------------------------------------------------------
 (2) ___flmul                                             26    18      8    2873
                                              0 BANK0     26    18      8
                          __Umul8_16
                           ___xxtofl (ARG)
 ---------------------------------------------------------------------------------
 (3) __Umul8_16                                            9     7      2     799
                                              0 COMMON     9     7      2
 ---------------------------------------------------------------------------------
 (2) ___fldiv                                             26    18      8    1425
                                             26 BANK0     26    18      8
                            ___flmul (ARG)
                           ___xxtofl (ARG)
 ---------------------------------------------------------------------------------
 (2) ___fladd                                             20    12      8    2262
                                             52 BANK0     20    12      8
                            ___fldiv (ARG)
                            ___flmul (ARG)
                           ___xxtofl (ARG)
 ---------------------------------------------------------------------------------
 (2) _IIC_WAck                                             2     2      0      24
                                              0 COMMON     2     2      0
                           _IIC_Stop
 ---------------------------------------------------------------------------------
 (3) _IIC_Stop                                             0     0      0       0
 ---------------------------------------------------------------------------------
 (2) _IIC_Start                                            0     0      0       0
 ---------------------------------------------------------------------------------
 (2) _IIC_SendByte                                         4     2      2     374
                                              0 COMMON     4     2      2
 ---------------------------------------------------------------------------------
 (2) _IIC_ReadByte                                         5     3      2     550
                                              0 COMMON     5     3      2
                            _IIC_Ack
                           _IIC_NAck
 ---------------------------------------------------------------------------------
 (3) _IIC_NAck                                             0     0      0       0
 ---------------------------------------------------------------------------------
 (3) _IIC_Ack                                              0     0      0       0
 ---------------------------------------------------------------------------------
 (1) _ASCII_TH                                             3     0      3    2248
                                              4 BANK0      3     0      3
                            ___awdiv
                            ___awmod
 ---------------------------------------------------------------------------------
 (2) ___awmod                                              7     3      4     600
                                              0 COMMON     7     3      4
 ---------------------------------------------------------------------------------
 (2) ___awdiv                                              9     5      4     604
                                              7 COMMON     5     1      4
                                              0 BANK0      4     4      0
                            ___awmod (ARG)
 ---------------------------------------------------------------------------------
 Estimated maximum stack depth 3
 ---------------------------------------------------------------------------------

 Call Graph Graphs:

 _main (ROOT)
   _ASCII_TH
     ___awdiv
       ___awmod (ARG)
     ___awmod
   _GXHT30_read_result
     _IIC_ReadByte
       _IIC_Ack
       _IIC_NAck
     _IIC_SendByte
     _IIC_Start
     _IIC_Stop
     _IIC_WAck
       _IIC_Stop
     ___fladd
       ___fldiv (ARG)
         ___flmul (ARG)
           __Umul8_16
           ___xxtofl (ARG)
         ___xxtofl (ARG)
       ___flmul (ARG)
       ___xxtofl (ARG)
     ___fldiv
     ___flmul
     ___fltol
       ___fladd (ARG)
       ___fldiv (ARG)
       ___flmul (ARG)
       ___xxtofl (ARG)
     ___xxtofl
   _GXHT30_write_cmd
     _IIC_SendByte
     _IIC_Start
     _IIC_Stop
     _IIC_WAck
   _IIC_init
   _main_init

 Address spaces:
Name               Size   Autos  Total    Cost      Usage
BIGRAM              F0      0       0       0        0.0%
EEDATA             100      0       0       0        0.0%
NULL                 0      0       0       0        0.0%
CODE                 0      0       0       0        0.0%
BITCOMMON            E      0       0       1        0.0%
BITSFR0              0      0       0       1        0.0%
SFR0                 0      0       0       1        0.0%
COMMON               E      E       E       2      100.0%
BITSFR1              0      0       0       2        0.0%
SFR1                 0      0       0       2        0.0%
BITSFR2              0      0       0       3        0.0%
SFR2                 0      0       0       3        0.0%
STACK                0      0       0       3        0.0%
BITSFR3              0      0       0       4        0.0%
SFR3                 0      0       0       4        0.0%
ABS                  0      0      87       4        0.0%
BITBANK0            50      0       0       5        0.0%
BITSFR4              0      0       0       5        0.0%
SFR4                 0      0       0       5        0.0%
BANK0               50     50      50       6      100.0%
BITSFR5              0      0       0       6        0.0%
SFR5                 0      0       0       6        0.0%
BITBANK1            50      0       0       7        0.0%
BITSFR6              0      0       0       7        0.0%
SFR6                 0      0       0       7        0.0%
BANK1               50     1B      29       8       51.2%
BITSFR7              0      0       0       8        0.0%
SFR7                 0      0       0       8        0.0%
BITBANK2            50      0       0       9        0.0%
BITSFR8              0      0       0       9        0.0%
SFR8                 0      0       0       9        0.0%
BANK2               50      0       0      10        0.0%
BITSFR9              0      0       0      10        0.0%
SFR9                 0      0       0      10        0.0%
BITSFR10             0      0       0      11        0.0%
SFR10                0      0       0      11        0.0%
DATA                 0      0      87      11        0.0%
BITSFR11             0      0       0      12        0.0%
SFR11                0      0       0      12        0.0%
BITSFR12             0      0       0      13        0.0%
SFR12                0      0       0      13        0.0%
BITSFR13             0      0       0      14        0.0%
SFR13                0      0       0      14        0.0%
BITSFR14             0      0       0      15        0.0%
SFR14                0      0       0      15        0.0%
BITSFR15             0      0       0      16        0.0%
SFR15                0      0       0      16        0.0%
BITSFR16             0      0       0      17        0.0%
SFR16                0      0       0      17        0.0%
BITSFR17             0      0       0      18        0.0%
SFR17                0      0       0      18        0.0%
BITSFR18             0      0       0      19        0.0%
SFR18                0      0       0      19        0.0%
BITSFR19             0      0       0      20        0.0%
SFR19                0      0       0      20        0.0%
BITSFR20             0      0       0      21        0.0%
SFR20                0      0       0      21        0.0%
BITSFR21             0      0       0      22        0.0%
SFR21                0      0       0      22        0.0%
BITSFR22             0      0       0      23        0.0%
SFR22                0      0       0      23        0.0%
BITSFR23             0      0       0      24        0.0%
SFR23                0      0       0      24        0.0%
BITSFR24             0      0       0      25        0.0%
SFR24                0      0       0      25        0.0%
BITSFR25             0      0       0      26        0.0%
SFR25                0      0       0      26        0.0%
BITSFR26             0      0       0      27        0.0%
SFR26                0      0       0      27        0.0%
BITSFR27             0      0       0      28        0.0%
SFR27                0      0       0      28        0.0%
BITSFR28             0      0       0      29        0.0%
SFR28                0      0       0      29        0.0%
BITSFR29             0      0       0      30        0.0%
SFR29                0      0       0      30        0.0%
BITSFR30             0      0       0      31        0.0%
SFR30                0      0       0      31        0.0%
BITSFR31             0      0       0      32        0.0%
SFR31                0      0       0      32        0.0%


Microchip Technology PIC Macro Assembler V2.45 build 20230818022343 
Symbol Table                                                                                   Fri Dec 29 13:28:13 2023

              ___fldiv@aexp 0053                ___fldiv@bexp 0052                ___fldiv@sign 004B  
                        l43 0F83                          l52 0F99                          l61 0FAB  
                        l70 0FC1                          l46 0F8B                          l55 0F9F  
                        l64 0FB1                          l73 0FC7                          l49 0F91  
                        l82 0FDB                          l58 0FA5                          l67 0FB9  
                        l76 0FCF                          l85 0FE1                          l94 0D08  
                        l79 0FD5                ___awdiv@sign 0021         __Umul8_16@word_mpld 0076  
                       l120 0C19                         l133 000B                         l142 0BD9  
                       l151 0C3C                         l136 0BF4                         l152 0C3A  
                       l145 0BE5                         l170 0CBF                         l162 0C8D  
                       l155 0C66                         l139 0C03                         l164 0C92  
                       l157 0C6D                         l173 00F7                         l174 0207  
                       l167 0CA0                         l159 0C88                         l521 0E37  
                       l177 0072                         l531 0E37                         l700 0337  
                       l480 0DBB                         l632 0485                         l528 0E21  
                       l641 05B9                         l705 0383                         l634 0463  
                       l706 039D                         l730 0774                         l628 0408  
                       l708 03AA                         l724 07F4                         l493 0D5B  
                       l653 0537                         l670 05B2                         l662 0590  
                       l671 05B9                         l743 0C4F                         l736 07E8  
                       l649 0515                         l745 0C5F                         l770 0EE1  
                       l659 0559                         l684 0259                         l781 0EAD  
             ?_IIC_ReadByte 0070                         l686 03B1                         l782 0EB9  
                       l774 0E93                         l768 0E5A                         _one 00C7  
                       _ten 00C8                ___awmod@sign 0076                         wreg 0009  
             ?_IIC_SendByte 0070                ___flmul@aexp 0032                ___flmul@bexp 0033  
              ___flmul@sign 002D                ___flmul@temp 0038                ___flmul@prod 0034  
           __end_of_IIC_Ack 0BDA                ___fltol@exp1 00A1                        l2001 046B  
                      l2003 046D                        l2011 047E                        l2101 05AC  
                      l2021 049F                        l2013 0489                        l2005 0471  
                      l2103 05AE                        l2031 04B1                        l2023 04A3  
                      l2015 048E                        l2007 0472                        l2111 020C  
                      l2105 05B4                        l2041 04F9                        l2033 04B2  
                      l2025 04A7                        l2009 047A                        l2201 030B  
                      l2121 021D                        l2113 020E                        l2107 05B8  
                      l2051 0522                        l2043 04FF                        l2035 04BA  
                      l2027 04AB                        l2019 0497                        l2211 031C  
                      l2203 030C                        l2131 0235                        l2123 0225  
                      l2115 0212                        l2061 053B                        l2045 0504  
                      l2029 04AD                        l2037 04BF                        l2221 0341  
                      l2213 0320                        l2205 0313                        l2141 0246  
                      l2133 0237                        l2125 0226                        l2117 0213  
                      l2109 0208                        l2301 0659                        l2063 053E  
                      l2055 052B                        l2039 04D5                        l2047 050D  
                      l2071 054B                        l2231 0376                        l2223 0349  
                      l2215 0334                        l2207 0317                        l2151 026D  
                      l2143 024E                        l2135 023B                        l2119 0218  
                      l2127 0228                        l2311 069D                        l2303 0671  
                      l2081 055E                        l2073 054C                        l2065 0540  
                      l2057 0532                        l2049 051D                        l2241 03A4  
                      l2233 0391                        l2225 034D                        l2209 031B  
                      l2153 0271                        l2145 024F                        l2137 023C  
                      l2129 0230                        l2321 06CF                        l2313 06A4  
                      l2305 067E                        l2401 0E6B                        l2091 0595  
                      l2083 0563                        l2075 0550                        l2067 0545  
                      l2059 0536                        l2243 03A6                        l2235 0394  
                      l2227 0365                        l2219 033C                        l2171 02B0  
                      l2163 0288                        l2139 0241                        l2147 0251  
                      l2331 072A                        l2323 06E1                        l2315 06AF  
                      l2307 068B                        l2251 05BE                        l2411 0E8C  
                      l2403 0E6E                        l1701 0BCE                        l2093 059A  
                      l2085 056B                        l2077 0556                        l2069 0547  
                      l2237 039C                        l2229 0369                        l2181 02CA  
                      l2173 02B2                        l2165 0298                        l2149 0261  
                      l2157 027A                        l2341 0749                        l2333 0731  
                      l2325 06EC                        l2317 06B6                        l2309 0692  
                      l2261 05CF                        l2253 05C0                        l2421 0EBB  
                      l2413 0E9A                        l2405 0E79                        l2501 01D0  
                      l1703 0BDA                        l2095 05A2                        l2087 056F  
                      l2239 03A0                        l2175 02B7                        l2183 02D1  
                      l2191 02F0                        l2167 02A0                        l2159 027F  
                      l1711 0C4B                        l2351 075D                        l2343 0750  
                      l2335 073D                        l2327 06FE                        l2319 06C8  
                      l2271 05E8                        l2263 05D7                        l2255 05C4  
                      l2423 0ECF                        l2415 0EA3                        l2407 0E80  
                      l2503 01FE                        l1801 0D62                        l1721 0C1A  
                      l2097 05A7                        l2089 058C                        l2193 02F6  
                      l2185 02E3                        l2177 02C5                        l2169 02A8  
                      l1713 0C56                        l1705 0C3E                        l2361 0786  
                      l2353 0771                        l2337 0744                        l2345 0754  
                      l2329 0713                        l2281 05FF                        l2273 05EC  
                      l2265 05D9                        l2257 05C5                        l2249 05BA  
                      l2425 0ED4                        l2417 0EA7                        l2409 0E84  
                      l2505 01FE                        l2441 0C11                        l2433 0C04  
                      l2601 0FF3                        l1811 0D76                        l1803 0D67  
                      l2531 0D07                        l2523 0CF3                        l2515 0CD4  
                      l2507 0CC0                        l1731 0C26                        l1723 0C1B  
                      l2099 05A8                        l2195 02FE                        l2187 02E4  
                      l2179 02C9                        l1715 0C5B                        l1707 0C40  
                      l2371 07BD                        l2363 078A                        l2347 0758  
                      l2339 0748                        l2283 0601                        l2275 05ED  
                      l2267 05E1                        l2259 05CA                        l2427 0ED8  
                      l2419 0EB1                        l2451 0C18                        l2443 0C12  
                      l2435 0C0A                        l2611 0FFB                        l2603 0FF4  
                      l1821 0D8A                        l1813 0D78                        l1805 0D69  
                      l2525 0CF9                        l2517 0CDA                        l2509 0CC6  
                      l1733 0C29                        l1741 0C36                        l1725 0C1D  
                      l2197 0300                        l2189 02EC                        l1709 0C47  
                      l2381 07E5                        l2373 07CB                        l2365 07A2  
                      l2357 0779                        l2349 0759                        l2293 061C  
                      l2285 0609                        l2277 05F2                        l2269 05E6  
                      l1901 0DFD                        l2429 0ED9                        l2461 0028  
                      l2453 0005                        l2445 0C14                        l2437 0C0D  
                      l2605 0FF5                        l2541 0EF3                        l1831 0DA7  
                      l1823 0D8E                        l1815 0D7E                        l1807 0D6D  
                      l1751 0C62                        l1719 0BE6                        l1743 0C3B  
                      l1735 0C30                        l1727 0C1F                        l2199 0307  
                      l2383 07E6                        l2375 07D4                        l2359 077E  
                      l2367 07A6                        l2295 0627                        l2287 060E  
                      l2279 05F7                        l1911 0E26                        l1903 0E0F  
                      l2391 0E3E                        l2471 005E                        l2463 0032  
                      l2455 000D                        l2447 0C15                        l2439 0C0F  
                      l2607 0FF7                        l2551 0F22                        l2543 0EFB  
                      l2535 0EE2                        l1825 0D9D                        l1817 0D81  
                      l1833 0DAD                        l1809 0D72                        l1841 0D09  
                      l1761 0C74                        l1729 0C21                        l1921 03BC  
                      l2385 07EC                        l2377 07D6                        l2369 07B3  
                      l2297 0634                        l2289 0613                        l1913 0E2B  
                      l2393 0E42                        l2481 007C                        l2473 0061  
                      l2465 003C                        l2457 0010                        l2449 0C17  
                      l2609 0FF9                        l2561 0F68                        l2553 0F30  
                      l2545 0F08                        l2537 0EE5                        l1835 0DB2  
                      l1827 0DA1                        l1819 0D86                        l1851 0D19  
                      l1843 0D0A                        l1771 0C8A                        l1763 0C75  
                      l1747 0C60                        l1739 0C32                        l1931 03D0  
                      l1923 03BD                        l1915 03B2                        l2379 07E1  
                      l2299 064C                        l2395 0E52                        l2491 00A1  
                      l2483 0085                        l2475 0068                        l2467 0046  
                      l2459 0021                        l2571 0FA3                        l2563 0F87  
                      l2555 0F3E                        l2547 0F14                        l2539 0EE8  
                      l1837 0DB7                        l1829 0DA2                        l1861 0D30  
                      l1853 0D1E                        l1845 0D0E                        l1781 0C9C  
                      l1765 0C77                        l1757 0C6A                        l1749 0C60  
                      l1941 03E4                        l1925 03C2                        l1933 03D2  
                      l1917 03B6                        l1909 0E16                        l2397 0E62  
                      l2389 0E39                        l2493 00F4                        l2485 008E  
                      l2477 0075                        l2469 004D                        l2581 0FC5  
                      l2573 0FA9                        l2565 0F8F                        l2557 0F4C  
                      l2549 0F1E                        l1863 0D34                        l1855 0D24  
                      l1871 0D4D                        l1847 0D13                        l1791 0CBB  
                      l1783 0CA4                        l1767 0C79                        l1759 0C6F  
                      l1951 03F5                        l1943 03E6                        l1935 03DA  
                      l1927 03C7                        l1919 03B8                        l2495 010A  
                      l2487 0097                        l2479 0079                        l2591 0FE5  
                      l2583 0FCB                        l2575 0FAF                        l2567 0F95  
                      l2559 0F5A                        l1873 0D52                        l1865 0D3E  
                      l1857 0D27                        l1849 0D15                        l1793 0CBE  
                      l1785 0CAA                        l1777 0C96                        l1769 0C89  
                      l1961 0412                        l1953 03FD                        l1945 03EA  
                      l1937 03DD                        l1929 03CF                        l1881 0DC7  
                      l2497 0160                        l2489 009F                        l2593 0FEE  
                      l2585 0FD3                        l2577 0FB5                        l2569 0F9D  
                      l1875 0D57                        l1867 0D42                        l1859 0D2C  
                      l1787 0CB1                        l1779 0C98                        l1699 0BF5  
                      l1971 041E                        l1963 0416                        l1955 03FE  
                      l1947 03EB                        l1939 03E3                        l1891 0DEE  
                      l2499 018E                        l2595 0FF0                        l2587 0FD9  
                      l2579 0FBD                        l1797 0D5C                        l1869 0D47  
                      l1789 0CB7                        l1981 0428                        l1973 0420  
                      l1965 0418                        l1949 03F0                        l1957 0400  
                      l1893 0DF1                        l1885 0DD1                        l2597 0FF1  
                      l2589 0FDF                        l1799 0D5E                        l1991 0432  
                      l1983 042A                        l1975 0422                        l1967 041A  
                      l1959 040E                        l1895 0DF5                        l1887 0DE4  
                      l1879 0DBC                        l2599 0FF2                        l1985 042C  
                      l1977 0424                        l1969 041C                        l1993 0434  
                      l1889 0DE6                        l1995 0435                        l1987 042E  
                      l1979 0426                        l1997 044C                        l1989 0430  
                      l1999 0467                        u2000 0D34                        u2001 0D33  
                      u2010 0D3E                        u2011 0D3D                        u2100 0E0E  
                      u2101 0E0D                        u2030 0D4D                        u2110 0E15  
                      u2031 0D4C                        u2015 0D3A                        u2111 0E14  
                      u2040 0D52                        u2200 03F0                        u2041 0D51  
                      u2025 0D43                        u2201 03EF                        u2210 03F5  
                      u3010 0748                        u2130 0E26                        u2050 0DC7  
                      u2211 03F4                        u3011 0747                        u2131 0E25  
                      u2051 0DC6                        u2300 0485                        u2220 040E  
                      u3100 07B3                        u2140 0E2B                        u2060 0DDF  
                      u2301 0484                        u2221 040D                        u3101 07B2  
                      u3005 073E                        u2141 0E2A                        u2125 0E17  
                      u2310 0489                        u2230 0412                        u2150 03BC  
                      u3110 07CB                        u3030 0758                        u2070 0DF5  
                      u2311 0488                        u2231 0411                        u2151 03BB  
                      u3111 07CA                        u3031 0757                        u2071 0DF4  
                      u2400 0522                        u2320 048E                        u2240 044C  
                      u2160 03C2                        u3120 07E5                        u3040 075D  
                      u2080 0DFC                        u2401 0521                        u2321 048D  
                      u2241 044B                        u2161 03C1                        u3121 07E4  
                      u3105 07AF                        u3041 075C                        u3025 074A  
                      u2081 0DFB                        u2065 0DDB                        u2330 04A3  
                      u2250 0456                        u2170 03C7                        u3050 0771  
                      u3210 0EA7                        u3130 0E3E                        u2331 04A2  
                      u2251 0454                        u2171 03C6                        u3115 07C7  
                      u3051 0770                        u3211 0EA6                        u3131 0E3D  
                      u3300 0CF9                        u2500 056F                        u2420 0536  
                      u2340 04A7                        u2260 0457                        u2180 03E3  
                      u3060 0778                        u3220 0EAD                        u3140 0E42  
                      u3301 0CF8                        u2501 056E                        u2421 0535  
                      u2341 04A6                        u2245 0448                        u2181 03E2  
                      u3061 0777                        u3221 0EAC                        u3205 0E9D  
                      u3141 0E41                        u2510 057D                        u2430 053B  
                      u2350 04B1                        u2270 0467                        u2190 03EA  
                      u3070 077E                        u3230 0EB1                        u3150 0E62  
                      u3310 0F1E                        u2431 053A                        u2415 052C  
                      u2351 04B0                        u2271 0466                        u2191 03E9  
                      u3071 077D                        u2095 0DFE                        u3231 0EB0  
                      u3151 0E61                        u3311 0F1D                        u2520 058C  
                      u2440 0545                        u2280 0471                        u2600 021D  
                      u3080 078A                        u3240 0EC5                        u3400 0FBD  
                      u3320 0F87                        u2521 058B                        u2441 0544  
                      u2281 0470                        u2601 021C                        u3081 0789  
                      u3401 0FBC                        u3321 0F86                        u1810 0C88  
                      u2530 0595                        u2450 054B                        u2370 04D5  
                      u2610 023B                        u3090 0798                        u3250 0ED4  
                      u3170 0E7F                        u3410 0FC5                        u3330 0F8F  
                      u1811 0C87                        u2531 0594                        u2515 0579  
                      u2451 054A                        u2371 04D4                        u2611 023A  
                      u3251 0ED3                        u3171 0E7E                        u3411 0FC4  
                      u3331 0F8E                        u1900 0D8E                        u1820 0C96  
                      u2540 059A                        u2460 0550                        u2380 0504  
                      u2620 0241                        u1740 0C4B                        u3260 0ED8  
                      u3420 0FCB                        u3340 0F95                        u1901 0D8D  
                      u1821 0C95                        u1805 0C70                        u2541 0599  
                      u2461 054F                        u2381 0503                        u2373 04D1  
                      u2365 04B4                        u2621 0240                        u1741 0C4A  
                      u3261 0ED7                        u3245 0EC1                        u3165 0E73  
                      u3421 0FCA                        u3341 0F94                        u1830 0C9C  
                      u2550 05A7                        u2470 0556                        u2390 051D  
                      u2710 02E3                        u2630 0246                        u3190 0E99  
                      u3270 009F                        u3430 0FD3                        u3350 0F9D  
                      u1831 0C9B                        u2551 05A6                        u2471 0555  
                      u2391 051C                        u2295 0474                        u2711 02E2  
                      u2631 0245                        u3095 0794                        u3191 0E98  
                      u3271 009E                        u3431 0FD2                        u3351 0F9C  
                      u1920 0D9D                        u3280 0CC6                        u1840 0CAA  
                      u2560 05AC                        u2480 055D                        u2800 033B  
                      u2720 02F6                        u2640 0261                        u1760 0C5B  
                      u3440 0FD9                        u3360 0FA3                        u1921 0D9C  
                      u3281 0CC5                        u1841 0CA9                        u2561 05AB  
                      u2481 055C                        u2801 033A                        u2721 02F5  
                      u2705 02CB                        u2641 0260                        u1761 0C5A  
                      u3185 0E8D                        u3441 0FD8                        u3361 0FA2  
                      u3290 0CDA                        u1850 0CB7                        u1770 0C26  
                      u2570 05B8                        u2490 0563                        u2810 0341  
                      u2730 02FE                        u2650 027F                        u3450 0FDF  
                      u3370 0FA9                        u1915 0D8F                        u3291 0CD9  
                      u1851 0CB6                        u1771 0C25                        u2571 05B7  
                      u2491 0562                        u2811 0340                        u2731 02FD  
                      u2715 02DF                        u2651 027E                        u1755 0C50  
                      u3451 0FDE                        u3371 0FA8                        u3507 0F7A  
                      u1940 0DAD                        u1860 0D62                        u1780 0C3A  
                      u2820 034D                        u2660 02B7                        u2580 0212  
                      u2900 05EC                        u3460 0FE5                        u3380 0FAF  
                      u1941 0DAC                        u1925 0D99                        u1861 0D61  
                      u1781 0C39                        u2821 034C                        u2661 02B6  
                      u2581 0211                        u2901 05EB                        u3517 0FE9  
                      u3461 0FE4                        u3381 0FAE                        u1950 0DB2  
                      u1870 0D6D                        u1790 0C6A                        u2830 035B  
                      u2750 030B                        u2590 0218                        u2910 05F2  
                      u3390 0FB5                        u1951 0DB1                        u1935 0DA3  
                      u1871 0D6C                        u1791 0C69                        u2751 030A  
                      u2591 0217                        u2911 05F1                        u3607 0080  
                      u3527 0013                        u3391 0FB4                        u1880 0D7E  
                      u1960 0D0E                        u2840 0376                        u2920 05F7  
                      u1881 0D7D                        u1961 0D0D                        u2841 0375  
                      u2745 0301                        u2921 05F6                        u3617 0092  
                      u3537 0024                        u1970 0D19                        u2850 0391  
                      u2770 031B                        u2690 02C9                        u2930 060E  
                      u1971 0D18                        u2851 0390                        u2835 0357  
                      u2771 031A                        u2691 02C8                        u2675 02B8  
                      u2931 060D                        u3627 0202                        u3547 002E  
                      u1980 0D24                        u2860 03A4                        u2780 0320  
                      u2940 0613                        u1981 0D23                        u3637 0C2C  
                      u2861 03A3                        u2845 0372                        u2781 031F  
                      u2765 030D                        u2685 02BF                        u2941 0612  
                      u3557 003F                        u3477 0EEE                        u2790 0334  
                      u2870 05C4                        u1895 0D82                        u3647 0CAD  
                      u2855 038D                        u2791 0333                        u2871 05C3  
                      u3567 0049                        u3487 0EFF                        u2880 05CA  
                      u2881 05C9                        u3577 005A                        u3497 0F0E  
                      u2970 0709                        u2890 05CF                        u1995 0D28  
                      u2955 068C                        u2891 05CE                        u3587 0064  
                      u2980 0720                        u2965 06B7                        u3597 006E  
                      u2975 0705                        u2985 071C                        u2995 072B  
                      _one1 00C4                        _main 0EE2                        _ten1 00C5  
                      fsr0h 0005                        indf0 0000                        fsr0l 0004  
                      btemp 007E                        start 0002             ___fldiv@new_exp 004C  
          __end_of_ASCII_TH 0D09             IIC_SendByte@txd 0070            __end_of_IIC_NAck 0BE6  
          __end_of_IIC_WAck 0C3D            __end_of_IIC_Stop 0C04            __end_of_IIC_init 000C  
            ??_IIC_ReadByte 0072               ___fltol@sign1 00A0             __end_of___fladd 05BA  
                     ?_main 0070             __end_of___fldiv 03B2             __end_of___awdiv 0DBC  
           __end_of___awmod 0D5C             __end_of___flmul 07F5             __end_of___fltol 0E38  
           ___awdiv@divisor 0077             ___awdiv@counter 0020                       _SPBRG 019B  
            ??_IIC_SendByte 0072                       _TXREG 019A                       status 0003  
                     wtemp0 007E             __initialization 07F5                __end_of_main 1000  
                    ??_main 00B9                   ??_IIC_Ack 0070           __end_of_IIC_Start 0BF5  
          ___awdiv@dividend 0079                      _ANSELA 018C                      _OSCCON 0099  
          __end_of___xxtofl 0EE2    __end_of_GXHT30_write_cmd 0073                   ??___fladd 005C  
                 ??___fldiv 0042                   ??___awdiv 007B                   ??___awmod 0074  
                 ??___flmul 0028                   ??___fltol 006C            ___awdiv@quotient 0022  
           ___awmod@divisor 0070             ___awmod@counter 0075               IIC_ReadByte@i 0074  
                 ?_ASCII_TH 0024                ___xxtofl@arg 007A                ___xxtofl@exp 0079  
              ___xxtofl@val 0070                   ?_IIC_NAck 0070                   ?_IIC_WAck 0070  
   __end_of__initialization 07FD                   ?_IIC_Stop 0070        __end_of_IIC_ReadByte 0CC0  
                 ?_IIC_init 0070                   IIC_WAck@i 0071                  ___fltol@f1 0068  
      __end_of_IIC_SendByte 0C89               IIC_SendByte@i 0072              __pcstackCOMMON 0070  
             ASCII_TH@Value 0024                  ??_ASCII_TH 007C  __end_of_GXHT30_read_result 0208  
                __pbssBANK1 00BB                  ??_IIC_NAck 0070                  ??_IIC_WAck 0070  
                ??_IIC_Stop 0070                  ??_IIC_init 0070           __end_of__Umul8_16 0C60  
                __pmaintext 0EE2                     _IIC_Ack 0BCE                   ?___xxtofl 0070  
                   ___fladd 03B2                     ___fldiv 0208                     ___awdiv 0D5C  
                   ___awmod 0D09                     ___flmul 05BA                     ___fltol 0DBC  
         __end_of_main_init 0C1A                 _Temperature 00C1        GXHT30_write_cmd@addr 0078  
                   __ptext1 0C04                     __ptext2 0005                     __ptext3 000C  
                   __ptext4 0073                     __ptext5 0E38                     __ptext6 0DBC  
                   __ptext7 05BA                     __ptext8 0C3D                     __ptext9 0208  
                ??___xxtofl 0074            ___awmod@dividend 0072                     _hundred 00C6  
                 _IIC_Start 0BE6                     clrloop0 0BC9        end_of_initialization 07FD  
         ?_GXHT30_write_cmd 0074                   _RCSTAbits 019D          ??_GXHT30_write_cmd 0076  
                 _PORTAbits 000C                _IIC_ReadByte 0C89                 ___fladd@grs 0067  
             ___xxtofl@sign 0078                   _TRISAbits 008C                _IIC_SendByte 0C60  
               ___fldiv@grs 004E                 ___fldiv@rem 0047                  ?_IIC_Start 0070  
         _Temperature_Value 00BD                 ___flmul@grs 002E      GXHT30_read_result@addr 00A4  
    GXHT30_read_result@buff 00A9                   _TXSTAbits 019E                 _BAUDCONbits 019F  
       start_initialization 07F5          _GXHT30_read_result 0073                   __Umul8_16 0C3D  
    _GXHT30_read_result$953 00B5         ?_GXHT30_read_result 0070                   ___fladd@a 0058  
                 ___fladd@b 0054                    ?_IIC_Ack 0070                   ___fldiv@a 003A  
                 ___fldiv@b 003E                   ___flmul@a 0024                   ___flmul@b 0020  
                 ___latbits 0001               __pcstackBANK0 0020               __pcstackBANK1 00A0  
            _Humidity_Value 00BB                 ??_IIC_Start 0070        ??_GXHT30_read_result 00A2  
                  ?___fladd 0054                    ?___fldiv 003A                    ?___awdiv 0077  
                  ?___awmod 0070                    ?___flmul 0020                    ?___fltol 0068  
                ?__Umul8_16 0070                   _main_init 0C04                    _ASCII_TH 0CC0  
       GXHT30_write_cmd@LSB 0075         GXHT30_write_cmd@MSB 0074                    _IIC_NAck 0BDA  
                  _IIC_WAck 0C1A                    _IIC_Stop 0BF5                    _IIC_init 0005  
                 clear_ram0 0BC8                  ?_main_init 0070       GXHT30_read_result@hum 00A7  
     GXHT30_read_result@tem 00A5                    _Humidity 00BF                  _APFCONbits 011D  
               ??__Umul8_16 0072                 ASCII_TH@bit 0026                    ___xxtofl 0E38  
                  __ptext10 03B2                    __ptext11 0C1A                    __ptext20 0D5C  
                  __ptext12 0BF5                    __ptext13 0BE6                    __ptext14 0C60  
                  __ptext15 0C89                    __ptext16 0BDA                    __ptext17 0BCE  
                  __ptext18 0CC0                    __ptext19 0D09         IIC_ReadByte@receive 0073  
                  _hundred1 00C3                 ??_main_init 0070             IIC_ReadByte@ack 0070  
    __Umul8_16@multiplicand 0070            _GXHT30_write_cmd 000C               ___fladd@signs 0064  
              ___fladd@aexp 0065                ___fladd@bexp 0066        __Umul8_16@multiplier 0078  
         __Umul8_16@product 0074  
